	.file	"main.prof"
	.text
	.globl	BZ2_blockSort
	.align	16, 0x90
	.type	BZ2_blockSort,@function
BZ2_blockSort:                          # @BZ2_blockSort
	.cfi_startproc
# BB#0:                                 # %entry
	subq	$88, %rsp
.Ltmp1:
	.cfi_def_cfa_offset 96
	incl	EdgeProfCounters(%rip)
	movq	%rdi, 80(%rsp)
	movq	56(%rdi), %rax
	movq	%rax, 72(%rsp)
	movq	80(%rsp), %rax
	movq	64(%rax), %rax
	movq	%rax, 64(%rsp)
	movq	80(%rsp), %rax
	movq	40(%rax), %rax
	movq	%rax, 56(%rsp)
	movq	80(%rsp), %rax
	movl	108(%rax), %eax
	movl	%eax, 52(%rsp)
	movq	80(%rsp), %rax
	movl	656(%rax), %eax
	movl	%eax, 48(%rsp)
	movq	80(%rsp), %rax
	movl	88(%rax), %eax
	movl	%eax, 44(%rsp)
	cmpl	$9999, 52(%rsp)         # imm = 0x270F
	jg	.LBB0_2
# BB#1:                                 # %if.then
	incl	EdgeProfCounters+4(%rip)
	movq	80(%rsp), %rax
	movq	24(%rax), %rdi
	movq	32(%rax), %rsi
	movl	48(%rsp), %r8d
	movl	52(%rsp), %ecx
	movq	56(%rsp), %rdx
	callq	fallbackSort
	incl	EdgeProfCounters+12(%rip)
	jmp	.LBB0_24
.LBB0_2:                                # %if.else
	incl	EdgeProfCounters+8(%rip)
	movl	52(%rsp), %eax
	addl	$34, %eax
	movl	%eax, 20(%rsp)
	testb	$1, 20(%rsp)
	je	.LBB0_3
# BB#4:                                 # %if.then5
	incl	EdgeProfCounters+16(%rip)
	incl	20(%rsp)
	incl	EdgeProfCounters+24(%rip)
	jmp	.LBB0_5
.LBB0_3:                                # %if.else.if.end_crit_edge
	incl	EdgeProfCounters+20(%rip)
.LBB0_5:                                # %if.end
	movslq	20(%rsp), %rax
	addq	64(%rsp), %rax
	movq	%rax, 32(%rsp)
	cmpl	$0, 44(%rsp)
	jle	.LBB0_7
# BB#6:                                 # %if.end.if.end8_crit_edge
	incl	EdgeProfCounters+32(%rip)
	jmp	.LBB0_8
.LBB0_7:                                # %if.then7
	incl	EdgeProfCounters+28(%rip)
	movl	$1, 44(%rsp)
	incl	EdgeProfCounters+36(%rip)
.LBB0_8:                                # %if.end8
	cmpl	$100, 44(%rsp)
	jle	.LBB0_9
# BB#10:                                # %if.then10
	incl	EdgeProfCounters+40(%rip)
	movl	$100, 44(%rsp)
	incl	EdgeProfCounters+48(%rip)
	jmp	.LBB0_11
.LBB0_9:                                # %if.end8.if.end11_crit_edge
	incl	EdgeProfCounters+44(%rip)
.LBB0_11:                               # %if.end11
	movl	44(%rsp), %eax
	decl	%eax
	movslq	%eax, %rax
	imulq	$1431655766, %rax, %rax # imm = 0x55555556
	movq	%rax, %rcx
	shrq	$63, %rcx
	shrq	$32, %rax
	addl	%ecx, %eax
	leaq	28(%rsp), %r10
	imull	52(%rsp), %eax
	movl	%eax, 24(%rsp)
	movl	%eax, 28(%rsp)
	movl	48(%rsp), %r9d
	movl	52(%rsp), %r8d
	movq	56(%rsp), %rcx
	movq	32(%rsp), %rdx
	movq	64(%rsp), %rsi
	movq	72(%rsp), %rdi
	movq	%r10, (%rsp)
	callq	mainSort
	cmpl	$2, 48(%rsp)
	jle	.LBB0_12
# BB#13:                                # %if.then13
	incl	EdgeProfCounters+52(%rip)
	movl	24(%rsp), %edx
	subl	28(%rsp), %edx
	cvtsi2ss	%edx, %xmm0
	movl	52(%rsp), %ecx
	movq	stderr(%rip), %rdi
	testl	%ecx, %ecx
	je	.LBB0_14
# BB#15:                                # %cond.false
	incl	EdgeProfCounters+64(%rip)
	movl	52(%rsp), %eax
	incl	EdgeProfCounters+72(%rip)
	jmp	.LBB0_16
.LBB0_12:                               # %if.end11.if.end21_crit_edge
	incl	EdgeProfCounters+56(%rip)
	jmp	.LBB0_17
.LBB0_14:                               # %cond.true
	incl	EdgeProfCounters+60(%rip)
	incl	EdgeProfCounters+68(%rip)
	movl	$1, %eax
.LBB0_16:                               # %cond.end
	cvtsi2ss	%eax, %xmm1
	divss	%xmm1, %xmm0
	cvtss2sd	%xmm0, %xmm0
	movl	$.L.str, %esi
	movb	$1, %al
	callq	fprintf
	incl	EdgeProfCounters+76(%rip)
.LBB0_17:                               # %if.end21
	cmpl	$0, 28(%rsp)
	js	.LBB0_19
# BB#18:                                # %if.end21.if.end32_crit_edge
	incl	EdgeProfCounters+84(%rip)
	jmp	.LBB0_23
.LBB0_19:                               # %if.then24
	incl	EdgeProfCounters+80(%rip)
	cmpl	$1, 48(%rsp)
	jle	.LBB0_20
# BB#21:                                # %if.then27
	incl	EdgeProfCounters+88(%rip)
	movq	stderr(%rip), %rdi
	movl	$.L.str1, %esi
	xorb	%al, %al
	callq	fprintf
	incl	EdgeProfCounters+96(%rip)
	jmp	.LBB0_22
.LBB0_20:                               # %if.then24.if.end29_crit_edge
	incl	EdgeProfCounters+92(%rip)
.LBB0_22:                               # %if.end29
	movq	80(%rsp), %rax
	movq	24(%rax), %rdi
	movq	32(%rax), %rsi
	movl	48(%rsp), %r8d
	movl	52(%rsp), %ecx
	movq	56(%rsp), %rdx
	callq	fallbackSort
	incl	EdgeProfCounters+100(%rip)
.LBB0_23:                               # %if.end32
	incl	EdgeProfCounters+104(%rip)
.LBB0_24:                               # %if.end33
	movq	80(%rsp), %rax
	movl	$-1, 48(%rax)
	movl	$0, 20(%rsp)
	incl	EdgeProfCounters+108(%rip)
	jmp	.LBB0_25
	.align	16, 0x90
.LBB0_31:                               # %if.end43
                                        #   in Loop: Header=BB0_25 Depth=1
	incl	EdgeProfCounters+124(%rip)
	incl	EdgeProfCounters+132(%rip)
	incl	20(%rsp)
	incl	EdgeProfCounters+136(%rip)
.LBB0_25:                               # %for.cond
                                        # =>This Inner Loop Header: Depth=1
	movq	80(%rsp), %rax
	movl	20(%rsp), %ecx
	cmpl	108(%rax), %ecx
	jge	.LBB0_26
# BB#29:                                # %for.body
                                        #   in Loop: Header=BB0_25 Depth=1
	incl	EdgeProfCounters+112(%rip)
	movslq	20(%rsp), %rax
	movq	72(%rsp), %rcx
	cmpl	$0, (%rcx,%rax,4)
	jne	.LBB0_31
# BB#30:                                # %if.then41
	incl	EdgeProfCounters+120(%rip)
	movq	80(%rsp), %rax
	movl	20(%rsp), %ecx
	movl	%ecx, 48(%rax)
	incl	EdgeProfCounters+128(%rip)
	jmp	.LBB0_27
.LBB0_26:                               # %for.cond.for.end_crit_edge
	incl	EdgeProfCounters+116(%rip)
.LBB0_27:                               # %for.end
	movq	80(%rsp), %rax
	cmpl	$-1, 48(%rax)
	je	.LBB0_32
# BB#28:                                # %for.end.if.end49_crit_edge
	incl	EdgeProfCounters+140(%rip)
	addq	$88, %rsp
	ret
.LBB0_32:                               # %if.then48
	incl	EdgeProfCounters+144(%rip)
	movl	$1003, %edi             # imm = 0x3EB
	callq	BZ2_bz__AssertH__fail
	incl	EdgeProfCounters+148(%rip)
	addq	$88, %rsp
	ret
.Ltmp2:
	.size	BZ2_blockSort, .Ltmp2-BZ2_blockSort
	.cfi_endproc

	.align	16, 0x90
	.type	fallbackSort,@function
fallbackSort:                           # @fallbackSort
	.cfi_startproc
# BB#0:                                 # %entry
	pushq	%rbx
.Ltmp5:
	.cfi_def_cfa_offset 16
	subq	$2144, %rsp             # imm = 0x860
.Ltmp6:
	.cfi_def_cfa_offset 2160
.Ltmp7:
	.cfi_offset %rbx, -16
	incl	EdgeProfCounters+152(%rip)
	movq	%rdi, 2136(%rsp)
	movq	%rsi, 2128(%rsp)
	movq	%rdx, 2120(%rsp)
	movl	%ecx, 2116(%rsp)
	movl	%r8d, 2112(%rsp)
	movq	2128(%rsp), %rax
	movq	%rax, (%rsp)
	cmpl	$3, 2112(%rsp)
	jle	.LBB1_1
# BB#2:                                 # %if.then
	incl	EdgeProfCounters+156(%rip)
	movq	stderr(%rip), %rdi
	movl	$.L.str3, %esi
	xorb	%al, %al
	callq	fprintf
	incl	EdgeProfCounters+164(%rip)
	jmp	.LBB1_3
.LBB1_1:                                # %entry.if.end_crit_edge
	incl	EdgeProfCounters+160(%rip)
.LBB1_3:                                # %if.end
	movl	$0, 40(%rsp)
	incl	EdgeProfCounters+168(%rip)
	jmp	.LBB1_4
	.align	16, 0x90
.LBB1_5:                                # %for.body
                                        #   in Loop: Header=BB1_4 Depth=1
	incl	EdgeProfCounters+172(%rip)
	movslq	40(%rsp), %rax
	movl	$0, 1072(%rsp,%rax,4)
	incl	EdgeProfCounters+180(%rip)
	incl	40(%rsp)
	incl	EdgeProfCounters+184(%rip)
.LBB1_4:                                # %for.cond
                                        # =>This Inner Loop Header: Depth=1
	cmpl	$256, 40(%rsp)          # imm = 0x100
	jle	.LBB1_5
# BB#6:                                 # %for.end
	incl	EdgeProfCounters+176(%rip)
	movl	$0, 40(%rsp)
	incl	EdgeProfCounters+188(%rip)
	jmp	.LBB1_7
	.align	16, 0x90
.LBB1_8:                                # %for.body4
                                        #   in Loop: Header=BB1_7 Depth=1
	incl	EdgeProfCounters+192(%rip)
	movslq	40(%rsp), %rax
	movq	(%rsp), %rcx
	movzbl	(%rcx,%rax), %eax
	incl	1072(%rsp,%rax,4)
	incl	EdgeProfCounters+200(%rip)
	incl	40(%rsp)
	incl	EdgeProfCounters+204(%rip)
.LBB1_7:                                # %for.cond2
                                        # =>This Inner Loop Header: Depth=1
	movl	40(%rsp), %eax
	cmpl	2116(%rsp), %eax
	jl	.LBB1_8
# BB#9:                                 # %for.end12
	incl	EdgeProfCounters+196(%rip)
	movl	$0, 40(%rsp)
	incl	EdgeProfCounters+208(%rip)
	jmp	.LBB1_10
	.align	16, 0x90
.LBB1_11:                               # %for.body15
                                        #   in Loop: Header=BB1_10 Depth=1
	incl	EdgeProfCounters+212(%rip)
	movslq	40(%rsp), %rax
	movl	1072(%rsp,%rax,4), %ecx
	movl	%ecx, 48(%rsp,%rax,4)
	incl	EdgeProfCounters+220(%rip)
	incl	40(%rsp)
	incl	EdgeProfCounters+224(%rip)
.LBB1_10:                               # %for.cond13
                                        # =>This Inner Loop Header: Depth=1
	cmpl	$255, 40(%rsp)
	jle	.LBB1_11
# BB#12:                                # %for.end22
	incl	EdgeProfCounters+216(%rip)
	movl	$1, 40(%rsp)
	incl	EdgeProfCounters+228(%rip)
	jmp	.LBB1_13
	.align	16, 0x90
.LBB1_14:                               # %for.body25
                                        #   in Loop: Header=BB1_13 Depth=1
	incl	EdgeProfCounters+232(%rip)
	movslq	40(%rsp), %rax
	leal	-1(%rax), %ecx
	movslq	%ecx, %rcx
	movl	1072(%rsp,%rcx,4), %ecx
	addl	%ecx, 1072(%rsp,%rax,4)
	incl	EdgeProfCounters+240(%rip)
	incl	40(%rsp)
	incl	EdgeProfCounters+244(%rip)
.LBB1_13:                               # %for.cond23
                                        # =>This Inner Loop Header: Depth=1
	cmpl	$256, 40(%rsp)          # imm = 0x100
	jle	.LBB1_14
# BB#15:                                # %for.end32
	incl	EdgeProfCounters+236(%rip)
	movl	$0, 40(%rsp)
	incl	EdgeProfCounters+248(%rip)
	jmp	.LBB1_16
	.align	16, 0x90
.LBB1_17:                               # %for.body35
                                        #   in Loop: Header=BB1_16 Depth=1
	incl	EdgeProfCounters+252(%rip)
	movslq	40(%rsp), %rax
	movq	(%rsp), %rcx
	movzbl	(%rcx,%rax), %eax
	movl	%eax, 36(%rsp)
	movslq	36(%rsp), %rax
	movl	1072(%rsp,%rax,4), %eax
	decl	%eax
	movl	%eax, 32(%rsp)
	movslq	36(%rsp), %rcx
	movl	%eax, 1072(%rsp,%rcx,4)
	movq	2136(%rsp), %rax
	movslq	32(%rsp), %rcx
	movl	40(%rsp), %edx
	movl	%edx, (%rax,%rcx,4)
	incl	EdgeProfCounters+260(%rip)
	incl	40(%rsp)
	incl	EdgeProfCounters+264(%rip)
.LBB1_16:                               # %for.cond33
                                        # =>This Inner Loop Header: Depth=1
	movl	40(%rsp), %eax
	cmpl	2116(%rsp), %eax
	jl	.LBB1_17
# BB#18:                                # %for.end47
	incl	EdgeProfCounters+256(%rip)
	movl	2116(%rsp), %ecx
	movl	%ecx, %eax
	sarl	$31, %eax
	shrl	$27, %eax
	addl	%ecx, %eax
	sarl	$5, %eax
	addl	$2, %eax
	movl	%eax, 8(%rsp)
	movl	$0, 40(%rsp)
	incl	EdgeProfCounters+268(%rip)
	jmp	.LBB1_19
	.align	16, 0x90
.LBB1_20:                               # %for.body52
                                        #   in Loop: Header=BB1_19 Depth=1
	incl	EdgeProfCounters+272(%rip)
	movq	2120(%rsp), %rax
	movslq	40(%rsp), %rcx
	movl	$0, (%rax,%rcx,4)
	incl	EdgeProfCounters+280(%rip)
	incl	40(%rsp)
	incl	EdgeProfCounters+284(%rip)
.LBB1_19:                               # %for.cond49
                                        # =>This Inner Loop Header: Depth=1
	movl	40(%rsp), %eax
	cmpl	8(%rsp), %eax
	jl	.LBB1_20
# BB#21:                                # %for.end57
	incl	EdgeProfCounters+276(%rip)
	movl	$0, 40(%rsp)
	incl	EdgeProfCounters+288(%rip)
	jmp	.LBB1_22
	.align	16, 0x90
.LBB1_23:                               # %for.body61
                                        #   in Loop: Header=BB1_22 Depth=1
	incl	EdgeProfCounters+292(%rip)
	movslq	40(%rsp), %rax
	movl	1072(%rsp,%rax,4), %ecx
	movl	$1, %eax
	shll	%cl, %eax
	sarl	$5, %ecx
	movslq	%ecx, %rcx
	movq	2120(%rsp), %rdx
	orl	%eax, (%rdx,%rcx,4)
	incl	EdgeProfCounters+300(%rip)
	incl	40(%rsp)
	incl	EdgeProfCounters+304(%rip)
.LBB1_22:                               # %for.cond58
                                        # =>This Inner Loop Header: Depth=1
	cmpl	$255, 40(%rsp)
	jle	.LBB1_23
# BB#24:                                # %for.end70
	incl	EdgeProfCounters+296(%rip)
	movl	$0, 40(%rsp)
	incl	EdgeProfCounters+308(%rip)
	jmp	.LBB1_25
	.align	16, 0x90
.LBB1_26:                               # %for.body74
                                        #   in Loop: Header=BB1_25 Depth=1
	incl	EdgeProfCounters+312(%rip)
	movl	40(%rsp), %ecx
	addl	%ecx, %ecx
	addl	2116(%rsp), %ecx
	movl	$1, %eax
	shll	%cl, %eax
	sarl	$5, %ecx
	movslq	%ecx, %rcx
	movq	2120(%rsp), %rdx
	orl	%eax, (%rdx,%rcx,4)
	movl	40(%rsp), %eax
	movl	2116(%rsp), %ecx
	leal	1(%rcx,%rax,2), %ecx
	movl	%ecx, %eax
	sarl	$5, %eax
	movslq	%eax, %rax
                                        # kill: CL<def> CL<kill> ECX<kill>
	movl	$1, %edx
	shll	%cl, %edx
	notl	%edx
	movq	2120(%rsp), %rcx
	andl	%edx, (%rcx,%rax,4)
	incl	EdgeProfCounters+320(%rip)
	incl	40(%rsp)
	incl	EdgeProfCounters+324(%rip)
.LBB1_25:                               # %for.cond71
                                        # =>This Inner Loop Header: Depth=1
	cmpl	$31, 40(%rsp)
	jle	.LBB1_26
# BB#27:                                # %for.end98
	incl	EdgeProfCounters+316(%rip)
	movl	$1, 44(%rsp)
	incl	EdgeProfCounters+328(%rip)
	movl	$1, %ebx
	jmp	.LBB1_28
	.align	16, 0x90
.LBB1_104:                              # %if.end267
                                        #   in Loop: Header=BB1_28 Depth=1
	incl	EdgeProfCounters+632(%rip)
	incl	EdgeProfCounters+640(%rip)
.LBB1_28:                               # %while.body
                                        # =>This Loop Header: Depth=1
                                        #     Child Loop BB1_32 Depth 2
                                        #     Child Loop BB1_41 Depth 2
                                        #       Child Loop BB1_42 Depth 3
                                        #       Child Loop BB1_50 Depth 3
                                        #       Child Loop BB1_53 Depth 3
                                        #       Child Loop BB1_59 Depth 3
                                        #       Child Loop BB1_67 Depth 3
                                        #       Child Loop BB1_70 Depth 3
                                        #       Child Loop BB1_80 Depth 3
	cmpl	$3, 2112(%rsp)
	jle	.LBB1_29
# BB#30:                                # %if.then101
                                        #   in Loop: Header=BB1_28 Depth=1
	incl	EdgeProfCounters+332(%rip)
	movl	44(%rsp), %edx
	movq	stderr(%rip), %rdi
	movl	$.L.str6, %esi
	xorb	%al, %al
	callq	fprintf
	incl	EdgeProfCounters+340(%rip)
	jmp	.LBB1_31
	.align	16, 0x90
.LBB1_29:                               # %while.body.if.end103_crit_edge
                                        #   in Loop: Header=BB1_28 Depth=1
	incl	EdgeProfCounters+336(%rip)
.LBB1_31:                               # %if.end103
                                        #   in Loop: Header=BB1_28 Depth=1
	movl	$0, 36(%rsp)
	movl	$0, 40(%rsp)
	incl	EdgeProfCounters+344(%rip)
	jmp	.LBB1_32
	.align	16, 0x90
.LBB1_39:                               # %if.end123
                                        #   in Loop: Header=BB1_32 Depth=2
	movq	2128(%rsp), %rax
	movslq	32(%rsp), %rcx
	movl	36(%rsp), %edx
	movl	%edx, (%rax,%rcx,4)
	incl	EdgeProfCounters+380(%rip)
	incl	40(%rsp)
	incl	EdgeProfCounters+384(%rip)
.LBB1_32:                               # %for.cond104
                                        #   Parent Loop BB1_28 Depth=1
                                        # =>  This Inner Loop Header: Depth=2
	movl	40(%rsp), %eax
	cmpl	2116(%rsp), %eax
	jge	.LBB1_40
# BB#33:                                # %for.body107
                                        #   in Loop: Header=BB1_32 Depth=2
	incl	EdgeProfCounters+348(%rip)
	movl	40(%rsp), %eax
	movl	%eax, %ecx
	sarl	$5, %ecx
	movslq	%ecx, %rcx
	movq	2120(%rsp), %rdx
	movl	(%rdx,%rcx,4), %ecx
	btl	%eax, %ecx
	jae	.LBB1_34
# BB#35:                                # %if.then114
                                        #   in Loop: Header=BB1_32 Depth=2
	incl	EdgeProfCounters+356(%rip)
	movl	40(%rsp), %eax
	movl	%eax, 36(%rsp)
	incl	EdgeProfCounters+364(%rip)
	jmp	.LBB1_36
	.align	16, 0x90
.LBB1_34:                               # %for.body107.if.end115_crit_edge
                                        #   in Loop: Header=BB1_32 Depth=2
	incl	EdgeProfCounters+360(%rip)
.LBB1_36:                               # %if.end115
                                        #   in Loop: Header=BB1_32 Depth=2
	movslq	40(%rsp), %rax
	movq	2136(%rsp), %rcx
	movl	(%rcx,%rax,4), %eax
	subl	44(%rsp), %eax
	movl	%eax, 32(%rsp)
	jns	.LBB1_37
# BB#38:                                # %if.then121
                                        #   in Loop: Header=BB1_32 Depth=2
	incl	EdgeProfCounters+368(%rip)
	movl	2116(%rsp), %eax
	addl	%eax, 32(%rsp)
	incl	EdgeProfCounters+376(%rip)
	jmp	.LBB1_39
	.align	16, 0x90
.LBB1_37:                               # %if.end115.if.end123_crit_edge
                                        #   in Loop: Header=BB1_32 Depth=2
	incl	EdgeProfCounters+372(%rip)
	jmp	.LBB1_39
	.align	16, 0x90
.LBB1_40:                               # %for.end128
                                        #   in Loop: Header=BB1_28 Depth=1
	incl	EdgeProfCounters+352(%rip)
	movl	$0, 12(%rsp)
	movl	$-1, 24(%rsp)
	incl	EdgeProfCounters+388(%rip)
	jmp	.LBB1_41
	.align	16, 0x90
.LBB1_78:                               # %if.end226.if.end254_crit_edge
                                        #   in Loop: Header=BB1_41 Depth=2
	incl	EdgeProfCounters+564(%rip)
	incl	EdgeProfCounters+604(%rip)
.LBB1_41:                               # %while.body130
                                        #   Parent Loop BB1_28 Depth=1
                                        # =>  This Loop Header: Depth=2
                                        #       Child Loop BB1_42 Depth 3
                                        #       Child Loop BB1_50 Depth 3
                                        #       Child Loop BB1_53 Depth 3
                                        #       Child Loop BB1_59 Depth 3
                                        #       Child Loop BB1_67 Depth 3
                                        #       Child Loop BB1_70 Depth 3
                                        #       Child Loop BB1_80 Depth 3
	movl	24(%rsp), %eax
	incl	%eax
	movl	%eax, 32(%rsp)
	incl	EdgeProfCounters+392(%rip)
	jmp	.LBB1_42
	.align	16, 0x90
.LBB1_46:                               # %while.body142
                                        #   in Loop: Header=BB1_42 Depth=3
	incl	EdgeProfCounters+408(%rip)
	incl	32(%rsp)
	incl	EdgeProfCounters+416(%rip)
.LBB1_42:                               # %while.cond132
                                        #   Parent Loop BB1_28 Depth=1
                                        #     Parent Loop BB1_41 Depth=2
                                        # =>    This Inner Loop Header: Depth=3
	movl	32(%rsp), %eax
	movl	%eax, %ecx
	sarl	$5, %ecx
	movslq	%ecx, %rcx
	movq	2120(%rsp), %rdx
	movl	(%rdx,%rcx,4), %ecx
	btl	%eax, %ecx
	jae	.LBB1_43
# BB#44:                                # %land.rhs
                                        #   in Loop: Header=BB1_42 Depth=3
	incl	EdgeProfCounters+396(%rip)
	movl	32(%rsp), %eax
	incl	EdgeProfCounters+404(%rip)
	testb	$31, %al
	setne	%al
	jmp	.LBB1_45
	.align	16, 0x90
.LBB1_43:                               # %while.cond132.land.end_crit_edge
                                        #   in Loop: Header=BB1_42 Depth=3
	incl	EdgeProfCounters+400(%rip)
	xorb	%al, %al
.LBB1_45:                               # %land.end
                                        #   in Loop: Header=BB1_42 Depth=3
	cmpb	$1, %al
	je	.LBB1_46
# BB#47:                                # %while.end
                                        #   in Loop: Header=BB1_41 Depth=2
	incl	EdgeProfCounters+412(%rip)
	movl	32(%rsp), %eax
	movl	%eax, %ecx
	sarl	$5, %ecx
	movslq	%ecx, %rcx
	movq	2120(%rsp), %rdx
	movl	(%rdx,%rcx,4), %ecx
	btl	%eax, %ecx
	jae	.LBB1_48
# BB#49:                                # %if.then151
                                        #   in Loop: Header=BB1_41 Depth=2
	incl	EdgeProfCounters+420(%rip)
	incl	EdgeProfCounters+428(%rip)
	jmp	.LBB1_50
	.align	16, 0x90
.LBB1_51:                               # %while.body158
                                        #   in Loop: Header=BB1_50 Depth=3
	incl	EdgeProfCounters+432(%rip)
	addl	$32, 32(%rsp)
	incl	EdgeProfCounters+440(%rip)
.LBB1_50:                               # %while.cond152
                                        #   Parent Loop BB1_28 Depth=1
                                        #     Parent Loop BB1_41 Depth=2
                                        # =>    This Inner Loop Header: Depth=3
	movl	32(%rsp), %eax
	sarl	$5, %eax
	movslq	%eax, %rax
	movq	2120(%rsp), %rcx
	cmpl	$-1, (%rcx,%rax,4)
	je	.LBB1_51
# BB#52:                                # %while.end160
                                        #   in Loop: Header=BB1_41 Depth=2
	incl	EdgeProfCounters+436(%rip)
	incl	EdgeProfCounters+444(%rip)
	jmp	.LBB1_53
	.align	16, 0x90
.LBB1_54:                               # %while.body169
                                        #   in Loop: Header=BB1_53 Depth=3
	incl	EdgeProfCounters+448(%rip)
	incl	32(%rsp)
	incl	EdgeProfCounters+456(%rip)
.LBB1_53:                               # %while.cond161
                                        #   Parent Loop BB1_28 Depth=1
                                        #     Parent Loop BB1_41 Depth=2
                                        # =>    This Inner Loop Header: Depth=3
	movl	32(%rsp), %eax
	movl	%eax, %ecx
	sarl	$5, %ecx
	movslq	%ecx, %rcx
	movq	2120(%rsp), %rdx
	movl	(%rdx,%rcx,4), %ecx
	btl	%eax, %ecx
	jb	.LBB1_54
# BB#55:                                # %while.end171
                                        #   in Loop: Header=BB1_41 Depth=2
	incl	EdgeProfCounters+452(%rip)
	incl	EdgeProfCounters+460(%rip)
	jmp	.LBB1_56
	.align	16, 0x90
.LBB1_48:                               # %while.end.if.end172_crit_edge
                                        #   in Loop: Header=BB1_41 Depth=2
	incl	EdgeProfCounters+424(%rip)
.LBB1_56:                               # %if.end172
                                        #   in Loop: Header=BB1_41 Depth=2
	movl	32(%rsp), %eax
	decl	%eax
	movl	%eax, 28(%rsp)
	cmpl	2116(%rsp), %eax
	jge	.LBB1_57
# BB#58:                                # %if.end177
                                        #   in Loop: Header=BB1_41 Depth=2
	incl	EdgeProfCounters+468(%rip)
	incl	EdgeProfCounters+476(%rip)
	jmp	.LBB1_59
	.align	16, 0x90
.LBB1_63:                               # %while.body190
                                        #   in Loop: Header=BB1_59 Depth=3
	incl	EdgeProfCounters+492(%rip)
	incl	32(%rsp)
	incl	EdgeProfCounters+500(%rip)
.LBB1_59:                               # %while.cond178
                                        #   Parent Loop BB1_28 Depth=1
                                        #     Parent Loop BB1_41 Depth=2
                                        # =>    This Inner Loop Header: Depth=3
	movl	32(%rsp), %eax
	movl	%eax, %ecx
	sarl	$5, %ecx
	movslq	%ecx, %rcx
	movq	2120(%rsp), %rdx
	movl	(%rdx,%rcx,4), %ecx
	btl	%eax, %ecx
	jae	.LBB1_61
# BB#60:                                # %while.cond178.land.end189_crit_edge
                                        #   in Loop: Header=BB1_59 Depth=3
	incl	EdgeProfCounters+480(%rip)
	xorb	%al, %al
	jmp	.LBB1_62
	.align	16, 0x90
.LBB1_61:                               # %land.rhs186
                                        #   in Loop: Header=BB1_59 Depth=3
	incl	EdgeProfCounters+484(%rip)
	movl	32(%rsp), %eax
	incl	EdgeProfCounters+488(%rip)
	testb	$31, %al
	setne	%al
.LBB1_62:                               # %land.end189
                                        #   in Loop: Header=BB1_59 Depth=3
	cmpb	$1, %al
	je	.LBB1_63
# BB#64:                                # %while.end192
                                        #   in Loop: Header=BB1_41 Depth=2
	incl	EdgeProfCounters+496(%rip)
	movl	32(%rsp), %eax
	movl	%eax, %ecx
	sarl	$5, %ecx
	movslq	%ecx, %rcx
	movq	2120(%rsp), %rdx
	movl	(%rdx,%rcx,4), %ecx
	btl	%eax, %ecx
	jae	.LBB1_66
# BB#65:                                # %while.end192.if.end221_crit_edge
                                        #   in Loop: Header=BB1_41 Depth=2
	incl	EdgeProfCounters+504(%rip)
	jmp	.LBB1_73
	.align	16, 0x90
.LBB1_66:                               # %if.then200
                                        #   in Loop: Header=BB1_41 Depth=2
	incl	EdgeProfCounters+508(%rip)
	incl	EdgeProfCounters+512(%rip)
	jmp	.LBB1_67
	.align	16, 0x90
.LBB1_68:                               # %while.body207
                                        #   in Loop: Header=BB1_67 Depth=3
	incl	EdgeProfCounters+516(%rip)
	addl	$32, 32(%rsp)
	incl	EdgeProfCounters+524(%rip)
.LBB1_67:                               # %while.cond201
                                        #   Parent Loop BB1_28 Depth=1
                                        #     Parent Loop BB1_41 Depth=2
                                        # =>    This Inner Loop Header: Depth=3
	movl	32(%rsp), %eax
	sarl	$5, %eax
	movslq	%eax, %rax
	movq	2120(%rsp), %rcx
	cmpl	$0, (%rcx,%rax,4)
	je	.LBB1_68
# BB#69:                                # %while.end209
                                        #   in Loop: Header=BB1_41 Depth=2
	incl	EdgeProfCounters+520(%rip)
	incl	EdgeProfCounters+528(%rip)
	jmp	.LBB1_70
	.align	16, 0x90
.LBB1_71:                               # %while.body218
                                        #   in Loop: Header=BB1_70 Depth=3
	incl	EdgeProfCounters+532(%rip)
	incl	32(%rsp)
	incl	EdgeProfCounters+540(%rip)
.LBB1_70:                               # %while.cond210
                                        #   Parent Loop BB1_28 Depth=1
                                        #     Parent Loop BB1_41 Depth=2
                                        # =>    This Inner Loop Header: Depth=3
	movl	32(%rsp), %eax
	movl	%eax, %ecx
	sarl	$5, %ecx
	movslq	%ecx, %rcx
	movq	2120(%rsp), %rdx
	movl	(%rdx,%rcx,4), %ecx
	btl	%eax, %ecx
	jae	.LBB1_71
# BB#72:                                # %while.end220
                                        #   in Loop: Header=BB1_41 Depth=2
	incl	EdgeProfCounters+536(%rip)
	incl	EdgeProfCounters+544(%rip)
.LBB1_73:                               # %if.end221
                                        #   in Loop: Header=BB1_41 Depth=2
	movl	32(%rsp), %eax
	decl	%eax
	movl	%eax, 24(%rsp)
	cmpl	2116(%rsp), %eax
	jge	.LBB1_74
# BB#77:                                # %if.end226
                                        #   in Loop: Header=BB1_41 Depth=2
	incl	EdgeProfCounters+552(%rip)
	movl	24(%rsp), %eax
	cmpl	28(%rsp), %eax
	jle	.LBB1_78
# BB#79:                                # %if.then229
                                        #   in Loop: Header=BB1_41 Depth=2
	incl	EdgeProfCounters+560(%rip)
	movl	24(%rsp), %eax
	subl	28(%rsp), %eax
	movl	12(%rsp), %ecx
	leal	1(%rax,%rcx), %eax
	movl	%eax, 12(%rsp)
	movl	24(%rsp), %ecx
	movl	28(%rsp), %edx
	movq	2128(%rsp), %rsi
	movq	2136(%rsp), %rdi
	callq	fallbackQSort3
	movl	$-1, 20(%rsp)
	movl	28(%rsp), %eax
	movl	%eax, 40(%rsp)
	incl	EdgeProfCounters+568(%rip)
	jmp	.LBB1_80
	.align	16, 0x90
.LBB1_84:                               # %if.end250
                                        #   in Loop: Header=BB1_80 Depth=3
	incl	EdgeProfCounters+592(%rip)
	incl	40(%rsp)
	incl	EdgeProfCounters+596(%rip)
.LBB1_80:                               # %for.cond233
                                        #   Parent Loop BB1_28 Depth=1
                                        #     Parent Loop BB1_41 Depth=2
                                        # =>    This Inner Loop Header: Depth=3
	movl	40(%rsp), %eax
	cmpl	24(%rsp), %eax
	jg	.LBB1_85
# BB#81:                                # %for.body236
                                        #   in Loop: Header=BB1_80 Depth=3
	incl	EdgeProfCounters+572(%rip)
	movslq	40(%rsp), %rax
	movq	2136(%rsp), %rcx
	movl	(%rcx,%rax,4), %eax
	movq	2128(%rsp), %rcx
	movl	(%rcx,%rax,4), %eax
	movl	%eax, 16(%rsp)
	cmpl	%eax, 20(%rsp)
	je	.LBB1_82
# BB#83:                                # %if.then243
                                        #   in Loop: Header=BB1_80 Depth=3
	incl	EdgeProfCounters+580(%rip)
	movl	40(%rsp), %ecx
	movl	%ebx, %eax
	shll	%cl, %eax
	sarl	$5, %ecx
	movslq	%ecx, %rcx
	movq	2120(%rsp), %rdx
	orl	%eax, (%rdx,%rcx,4)
	movl	16(%rsp), %eax
	movl	%eax, 20(%rsp)
	incl	EdgeProfCounters+588(%rip)
	jmp	.LBB1_84
	.align	16, 0x90
.LBB1_82:                               # %for.body236.if.end250_crit_edge
                                        #   in Loop: Header=BB1_80 Depth=3
	incl	EdgeProfCounters+584(%rip)
	jmp	.LBB1_84
	.align	16, 0x90
.LBB1_85:                               # %for.end253
                                        #   in Loop: Header=BB1_41 Depth=2
	incl	EdgeProfCounters+576(%rip)
	incl	EdgeProfCounters+600(%rip)
	incl	EdgeProfCounters+604(%rip)
	jmp	.LBB1_41
	.align	16, 0x90
.LBB1_57:                               # %if.then176
                                        #   in Loop: Header=BB1_28 Depth=1
	incl	EdgeProfCounters+464(%rip)
	incl	EdgeProfCounters+472(%rip)
	jmp	.LBB1_75
	.align	16, 0x90
.LBB1_74:                               # %if.then225
                                        #   in Loop: Header=BB1_28 Depth=1
	incl	EdgeProfCounters+548(%rip)
	incl	EdgeProfCounters+556(%rip)
.LBB1_75:                               # %while.end255
                                        #   in Loop: Header=BB1_28 Depth=1
	cmpl	$3, 2112(%rsp)
	jle	.LBB1_76
# BB#86:                                # %if.then258
                                        #   in Loop: Header=BB1_28 Depth=1
	incl	EdgeProfCounters+608(%rip)
	movl	12(%rsp), %edx
	movq	stderr(%rip), %rdi
	movl	$.L.str7, %esi
	xorb	%al, %al
	callq	fprintf
	incl	EdgeProfCounters+616(%rip)
	jmp	.LBB1_87
	.align	16, 0x90
.LBB1_76:                               # %while.end255.if.end260_crit_edge
                                        #   in Loop: Header=BB1_28 Depth=1
	incl	EdgeProfCounters+612(%rip)
.LBB1_87:                               # %if.end260
                                        #   in Loop: Header=BB1_28 Depth=1
	movl	44(%rsp), %eax
	addl	%eax, %eax
	movl	%eax, 44(%rsp)
	cmpl	2116(%rsp), %eax
	jg	.LBB1_88
# BB#89:                                # %lor.lhs.false
                                        #   in Loop: Header=BB1_28 Depth=1
	incl	EdgeProfCounters+624(%rip)
	cmpl	$0, 12(%rsp)
	jne	.LBB1_104
# BB#90:                                # %lor.lhs.false.if.then266_crit_edge
	incl	EdgeProfCounters+628(%rip)
	jmp	.LBB1_91
.LBB1_88:                               # %if.end260.if.then266_crit_edge
	incl	EdgeProfCounters+620(%rip)
.LBB1_91:                               # %lor.lhs.false.if.then266_crit_edge
	incl	EdgeProfCounters+636(%rip)
	cmpl	$3, 2112(%rsp)
	jle	.LBB1_92
# BB#93:                                # %if.then271
	incl	EdgeProfCounters+644(%rip)
	movq	stderr(%rip), %rdi
	movl	$.L.str8, %esi
	xorb	%al, %al
	callq	fprintf
	incl	EdgeProfCounters+652(%rip)
	jmp	.LBB1_94
.LBB1_92:                               # %while.end268.if.end273_crit_edge
	incl	EdgeProfCounters+648(%rip)
.LBB1_94:                               # %if.end273
	movl	$0, 36(%rsp)
	movl	$0, 40(%rsp)
	incl	EdgeProfCounters+656(%rip)
	jmp	.LBB1_95
	.align	16, 0x90
.LBB1_99:                               # %while.end284
                                        #   in Loop: Header=BB1_95 Depth=1
	incl	EdgeProfCounters+676(%rip)
	movslq	36(%rsp), %rax
	decl	48(%rsp,%rax,4)
	movslq	40(%rsp), %rax
	movq	2136(%rsp), %rcx
	movl	(%rcx,%rax,4), %eax
	movq	(%rsp), %rcx
	movb	36(%rsp), %dl
	movb	%dl, (%rcx,%rax)
	incl	EdgeProfCounters+684(%rip)
	incl	40(%rsp)
	incl	EdgeProfCounters+688(%rip)
.LBB1_95:                               # %for.cond274
                                        # =>This Loop Header: Depth=1
                                        #     Child Loop BB1_97 Depth 2
	movl	40(%rsp), %eax
	cmpl	2116(%rsp), %eax
	jge	.LBB1_100
# BB#96:                                # %for.body277
                                        #   in Loop: Header=BB1_95 Depth=1
	incl	EdgeProfCounters+660(%rip)
	incl	EdgeProfCounters+668(%rip)
	jmp	.LBB1_97
	.align	16, 0x90
.LBB1_98:                               # %while.body282
                                        #   in Loop: Header=BB1_97 Depth=2
	incl	EdgeProfCounters+672(%rip)
	incl	36(%rsp)
	incl	EdgeProfCounters+680(%rip)
.LBB1_97:                               # %while.cond
                                        #   Parent Loop BB1_95 Depth=1
                                        # =>  This Inner Loop Header: Depth=2
	movslq	36(%rsp), %rax
	cmpl	$0, 48(%rsp,%rax,4)
	jne	.LBB1_99
	jmp	.LBB1_98
.LBB1_100:                              # %for.end294
	incl	EdgeProfCounters+664(%rip)
	cmpl	$255, 36(%rsp)
	jg	.LBB1_102
# BB#101:                               # %for.end294.if.end298_crit_edge
	incl	EdgeProfCounters+692(%rip)
	jmp	.LBB1_103
.LBB1_102:                              # %if.then297
	incl	EdgeProfCounters+696(%rip)
	movl	$1005, %edi             # imm = 0x3ED
	callq	BZ2_bz__AssertH__fail
	incl	EdgeProfCounters+700(%rip)
.LBB1_103:                              # %if.end298
	addq	$2144, %rsp             # imm = 0x860
	popq	%rbx
	ret
.Ltmp8:
	.size	fallbackSort, .Ltmp8-fallbackSort
	.cfi_endproc

	.align	16, 0x90
	.type	mainSort,@function
mainSort:                               # @mainSort
	.cfi_startproc
# BB#0:                                 # %entry
	pushq	%rbx
.Ltmp11:
	.cfi_def_cfa_offset 16
	subq	$3472, %rsp             # imm = 0xD90
.Ltmp12:
	.cfi_def_cfa_offset 3488
.Ltmp13:
	.cfi_offset %rbx, -16
	incl	EdgeProfCounters+704(%rip)
	movq	%rdi, 3464(%rsp)
	movq	%rsi, 3456(%rsp)
	movq	%rdx, 3448(%rsp)
	movq	%rcx, 3440(%rsp)
	movl	%r8d, 3436(%rsp)
	movl	%r9d, 3432(%rsp)
	movq	3488(%rsp), %rax
	movq	%rax, 3424(%rsp)
	cmpl	$3, 3432(%rsp)
	jle	.LBB2_1
# BB#2:                                 # %if.then
	incl	EdgeProfCounters+708(%rip)
	movq	stderr(%rip), %rdi
	movl	$.L.str2, %esi
	xorb	%al, %al
	callq	fprintf
	incl	EdgeProfCounters+716(%rip)
	jmp	.LBB2_3
.LBB2_1:                                # %entry.if.end_crit_edge
	incl	EdgeProfCounters+712(%rip)
.LBB2_3:                                # %if.end
	movl	$65536, 3420(%rsp)      # imm = 0x10000
	incl	EdgeProfCounters+720(%rip)
	jmp	.LBB2_4
	.align	16, 0x90
.LBB2_5:                                # %for.inc
                                        #   in Loop: Header=BB2_4 Depth=1
	incl	EdgeProfCounters+724(%rip)
	movq	3440(%rsp), %rax
	movslq	3420(%rsp), %rcx
	movl	$0, (%rax,%rcx,4)
	incl	EdgeProfCounters+732(%rip)
	decl	3420(%rsp)
	incl	EdgeProfCounters+736(%rip)
.LBB2_4:                                # %for.cond
                                        # =>This Inner Loop Header: Depth=1
	cmpl	$0, 3420(%rsp)
	jns	.LBB2_5
# BB#6:                                 # %for.end
	incl	EdgeProfCounters+728(%rip)
	movq	3456(%rsp), %rax
	movzbl	(%rax), %eax
	shll	$8, %eax
	movl	%eax, 3416(%rsp)
	movl	3436(%rsp), %eax
	decl	%eax
	movl	%eax, 3420(%rsp)
	incl	EdgeProfCounters+740(%rip)
	jmp	.LBB2_7
	.align	16, 0x90
.LBB2_8:                                # %for.inc58
                                        #   in Loop: Header=BB2_7 Depth=1
	incl	EdgeProfCounters+744(%rip)
	movq	3448(%rsp), %rax
	movslq	3420(%rsp), %rcx
	movw	$0, (%rax,%rcx,2)
	movslq	3420(%rsp), %rax
	movq	3456(%rsp), %rcx
	movzbl	(%rcx,%rax), %eax
	shll	$8, %eax
	movl	3416(%rsp), %ecx
	sarl	$8, %ecx
	orl	%eax, %ecx
	movl	%ecx, 3416(%rsp)
	movq	3440(%rsp), %rax
	movslq	3416(%rsp), %rcx
	incl	(%rax,%rcx,4)
	movl	3420(%rsp), %eax
	decl	%eax
	movslq	%eax, %rax
	movq	3448(%rsp), %rcx
	movw	$0, (%rcx,%rax,2)
	movl	3420(%rsp), %eax
	decl	%eax
	movslq	%eax, %rax
	movq	3456(%rsp), %rcx
	movzbl	(%rcx,%rax), %eax
	shll	$8, %eax
	movl	3416(%rsp), %ecx
	sarl	$8, %ecx
	orl	%eax, %ecx
	movl	%ecx, 3416(%rsp)
	movq	3440(%rsp), %rax
	movslq	3416(%rsp), %rcx
	incl	(%rax,%rcx,4)
	movl	3420(%rsp), %eax
	addl	$-2, %eax
	movslq	%eax, %rax
	movq	3448(%rsp), %rcx
	movw	$0, (%rcx,%rax,2)
	movl	3420(%rsp), %eax
	addl	$-2, %eax
	movslq	%eax, %rax
	movq	3456(%rsp), %rcx
	movzbl	(%rcx,%rax), %eax
	shll	$8, %eax
	movl	3416(%rsp), %ecx
	sarl	$8, %ecx
	orl	%eax, %ecx
	movl	%ecx, 3416(%rsp)
	movq	3440(%rsp), %rax
	movslq	3416(%rsp), %rcx
	incl	(%rax,%rcx,4)
	movl	3420(%rsp), %eax
	addl	$-3, %eax
	movslq	%eax, %rax
	movq	3448(%rsp), %rcx
	movw	$0, (%rcx,%rax,2)
	movl	3420(%rsp), %eax
	addl	$-3, %eax
	movslq	%eax, %rax
	movq	3456(%rsp), %rcx
	movzbl	(%rcx,%rax), %eax
	shll	$8, %eax
	movl	3416(%rsp), %ecx
	sarl	$8, %ecx
	orl	%eax, %ecx
	movl	%ecx, 3416(%rsp)
	movq	3440(%rsp), %rax
	movslq	3416(%rsp), %rcx
	incl	(%rax,%rcx,4)
	incl	EdgeProfCounters+752(%rip)
	addl	$-4, 3420(%rsp)
	incl	EdgeProfCounters+756(%rip)
.LBB2_7:                                # %for.cond3
                                        # =>This Inner Loop Header: Depth=1
	cmpl	$3, 3420(%rsp)
	jge	.LBB2_8
# BB#9:                                 # %for.end60
	incl	EdgeProfCounters+748(%rip)
	incl	EdgeProfCounters+760(%rip)
	jmp	.LBB2_10
	.align	16, 0x90
.LBB2_11:                               # %for.inc77
                                        #   in Loop: Header=BB2_10 Depth=1
	incl	EdgeProfCounters+764(%rip)
	movq	3448(%rsp), %rax
	movslq	3420(%rsp), %rcx
	movw	$0, (%rax,%rcx,2)
	movslq	3420(%rsp), %rax
	movq	3456(%rsp), %rcx
	movzbl	(%rcx,%rax), %eax
	shll	$8, %eax
	movl	3416(%rsp), %ecx
	sarl	$8, %ecx
	orl	%eax, %ecx
	movl	%ecx, 3416(%rsp)
	movq	3440(%rsp), %rax
	movslq	3416(%rsp), %rcx
	incl	(%rax,%rcx,4)
	incl	EdgeProfCounters+772(%rip)
	decl	3420(%rsp)
	incl	EdgeProfCounters+776(%rip)
.LBB2_10:                               # %for.cond61
                                        # =>This Inner Loop Header: Depth=1
	cmpl	$0, 3420(%rsp)
	jns	.LBB2_11
# BB#12:                                # %for.end79
	incl	EdgeProfCounters+768(%rip)
	movl	$0, 3420(%rsp)
	incl	EdgeProfCounters+780(%rip)
	jmp	.LBB2_13
	.align	16, 0x90
.LBB2_14:                               # %for.inc91
                                        #   in Loop: Header=BB2_13 Depth=1
	incl	EdgeProfCounters+784(%rip)
	movslq	3420(%rsp), %rax
	movq	3456(%rsp), %rcx
	movb	(%rcx,%rax), %dl
	addl	3436(%rsp), %eax
	movslq	%eax, %rax
	movb	%dl, (%rcx,%rax)
	movl	3436(%rsp), %eax
	addl	3420(%rsp), %eax
	movslq	%eax, %rax
	movq	3448(%rsp), %rcx
	movw	$0, (%rcx,%rax,2)
	incl	EdgeProfCounters+792(%rip)
	incl	3420(%rsp)
	incl	EdgeProfCounters+796(%rip)
.LBB2_13:                               # %for.cond80
                                        # =>This Inner Loop Header: Depth=1
	cmpl	$33, 3420(%rsp)
	jle	.LBB2_14
# BB#15:                                # %for.end93
	incl	EdgeProfCounters+788(%rip)
	cmpl	$3, 3432(%rsp)
	jle	.LBB2_16
# BB#17:                                # %if.then96
	incl	EdgeProfCounters+800(%rip)
	movq	stderr(%rip), %rdi
	movl	$.L.str3, %esi
	xorb	%al, %al
	callq	fprintf
	incl	EdgeProfCounters+808(%rip)
	jmp	.LBB2_18
.LBB2_16:                               # %for.end93.if.end98_crit_edge
	incl	EdgeProfCounters+804(%rip)
.LBB2_18:                               # %if.end98
	movl	$1, 3420(%rsp)
	incl	EdgeProfCounters+812(%rip)
	jmp	.LBB2_19
	.align	16, 0x90
.LBB2_20:                               # %for.inc109
                                        #   in Loop: Header=BB2_19 Depth=1
	incl	EdgeProfCounters+816(%rip)
	movslq	3420(%rsp), %rax
	leal	-1(%rax), %ecx
	movslq	%ecx, %rcx
	movq	3440(%rsp), %rdx
	movl	(%rdx,%rcx,4), %ecx
	addl	%ecx, (%rdx,%rax,4)
	incl	EdgeProfCounters+824(%rip)
	incl	3420(%rsp)
	incl	EdgeProfCounters+828(%rip)
.LBB2_19:                               # %for.cond99
                                        # =>This Inner Loop Header: Depth=1
	cmpl	$65536, 3420(%rsp)      # imm = 0x10000
	jle	.LBB2_20
# BB#21:                                # %for.end111
	incl	EdgeProfCounters+820(%rip)
	movq	3456(%rsp), %rax
	movzbl	(%rax), %eax
	shll	$8, %eax
	movw	%ax, 54(%rsp)
	movl	3436(%rsp), %eax
	decl	%eax
	movl	%eax, 3420(%rsp)
	incl	EdgeProfCounters+832(%rip)
	jmp	.LBB2_22
	.align	16, 0x90
.LBB2_23:                               # %for.inc187
                                        #   in Loop: Header=BB2_22 Depth=1
	incl	EdgeProfCounters+836(%rip)
	movslq	3420(%rsp), %rax
	movq	3456(%rsp), %rcx
	movzbl	(%rcx,%rax), %eax
	shll	$8, %eax
	movzwl	54(%rsp), %ecx
	shrl	$8, %ecx
	orl	%eax, %ecx
	movw	%cx, 54(%rsp)
	movzwl	54(%rsp), %eax
	movq	3440(%rsp), %rcx
	movl	(%rcx,%rax,4), %eax
	decl	%eax
	movl	%eax, 3416(%rsp)
	movq	3440(%rsp), %rcx
	movzwl	54(%rsp), %edx
	movl	%eax, (%rcx,%rdx,4)
	movq	3464(%rsp), %rax
	movslq	3416(%rsp), %rcx
	movl	3420(%rsp), %edx
	movl	%edx, (%rax,%rcx,4)
	movl	3420(%rsp), %eax
	decl	%eax
	movslq	%eax, %rax
	movq	3456(%rsp), %rcx
	movzbl	(%rcx,%rax), %eax
	shll	$8, %eax
	movzwl	54(%rsp), %ecx
	shrl	$8, %ecx
	orl	%eax, %ecx
	movw	%cx, 54(%rsp)
	movzwl	54(%rsp), %eax
	movq	3440(%rsp), %rcx
	movl	(%rcx,%rax,4), %eax
	decl	%eax
	movl	%eax, 3416(%rsp)
	movq	3440(%rsp), %rcx
	movzwl	54(%rsp), %edx
	movl	%eax, (%rcx,%rdx,4)
	movl	3420(%rsp), %eax
	decl	%eax
	movq	3464(%rsp), %rcx
	movslq	3416(%rsp), %rdx
	movl	%eax, (%rcx,%rdx,4)
	movl	3420(%rsp), %eax
	addl	$-2, %eax
	movslq	%eax, %rax
	movq	3456(%rsp), %rcx
	movzbl	(%rcx,%rax), %eax
	shll	$8, %eax
	movzwl	54(%rsp), %ecx
	shrl	$8, %ecx
	orl	%eax, %ecx
	movw	%cx, 54(%rsp)
	movzwl	54(%rsp), %eax
	movq	3440(%rsp), %rcx
	movl	(%rcx,%rax,4), %eax
	decl	%eax
	movl	%eax, 3416(%rsp)
	movq	3440(%rsp), %rcx
	movzwl	54(%rsp), %edx
	movl	%eax, (%rcx,%rdx,4)
	movl	3420(%rsp), %eax
	addl	$-2, %eax
	movq	3464(%rsp), %rcx
	movslq	3416(%rsp), %rdx
	movl	%eax, (%rcx,%rdx,4)
	movl	3420(%rsp), %eax
	addl	$-3, %eax
	movslq	%eax, %rax
	movq	3456(%rsp), %rcx
	movzbl	(%rcx,%rax), %eax
	shll	$8, %eax
	movzwl	54(%rsp), %ecx
	shrl	$8, %ecx
	orl	%eax, %ecx
	movw	%cx, 54(%rsp)
	movzwl	54(%rsp), %eax
	movq	3440(%rsp), %rcx
	movl	(%rcx,%rax,4), %eax
	decl	%eax
	movl	%eax, 3416(%rsp)
	movq	3440(%rsp), %rcx
	movzwl	54(%rsp), %edx
	movl	%eax, (%rcx,%rdx,4)
	movl	3420(%rsp), %eax
	addl	$-3, %eax
	movq	3464(%rsp), %rcx
	movslq	3416(%rsp), %rdx
	movl	%eax, (%rcx,%rdx,4)
	incl	EdgeProfCounters+844(%rip)
	addl	$-4, 3420(%rsp)
	incl	EdgeProfCounters+848(%rip)
.LBB2_22:                               # %for.cond117
                                        # =>This Inner Loop Header: Depth=1
	cmpl	$3, 3420(%rsp)
	jge	.LBB2_23
# BB#24:                                # %for.end189
	incl	EdgeProfCounters+840(%rip)
	incl	EdgeProfCounters+852(%rip)
	jmp	.LBB2_25
	.align	16, 0x90
.LBB2_26:                               # %for.inc209
                                        #   in Loop: Header=BB2_25 Depth=1
	incl	EdgeProfCounters+856(%rip)
	movslq	3420(%rsp), %rax
	movq	3456(%rsp), %rcx
	movzbl	(%rcx,%rax), %eax
	shll	$8, %eax
	movzwl	54(%rsp), %ecx
	shrl	$8, %ecx
	orl	%eax, %ecx
	movw	%cx, 54(%rsp)
	movzwl	54(%rsp), %eax
	movq	3440(%rsp), %rcx
	movl	(%rcx,%rax,4), %eax
	decl	%eax
	movl	%eax, 3416(%rsp)
	movq	3440(%rsp), %rcx
	movzwl	54(%rsp), %edx
	movl	%eax, (%rcx,%rdx,4)
	movq	3464(%rsp), %rax
	movslq	3416(%rsp), %rcx
	movl	3420(%rsp), %edx
	movl	%edx, (%rax,%rcx,4)
	incl	EdgeProfCounters+864(%rip)
	decl	3420(%rsp)
	incl	EdgeProfCounters+868(%rip)
.LBB2_25:                               # %for.cond190
                                        # =>This Inner Loop Header: Depth=1
	cmpl	$0, 3420(%rsp)
	jns	.LBB2_26
# BB#27:                                # %for.end211
	incl	EdgeProfCounters+860(%rip)
	movl	$0, 3420(%rsp)
	incl	EdgeProfCounters+872(%rip)
	jmp	.LBB2_28
	.align	16, 0x90
.LBB2_29:                               # %for.inc220
                                        #   in Loop: Header=BB2_28 Depth=1
	incl	EdgeProfCounters+876(%rip)
	movslq	3420(%rsp), %rax
	movb	$0, 2112(%rsp,%rax)
	movslq	3420(%rsp), %rax
	movl	%eax, 2368(%rsp,%rax,4)
	incl	EdgeProfCounters+884(%rip)
	incl	3420(%rsp)
	incl	EdgeProfCounters+888(%rip)
.LBB2_28:                               # %for.cond212
                                        # =>This Inner Loop Header: Depth=1
	cmpl	$255, 3420(%rsp)
	jle	.LBB2_29
# BB#30:                                # %for.end222
	incl	EdgeProfCounters+880(%rip)
	movl	$1, 44(%rsp)
	incl	EdgeProfCounters+892(%rip)
	jmp	.LBB2_31
	.align	16, 0x90
.LBB2_32:                               # %do.cond.do.body_crit_edge
                                        #   in Loop: Header=BB2_31 Depth=1
	incl	EdgeProfCounters+900(%rip)
.LBB2_31:                               # %do.cond
                                        # =>This Inner Loop Header: Depth=1
	movl	44(%rsp), %eax
	leal	1(%rax,%rax,2), %eax
	movl	%eax, 44(%rsp)
	incl	EdgeProfCounters+896(%rip)
	cmpl	$256, 44(%rsp)          # imm = 0x100
	jle	.LBB2_32
# BB#33:                                # %do.end
	incl	EdgeProfCounters+904(%rip)
	incl	EdgeProfCounters+908(%rip)
	jmp	.LBB2_34
	.align	16, 0x90
.LBB2_44:                               # %do.cond273.do.body226_crit_edge
                                        #   in Loop: Header=BB2_34 Depth=1
	incl	EdgeProfCounters+968(%rip)
.LBB2_34:                               # %do.body226
                                        # =>This Loop Header: Depth=1
                                        #     Child Loop BB2_35 Depth 2
                                        #       Child Loop BB2_37 Depth 3
	movslq	44(%rsp), %rax
	imulq	$1431655766, %rax, %rax # imm = 0x55555556
	movq	%rax, %rcx
	shrq	$63, %rcx
	shrq	$32, %rax
	addl	%ecx, %eax
	movl	%eax, 44(%rsp)
	movl	%eax, 3420(%rsp)
	incl	EdgeProfCounters+912(%rip)
	jmp	.LBB2_35
	.align	16, 0x90
.LBB2_42:                               # %for.inc270
                                        #   in Loop: Header=BB2_35 Depth=2
	movslq	3416(%rsp), %rax
	movl	48(%rsp), %ecx
	movl	%ecx, 2368(%rsp,%rax,4)
	incl	EdgeProfCounters+956(%rip)
	incl	3420(%rsp)
	incl	EdgeProfCounters+960(%rip)
.LBB2_35:                               # %for.cond227
                                        #   Parent Loop BB2_34 Depth=1
                                        # =>  This Loop Header: Depth=2
                                        #       Child Loop BB2_37 Depth 3
	cmpl	$255, 3420(%rsp)
	jg	.LBB2_43
# BB#36:                                # %for.body230
                                        #   in Loop: Header=BB2_35 Depth=2
	incl	EdgeProfCounters+916(%rip)
	movslq	3420(%rsp), %rax
	movl	2368(%rsp,%rax,4), %eax
	movl	%eax, 48(%rsp)
	movl	3420(%rsp), %eax
	movl	%eax, 3416(%rsp)
	incl	EdgeProfCounters+924(%rip)
	jmp	.LBB2_37
	.align	16, 0x90
.LBB2_40:                               # %if.end267
                                        #   in Loop: Header=BB2_37 Depth=3
	incl	EdgeProfCounters+940(%rip)
	incl	EdgeProfCounters+948(%rip)
.LBB2_37:                               # %while.cond
                                        #   Parent Loop BB2_34 Depth=1
                                        #     Parent Loop BB2_35 Depth=2
                                        # =>    This Inner Loop Header: Depth=3
	movl	48(%rsp), %edx
	leal	1(%rdx), %eax
	shll	$8, %eax
	movslq	%eax, %rcx
	movq	3440(%rsp), %rax
	movl	(%rax,%rcx,4), %ecx
	movl	3416(%rsp), %esi
	subl	44(%rsp), %esi
	movslq	%esi, %rsi
	movl	2368(%rsp,%rsi,4), %esi
	shll	$8, %edx
	movslq	%edx, %rdx
	subl	(%rax,%rdx,4), %ecx
	leal	1(%rsi), %edx
	shll	$8, %edx
	movslq	%edx, %rdx
	movl	(%rax,%rdx,4), %edx
	shll	$8, %esi
	movslq	%esi, %rsi
	subl	(%rax,%rsi,4), %edx
	cmpl	%ecx, %edx
	jbe	.LBB2_41
# BB#38:                                # %while.body
                                        #   in Loop: Header=BB2_37 Depth=3
	incl	EdgeProfCounters+928(%rip)
	movslq	3416(%rsp), %rax
	movl	44(%rsp), %edx
	movl	%eax, %ecx
	subl	%edx, %ecx
	movslq	%ecx, %rcx
	movl	2368(%rsp,%rcx,4), %ecx
	movl	%ecx, 2368(%rsp,%rax,4)
	movl	3416(%rsp), %eax
	subl	44(%rsp), %eax
	movl	%eax, 3416(%rsp)
	movl	44(%rsp), %ecx
	decl	%ecx
	cmpl	%ecx, %eax
	jg	.LBB2_40
# BB#39:                                # %if.then266
                                        #   in Loop: Header=BB2_35 Depth=2
	incl	EdgeProfCounters+936(%rip)
	incl	EdgeProfCounters+944(%rip)
	jmp	.LBB2_42
	.align	16, 0x90
.LBB2_41:                               # %while.end
                                        #   in Loop: Header=BB2_35 Depth=2
	incl	EdgeProfCounters+932(%rip)
	incl	EdgeProfCounters+952(%rip)
	jmp	.LBB2_42
	.align	16, 0x90
.LBB2_43:                               # %do.cond273
                                        #   in Loop: Header=BB2_34 Depth=1
	incl	EdgeProfCounters+920(%rip)
	incl	EdgeProfCounters+964(%rip)
	cmpl	$1, 44(%rsp)
	jne	.LBB2_44
# BB#45:                                # %do.end276
	incl	EdgeProfCounters+972(%rip)
	movl	$0, 56(%rsp)
	movl	$0, 3420(%rsp)
	incl	EdgeProfCounters+976(%rip)
	movl	$-2097153, %ebx         # imm = 0xFFFFFFFFFFDFFFFF
	jmp	.LBB2_46
	.align	16, 0x90
.LBB2_113:                              # %for.inc506
                                        #   in Loop: Header=BB2_46 Depth=1
	incl	EdgeProfCounters+1308(%rip)
	incl	3420(%rsp)
	incl	EdgeProfCounters+1312(%rip)
.LBB2_46:                               # %for.cond277
                                        # =>This Loop Header: Depth=1
                                        #     Child Loop BB2_48 Depth 2
                                        #     Child Loop BB2_68 Depth 2
                                        #     Child Loop BB2_71 Depth 2
                                        #     Child Loop BB2_80 Depth 2
                                        #     Child Loop BB2_96 Depth 2
                                        #     Child Loop BB2_101 Depth 2
                                        #     Child Loop BB2_104 Depth 2
	cmpl	$255, 3420(%rsp)
	jg	.LBB2_114
# BB#47:                                # %for.body280
                                        #   in Loop: Header=BB2_46 Depth=1
	incl	EdgeProfCounters+980(%rip)
	movslq	3420(%rsp), %rax
	movl	2368(%rsp,%rax,4), %eax
	movl	%eax, 3408(%rsp)
	movl	$0, 3416(%rsp)
	incl	EdgeProfCounters+988(%rip)
	jmp	.LBB2_48
	.align	16, 0x90
.LBB2_63:                               # %for.inc326
                                        #   in Loop: Header=BB2_48 Depth=2
	incl	EdgeProfCounters+1060(%rip)
	incl	3416(%rsp)
	incl	EdgeProfCounters+1064(%rip)
.LBB2_48:                               # %for.cond283
                                        #   Parent Loop BB2_46 Depth=1
                                        # =>  This Inner Loop Header: Depth=2
	cmpl	$255, 3416(%rsp)
	jg	.LBB2_64
# BB#49:                                # %for.body286
                                        #   in Loop: Header=BB2_48 Depth=2
	incl	EdgeProfCounters+992(%rip)
	movl	3416(%rsp), %eax
	cmpl	3408(%rsp), %eax
	je	.LBB2_50
# BB#51:                                # %if.then289
                                        #   in Loop: Header=BB2_48 Depth=2
	incl	EdgeProfCounters+1000(%rip)
	movl	3408(%rsp), %eax
	shll	$8, %eax
	addl	3416(%rsp), %eax
	movl	%eax, 3404(%rsp)
	movslq	3404(%rsp), %rax
	movq	3440(%rsp), %rcx
	testb	$32, 2(%rcx,%rax,4)
	je	.LBB2_53
# BB#52:                                # %if.then289.if.end321_crit_edge
                                        #   in Loop: Header=BB2_48 Depth=2
	incl	EdgeProfCounters+1008(%rip)
	jmp	.LBB2_62
	.align	16, 0x90
.LBB2_50:                               # %for.body286.if.end325_crit_edge
                                        #   in Loop: Header=BB2_48 Depth=2
	incl	EdgeProfCounters+1004(%rip)
	jmp	.LBB2_63
	.align	16, 0x90
.LBB2_53:                               # %if.then294
                                        #   in Loop: Header=BB2_48 Depth=2
	incl	EdgeProfCounters+1012(%rip)
	movslq	3404(%rsp), %rax
	movq	3440(%rsp), %rcx
	movl	(%rcx,%rax,4), %eax
	andl	%ebx, %eax
	movl	%eax, 40(%rsp)
	movl	3404(%rsp), %eax
	incl	%eax
	movslq	%eax, %rax
	movq	3440(%rsp), %rcx
	movl	(%rcx,%rax,4), %eax
	andl	%ebx, %eax
	decl	%eax
	movl	%eax, 36(%rsp)
	cmpl	40(%rsp), %eax
	jle	.LBB2_54
# BB#55:                                # %if.then305
                                        #   in Loop: Header=BB2_48 Depth=2
	incl	EdgeProfCounters+1016(%rip)
	cmpl	$3, 3432(%rsp)
	jle	.LBB2_56
# BB#57:                                # %if.then308
                                        #   in Loop: Header=BB2_48 Depth=2
	incl	EdgeProfCounters+1024(%rip)
	movl	36(%rsp), %r9d
	subl	40(%rsp), %r9d
	movl	56(%rsp), %r8d
	movl	3416(%rsp), %ecx
	movl	3408(%rsp), %edx
	movq	stderr(%rip), %rdi
	incl	%r9d
	movl	$.L.str4, %esi
	xorb	%al, %al
	callq	fprintf
	incl	EdgeProfCounters+1032(%rip)
	jmp	.LBB2_58
.LBB2_54:                               # %if.then294.if.end320_crit_edge
                                        #   in Loop: Header=BB2_48 Depth=2
	incl	EdgeProfCounters+1020(%rip)
	jmp	.LBB2_61
.LBB2_56:                               # %if.then305.if.end312_crit_edge
                                        #   in Loop: Header=BB2_48 Depth=2
	incl	EdgeProfCounters+1028(%rip)
.LBB2_58:                               # %if.end312
                                        #   in Loop: Header=BB2_48 Depth=2
	movl	36(%rsp), %r9d
	movl	40(%rsp), %r8d
	movl	3436(%rsp), %ecx
	movq	3448(%rsp), %rdx
	movq	3456(%rsp), %rsi
	movq	3464(%rsp), %rdi
	movq	3424(%rsp), %rax
	movq	%rax, 8(%rsp)
	movl	$2, (%rsp)
	callq	mainQSort3
	movl	36(%rsp), %eax
	subl	40(%rsp), %eax
	movl	56(%rsp), %ecx
	leal	1(%rax,%rcx), %eax
	movl	%eax, 56(%rsp)
	movq	3424(%rsp), %rax
	cmpl	$0, (%rax)
	js	.LBB2_59
# BB#60:                                # %if.end319
                                        #   in Loop: Header=BB2_48 Depth=2
	incl	EdgeProfCounters+1040(%rip)
	incl	EdgeProfCounters+1048(%rip)
.LBB2_61:                               # %if.end320
                                        #   in Loop: Header=BB2_48 Depth=2
	incl	EdgeProfCounters+1052(%rip)
.LBB2_62:                               # %if.end321
                                        #   in Loop: Header=BB2_48 Depth=2
	movq	3440(%rsp), %rax
	movslq	3404(%rsp), %rcx
	orl	$2097152, (%rax,%rcx,4) # imm = 0x200000
	incl	EdgeProfCounters+1056(%rip)
	jmp	.LBB2_63
	.align	16, 0x90
.LBB2_64:                               # %for.end328
                                        #   in Loop: Header=BB2_46 Depth=1
	incl	EdgeProfCounters+996(%rip)
	movslq	3408(%rsp), %rax
	cmpb	$0, 2112(%rsp,%rax)
	je	.LBB2_65
# BB#66:                                # %if.then332
                                        #   in Loop: Header=BB2_46 Depth=1
	incl	EdgeProfCounters+1068(%rip)
	movl	$1006, %edi             # imm = 0x3EE
	callq	BZ2_bz__AssertH__fail
	incl	EdgeProfCounters+1076(%rip)
	jmp	.LBB2_67
	.align	16, 0x90
.LBB2_65:                               # %for.end328.if.end333_crit_edge
                                        #   in Loop: Header=BB2_46 Depth=1
	incl	EdgeProfCounters+1072(%rip)
.LBB2_67:                               # %if.end333
                                        #   in Loop: Header=BB2_46 Depth=1
	movl	$0, 3416(%rsp)
	incl	EdgeProfCounters+1080(%rip)
	jmp	.LBB2_68
	.align	16, 0x90
.LBB2_69:                               # %for.inc354
                                        #   in Loop: Header=BB2_68 Depth=2
	incl	EdgeProfCounters+1084(%rip)
	movslq	3416(%rsp), %rax
	movl	%eax, %ecx
	shll	$8, %ecx
	addl	3408(%rsp), %ecx
	movslq	%ecx, %rcx
	movq	3440(%rsp), %rdx
	movl	(%rdx,%rcx,4), %ecx
	andl	%ebx, %ecx
	movl	%ecx, 1088(%rsp,%rax,4)
	movslq	3416(%rsp), %rax
	movl	%eax, %ecx
	shll	$8, %ecx
	movl	3408(%rsp), %edx
	leal	1(%rcx,%rdx), %ecx
	movslq	%ecx, %rcx
	movq	3440(%rsp), %rdx
	movl	(%rdx,%rcx,4), %ecx
	andl	%ebx, %ecx
	decl	%ecx
	movl	%ecx, 64(%rsp,%rax,4)
	incl	EdgeProfCounters+1092(%rip)
	incl	3416(%rsp)
	incl	EdgeProfCounters+1096(%rip)
.LBB2_68:                               # %for.cond334
                                        #   Parent Loop BB2_46 Depth=1
                                        # =>  This Inner Loop Header: Depth=2
	cmpl	$255, 3416(%rsp)
	jle	.LBB2_69
# BB#70:                                # %for.end356
                                        #   in Loop: Header=BB2_46 Depth=1
	incl	EdgeProfCounters+1088(%rip)
	movl	3408(%rsp), %eax
	shll	$8, %eax
	movslq	%eax, %rax
	movq	3440(%rsp), %rcx
	movl	(%rcx,%rax,4), %eax
	andl	%ebx, %eax
	movl	%eax, 3416(%rsp)
	incl	EdgeProfCounters+1100(%rip)
	jmp	.LBB2_71
	.align	16, 0x90
.LBB2_78:                               # %for.inc387
                                        #   in Loop: Header=BB2_71 Depth=2
	incl	EdgeProfCounters+1136(%rip)
	incl	3416(%rsp)
	incl	EdgeProfCounters+1140(%rip)
.LBB2_71:                               # %for.cond361
                                        #   Parent Loop BB2_46 Depth=1
                                        # =>  This Inner Loop Header: Depth=2
	movslq	3408(%rsp), %rax
	movl	3416(%rsp), %ecx
	cmpl	1088(%rsp,%rax,4), %ecx
	jge	.LBB2_79
# BB#72:                                # %for.body366
                                        #   in Loop: Header=BB2_71 Depth=2
	incl	EdgeProfCounters+1104(%rip)
	movslq	3416(%rsp), %rax
	movq	3464(%rsp), %rcx
	movl	(%rcx,%rax,4), %eax
	decl	%eax
	movl	%eax, 3412(%rsp)
	jns	.LBB2_73
# BB#74:                                # %if.then372
                                        #   in Loop: Header=BB2_71 Depth=2
	incl	EdgeProfCounters+1112(%rip)
	movl	3436(%rsp), %eax
	addl	%eax, 3412(%rsp)
	incl	EdgeProfCounters+1120(%rip)
	jmp	.LBB2_75
	.align	16, 0x90
.LBB2_73:                               # %for.body366.if.end374_crit_edge
                                        #   in Loop: Header=BB2_71 Depth=2
	incl	EdgeProfCounters+1116(%rip)
.LBB2_75:                               # %if.end374
                                        #   in Loop: Header=BB2_71 Depth=2
	movslq	3412(%rsp), %rax
	movq	3456(%rsp), %rcx
	movb	(%rcx,%rax), %al
	movb	%al, 63(%rsp)
	movzbl	63(%rsp), %eax
	cmpb	$0, 2112(%rsp,%rax)
	je	.LBB2_77
# BB#76:                                # %if.end374.if.end386_crit_edge
                                        #   in Loop: Header=BB2_71 Depth=2
	incl	EdgeProfCounters+1124(%rip)
	jmp	.LBB2_78
	.align	16, 0x90
.LBB2_77:                               # %if.then380
                                        #   in Loop: Header=BB2_71 Depth=2
	incl	EdgeProfCounters+1128(%rip)
	movzbl	63(%rsp), %ecx
	movslq	1088(%rsp,%rcx,4), %rax
	leal	1(%rax), %esi
	movl	3412(%rsp), %edx
	movl	%esi, 1088(%rsp,%rcx,4)
	movq	3464(%rsp), %rcx
	movl	%edx, (%rcx,%rax,4)
	incl	EdgeProfCounters+1132(%rip)
	jmp	.LBB2_78
	.align	16, 0x90
.LBB2_79:                               # %for.end389
                                        #   in Loop: Header=BB2_46 Depth=1
	incl	EdgeProfCounters+1108(%rip)
	movl	3408(%rsp), %eax
	incl	%eax
	shll	$8, %eax
	movslq	%eax, %rax
	movq	3440(%rsp), %rcx
	movl	(%rcx,%rax,4), %eax
	andl	%ebx, %eax
	decl	%eax
	movl	%eax, 3416(%rsp)
	incl	EdgeProfCounters+1144(%rip)
	jmp	.LBB2_80
	.align	16, 0x90
.LBB2_87:                               # %for.inc422
                                        #   in Loop: Header=BB2_80 Depth=2
	incl	EdgeProfCounters+1180(%rip)
	decl	3416(%rsp)
	incl	EdgeProfCounters+1184(%rip)
.LBB2_80:                               # %for.cond396
                                        #   Parent Loop BB2_46 Depth=1
                                        # =>  This Inner Loop Header: Depth=2
	movslq	3408(%rsp), %rax
	movl	3416(%rsp), %ecx
	cmpl	64(%rsp,%rax,4), %ecx
	jle	.LBB2_88
# BB#81:                                # %for.body401
                                        #   in Loop: Header=BB2_80 Depth=2
	incl	EdgeProfCounters+1148(%rip)
	movslq	3416(%rsp), %rax
	movq	3464(%rsp), %rcx
	movl	(%rcx,%rax,4), %eax
	decl	%eax
	movl	%eax, 3412(%rsp)
	jns	.LBB2_82
# BB#83:                                # %if.then407
                                        #   in Loop: Header=BB2_80 Depth=2
	incl	EdgeProfCounters+1156(%rip)
	movl	3436(%rsp), %eax
	addl	%eax, 3412(%rsp)
	incl	EdgeProfCounters+1164(%rip)
	jmp	.LBB2_84
	.align	16, 0x90
.LBB2_82:                               # %for.body401.if.end409_crit_edge
                                        #   in Loop: Header=BB2_80 Depth=2
	incl	EdgeProfCounters+1160(%rip)
.LBB2_84:                               # %if.end409
                                        #   in Loop: Header=BB2_80 Depth=2
	movslq	3412(%rsp), %rax
	movq	3456(%rsp), %rcx
	movb	(%rcx,%rax), %al
	movb	%al, 63(%rsp)
	movzbl	63(%rsp), %eax
	cmpb	$0, 2112(%rsp,%rax)
	je	.LBB2_86
# BB#85:                                # %if.end409.if.end421_crit_edge
                                        #   in Loop: Header=BB2_80 Depth=2
	incl	EdgeProfCounters+1168(%rip)
	jmp	.LBB2_87
	.align	16, 0x90
.LBB2_86:                               # %if.then415
                                        #   in Loop: Header=BB2_80 Depth=2
	incl	EdgeProfCounters+1172(%rip)
	movzbl	63(%rsp), %ecx
	movslq	64(%rsp,%rcx,4), %rax
	leal	-1(%rax), %esi
	movl	3412(%rsp), %edx
	movl	%esi, 64(%rsp,%rcx,4)
	movq	3464(%rsp), %rcx
	movl	%edx, (%rcx,%rax,4)
	incl	EdgeProfCounters+1176(%rip)
	jmp	.LBB2_87
	.align	16, 0x90
.LBB2_88:                               # %for.end424
                                        #   in Loop: Header=BB2_46 Depth=1
	incl	EdgeProfCounters+1152(%rip)
	movslq	3408(%rsp), %rax
	movl	1088(%rsp,%rax,4), %ecx
	decl	%ecx
	cmpl	64(%rsp,%rax,4), %ecx
	jne	.LBB2_90
# BB#89:                                # %for.end424.if.end442_crit_edge
                                        #   in Loop: Header=BB2_46 Depth=1
	incl	EdgeProfCounters+1188(%rip)
	jmp	.LBB2_95
	.align	16, 0x90
.LBB2_90:                               # %lor.lhs.false
                                        #   in Loop: Header=BB2_46 Depth=1
	incl	EdgeProfCounters+1192(%rip)
	movslq	3408(%rsp), %rax
	cmpl	$0, 1088(%rsp,%rax,4)
	jne	.LBB2_91
# BB#92:                                # %land.lhs.true
                                        #   in Loop: Header=BB2_46 Depth=1
	incl	EdgeProfCounters+1196(%rip)
	movl	3436(%rsp), %eax
	decl	%eax
	movslq	3408(%rsp), %rcx
	cmpl	%eax, 64(%rsp,%rcx,4)
	jne	.LBB2_93
# BB#118:                               # %land.lhs.true.if.end442_crit_edge
                                        #   in Loop: Header=BB2_46 Depth=1
	incl	EdgeProfCounters+1204(%rip)
	jmp	.LBB2_95
	.align	16, 0x90
.LBB2_91:                               # %lor.lhs.false.if.then441_crit_edge
                                        #   in Loop: Header=BB2_46 Depth=1
	incl	EdgeProfCounters+1200(%rip)
	jmp	.LBB2_94
.LBB2_93:                               # %land.lhs.true.if.then441_crit_edge
                                        #   in Loop: Header=BB2_46 Depth=1
	incl	EdgeProfCounters+1208(%rip)
.LBB2_94:                               # %if.then441
                                        #   in Loop: Header=BB2_46 Depth=1
	movl	$1007, %edi             # imm = 0x3EF
	callq	BZ2_bz__AssertH__fail
	incl	EdgeProfCounters+1212(%rip)
.LBB2_95:                               # %if.end442
                                        #   in Loop: Header=BB2_46 Depth=1
	movl	$0, 3416(%rsp)
	incl	EdgeProfCounters+1216(%rip)
	jmp	.LBB2_96
	.align	16, 0x90
.LBB2_97:                               # %for.inc452
                                        #   in Loop: Header=BB2_96 Depth=2
	incl	EdgeProfCounters+1220(%rip)
	movl	3416(%rsp), %eax
	shll	$8, %eax
	addl	3408(%rsp), %eax
	movslq	%eax, %rax
	movq	3440(%rsp), %rcx
	orl	$2097152, (%rcx,%rax,4) # imm = 0x200000
	incl	EdgeProfCounters+1228(%rip)
	incl	3416(%rsp)
	incl	EdgeProfCounters+1232(%rip)
.LBB2_96:                               # %for.cond443
                                        #   Parent Loop BB2_46 Depth=1
                                        # =>  This Inner Loop Header: Depth=2
	cmpl	$255, 3416(%rsp)
	jle	.LBB2_97
# BB#98:                                # %for.end454
                                        #   in Loop: Header=BB2_46 Depth=1
	incl	EdgeProfCounters+1224(%rip)
	movslq	3408(%rsp), %rax
	movb	$1, 2112(%rsp,%rax)
	cmpl	$255, 3420(%rsp)
	jge	.LBB2_99
# BB#100:                               # %if.then459
                                        #   in Loop: Header=BB2_46 Depth=1
	incl	EdgeProfCounters+1236(%rip)
	movl	3408(%rsp), %eax
	shll	$8, %eax
	movslq	%eax, %rax
	movq	3440(%rsp), %rcx
	movl	(%rcx,%rax,4), %eax
	andl	%ebx, %eax
	movl	%eax, 32(%rsp)
	movl	3408(%rsp), %ecx
	incl	%ecx
	shll	$8, %ecx
	movslq	%ecx, %rcx
	movq	3440(%rsp), %rdx
	movl	(%rdx,%rcx,4), %ecx
	andl	%ebx, %ecx
	subl	%eax, %ecx
	movl	%ecx, 28(%rsp)
	movl	$0, 24(%rsp)
	incl	EdgeProfCounters+1244(%rip)
	jmp	.LBB2_101
	.align	16, 0x90
.LBB2_102:                              # %while.body474
                                        #   in Loop: Header=BB2_101 Depth=2
	incl	EdgeProfCounters+1248(%rip)
	incl	24(%rsp)
	incl	EdgeProfCounters+1256(%rip)
.LBB2_101:                              # %while.cond470
                                        #   Parent Loop BB2_46 Depth=1
                                        # =>  This Inner Loop Header: Depth=2
	movb	24(%rsp), %cl
	movl	28(%rsp), %eax
	sarl	%cl, %eax
	cmpl	$65535, %eax            # imm = 0xFFFF
	jge	.LBB2_102
# BB#103:                               # %while.end476
                                        #   in Loop: Header=BB2_46 Depth=1
	incl	EdgeProfCounters+1252(%rip)
	movl	28(%rsp), %eax
	decl	%eax
	movl	%eax, 3416(%rsp)
	incl	EdgeProfCounters+1260(%rip)
	jmp	.LBB2_104
	.align	16, 0x90
.LBB2_108:                              # %for.inc496
                                        #   in Loop: Header=BB2_104 Depth=2
	incl	EdgeProfCounters+1284(%rip)
	decl	3416(%rsp)
	incl	EdgeProfCounters+1288(%rip)
.LBB2_104:                              # %for.cond478
                                        #   Parent Loop BB2_46 Depth=1
                                        # =>  This Inner Loop Header: Depth=2
	cmpl	$0, 3416(%rsp)
	js	.LBB2_109
# BB#105:                               # %for.body481
                                        #   in Loop: Header=BB2_104 Depth=2
	incl	EdgeProfCounters+1264(%rip)
	movl	32(%rsp), %eax
	addl	3416(%rsp), %eax
	movslq	%eax, %rax
	movq	3464(%rsp), %rcx
	movl	(%rcx,%rax,4), %eax
	movl	%eax, 20(%rsp)
	movb	24(%rsp), %cl
	movl	3416(%rsp), %eax
	sarl	%cl, %eax
	movw	%ax, 18(%rsp)
	movq	3448(%rsp), %rcx
	movslq	20(%rsp), %rdx
	movw	%ax, (%rcx,%rdx,2)
	cmpl	$34, 20(%rsp)
	jge	.LBB2_106
# BB#107:                               # %if.then491
                                        #   in Loop: Header=BB2_104 Depth=2
	incl	EdgeProfCounters+1272(%rip)
	movl	20(%rsp), %eax
	addl	3436(%rsp), %eax
	movslq	%eax, %rax
	movq	3448(%rsp), %rcx
	movw	18(%rsp), %dx
	movw	%dx, (%rcx,%rax,2)
	incl	EdgeProfCounters+1280(%rip)
	jmp	.LBB2_108
	.align	16, 0x90
.LBB2_106:                              # %for.body481.if.end495_crit_edge
                                        #   in Loop: Header=BB2_104 Depth=2
	incl	EdgeProfCounters+1276(%rip)
	jmp	.LBB2_108
	.align	16, 0x90
.LBB2_99:                               # %for.end454.if.end505_crit_edge
                                        #   in Loop: Header=BB2_46 Depth=1
	incl	EdgeProfCounters+1240(%rip)
	jmp	.LBB2_113
	.align	16, 0x90
.LBB2_109:                              # %for.end498
                                        #   in Loop: Header=BB2_46 Depth=1
	incl	EdgeProfCounters+1268(%rip)
	movl	28(%rsp), %eax
	decl	%eax
	movb	24(%rsp), %cl
	sarl	%cl, %eax
	cmpl	$65535, %eax            # imm = 0xFFFF
	jg	.LBB2_111
# BB#110:                               # %for.end498.if.end504_crit_edge
                                        #   in Loop: Header=BB2_46 Depth=1
	incl	EdgeProfCounters+1292(%rip)
	jmp	.LBB2_112
	.align	16, 0x90
.LBB2_111:                              # %if.then503
                                        #   in Loop: Header=BB2_46 Depth=1
	incl	EdgeProfCounters+1296(%rip)
	movl	$1002, %edi             # imm = 0x3EA
	callq	BZ2_bz__AssertH__fail
	incl	EdgeProfCounters+1300(%rip)
.LBB2_112:                              # %if.end504
                                        #   in Loop: Header=BB2_46 Depth=1
	incl	EdgeProfCounters+1304(%rip)
	jmp	.LBB2_113
.LBB2_59:                               # %if.then318
	incl	EdgeProfCounters+1036(%rip)
	incl	EdgeProfCounters+1044(%rip)
.LBB2_117:                              # %if.end514
	addq	$3472, %rsp             # imm = 0xD90
	popq	%rbx
	ret
.LBB2_114:                              # %for.end508
	incl	EdgeProfCounters+984(%rip)
	cmpl	$3, 3432(%rsp)
	jle	.LBB2_115
# BB#116:                               # %if.then511
	incl	EdgeProfCounters+1316(%rip)
	movl	56(%rsp), %ecx
	movl	3436(%rsp), %edx
	movl	%edx, %r8d
	subl	%ecx, %r8d
	movq	stderr(%rip), %rdi
	movl	$.L.str5, %esi
	xorb	%al, %al
	callq	fprintf
	incl	EdgeProfCounters+1324(%rip)
	jmp	.LBB2_117
.LBB2_115:                              # %for.end508.if.end514_crit_edge
	incl	EdgeProfCounters+1320(%rip)
	jmp	.LBB2_117
.Ltmp14:
	.size	mainSort, .Ltmp14-mainSort
	.cfi_endproc

	.align	16, 0x90
	.type	mainQSort3,@function
mainQSort3:                             # @mainQSort3
	.cfi_startproc
# BB#0:                                 # %entry
	subq	$1416, %rsp             # imm = 0x588
.Ltmp16:
	.cfi_def_cfa_offset 1424
	incl	EdgeProfCounters+1328(%rip)
	movq	%rdi, 1408(%rsp)
	movq	%rsi, 1400(%rsp)
	movq	%rdx, 1392(%rsp)
	movl	%ecx, 1388(%rsp)
	movl	%r8d, 1384(%rsp)
	movl	%r9d, 1380(%rsp)
	movq	1432(%rsp), %rax
	movl	1424(%rsp), %ecx
	movl	%ecx, 1376(%rsp)
	movq	%rax, 1368(%rsp)
	movl	$0, 1336(%rsp)
	movslq	1336(%rsp), %rax
	movl	1384(%rsp), %ecx
	movl	%ecx, 912(%rsp,%rax,4)
	movslq	1336(%rsp), %rax
	movl	1380(%rsp), %ecx
	movl	%ecx, 512(%rsp,%rax,4)
	movslq	1336(%rsp), %rax
	movl	1376(%rsp), %ecx
	movl	%ecx, 112(%rsp,%rax,4)
	incl	1336(%rsp)
	incl	EdgeProfCounters+1332(%rip)
	jmp	.LBB3_1
	.align	16, 0x90
.LBB3_13:                               # %if.end17
                                        #   in Loop: Header=BB3_1 Depth=1
	incl	EdgeProfCounters+1376(%rip)
	incl	EdgeProfCounters+1384(%rip)
.LBB3_1:                                # %while.cond
                                        # =>This Loop Header: Depth=1
                                        #     Child Loop BB3_15 Depth 2
                                        #       Child Loop BB3_16 Depth 3
                                        #       Child Loop BB3_23 Depth 3
                                        #     Child Loop BB3_37 Depth 2
                                        #     Child Loop BB3_43 Depth 2
	cmpl	$0, 1336(%rsp)
	jle	.LBB3_2
# BB#4:                                 # %while.body
                                        #   in Loop: Header=BB3_1 Depth=1
	incl	EdgeProfCounters+1336(%rip)
	cmpl	$99, 1336(%rsp)
	jg	.LBB3_6
# BB#5:                                 # %while.body.if.end_crit_edge
                                        #   in Loop: Header=BB3_1 Depth=1
	incl	EdgeProfCounters+1344(%rip)
	jmp	.LBB3_7
	.align	16, 0x90
.LBB3_6:                                # %if.then
                                        #   in Loop: Header=BB3_1 Depth=1
	incl	EdgeProfCounters+1348(%rip)
	movl	$1001, %edi             # imm = 0x3E9
	callq	BZ2_bz__AssertH__fail
	incl	EdgeProfCounters+1352(%rip)
.LBB3_7:                                # %if.end
                                        #   in Loop: Header=BB3_1 Depth=1
	decl	1336(%rsp)
	movslq	1336(%rsp), %rax
	movl	912(%rsp,%rax,4), %eax
	movl	%eax, 1332(%rsp)
	movslq	1336(%rsp), %rax
	movl	512(%rsp,%rax,4), %eax
	movl	%eax, 1328(%rsp)
	movslq	1336(%rsp), %rax
	movl	112(%rsp,%rax,4), %eax
	movl	%eax, 1324(%rsp)
	movl	1328(%rsp), %eax
	subl	1332(%rsp), %eax
	cmpl	$19, %eax
	jg	.LBB3_9
# BB#8:                                 # %if.end.if.then14_crit_edge
                                        #   in Loop: Header=BB3_1 Depth=1
	incl	EdgeProfCounters+1356(%rip)
	jmp	.LBB3_11
	.align	16, 0x90
.LBB3_9:                                # %lor.lhs.false
                                        #   in Loop: Header=BB3_1 Depth=1
	incl	EdgeProfCounters+1360(%rip)
	cmpl	$15, 1324(%rsp)
	jl	.LBB3_14
# BB#10:                                # %lor.lhs.false.if.then14_crit_edge
                                        #   in Loop: Header=BB3_1 Depth=1
	incl	EdgeProfCounters+1364(%rip)
.LBB3_11:                               # %if.then14
                                        #   in Loop: Header=BB3_1 Depth=1
	movl	1328(%rsp), %r9d
	movl	1332(%rsp), %r8d
	movl	1388(%rsp), %ecx
	movq	1392(%rsp), %rdx
	movq	1400(%rsp), %rsi
	movq	1408(%rsp), %rdi
	movl	1324(%rsp), %r10d
	movq	1368(%rsp), %rax
	movq	%rax, 8(%rsp)
	movl	%r10d, (%rsp)
	callq	mainSimpleSort
	movq	1368(%rsp), %rax
	cmpl	$0, (%rax)
	jns	.LBB3_13
	jmp	.LBB3_12
	.align	16, 0x90
.LBB3_14:                               # %if.end18
                                        #   in Loop: Header=BB3_1 Depth=1
	incl	EdgeProfCounters+1368(%rip)
	movslq	1332(%rsp), %rdx
	movq	1408(%rsp), %r8
	movl	1324(%rsp), %eax
	movl	(%r8,%rdx,4), %edi
	addl	%eax, %edi
	movslq	1328(%rsp), %r9
	movl	(%r8,%r9,4), %esi
	addl	%eax, %esi
	movq	1400(%rsp), %rcx
	movzbl	(%rcx,%rsi), %esi
	movzbl	(%rcx,%rdi), %edi
	addl	%r9d, %edx
	sarl	%edx
	movslq	%edx, %rdx
	addl	(%r8,%rdx,4), %eax
	movzbl	(%rcx,%rax), %edx
	callq	mmed3
	movzbl	%al, %eax
	movl	%eax, 1340(%rsp)
	movl	1332(%rsp), %eax
	movl	%eax, 1356(%rsp)
	movl	%eax, 1364(%rsp)
	movl	1328(%rsp), %eax
	movl	%eax, 1352(%rsp)
	movl	%eax, 1360(%rsp)
	incl	EdgeProfCounters+1388(%rip)
	jmp	.LBB3_15
	.align	16, 0x90
.LBB3_30:                               # %if.end105
                                        #   in Loop: Header=BB3_15 Depth=2
	incl	EdgeProfCounters+1484(%rip)
	movslq	1364(%rsp), %rax
	movq	1408(%rsp), %rcx
	movl	(%rcx,%rax,4), %eax
	movl	%eax, 64(%rsp)
	movslq	1360(%rsp), %rcx
	movq	1408(%rsp), %rax
	movl	(%rax,%rcx,4), %ecx
	movslq	1364(%rsp), %rdx
	movl	%ecx, (%rax,%rdx,4)
	movq	1408(%rsp), %rax
	movslq	1360(%rsp), %rcx
	movl	64(%rsp), %edx
	movl	%edx, (%rax,%rcx,4)
	incl	1364(%rsp)
	decl	1360(%rsp)
	incl	EdgeProfCounters+1492(%rip)
.LBB3_15:                               # %while.body35
                                        #   Parent Loop BB3_1 Depth=1
                                        # =>  This Loop Header: Depth=2
                                        #       Child Loop BB3_16 Depth 3
                                        #       Child Loop BB3_23 Depth 3
	incl	EdgeProfCounters+1392(%rip)
	jmp	.LBB3_16
	.align	16, 0x90
.LBB3_19:                               # %if.then51
                                        #   in Loop: Header=BB3_16 Depth=3
	incl	EdgeProfCounters+1408(%rip)
	movslq	1364(%rsp), %rax
	movq	1408(%rsp), %rcx
	movl	(%rcx,%rax,4), %eax
	movl	%eax, 72(%rsp)
	movslq	1356(%rsp), %rcx
	movq	1408(%rsp), %rax
	movl	(%rax,%rcx,4), %ecx
	movslq	1364(%rsp), %rdx
	movl	%ecx, (%rax,%rdx,4)
	movq	1408(%rsp), %rax
	movslq	1356(%rsp), %rcx
	movl	72(%rsp), %edx
	movl	%edx, (%rax,%rcx,4)
	incl	1356(%rsp)
	incl	1364(%rsp)
	incl	EdgeProfCounters+1416(%rip)
.LBB3_16:                               # %while.body37
                                        #   Parent Loop BB3_1 Depth=1
                                        #     Parent Loop BB3_15 Depth=2
                                        # =>    This Inner Loop Header: Depth=3
	movl	1364(%rsp), %eax
	cmpl	1360(%rsp), %eax
	jg	.LBB3_17
# BB#18:                                # %if.end41
                                        #   in Loop: Header=BB3_16 Depth=3
	incl	EdgeProfCounters+1400(%rip)
	movslq	1364(%rsp), %rax
	movq	1408(%rsp), %rcx
	movl	(%rcx,%rax,4), %eax
	addl	1324(%rsp), %eax
	movq	1400(%rsp), %rcx
	movzbl	(%rcx,%rax), %eax
	subl	1340(%rsp), %eax
	movl	%eax, 1348(%rsp)
	je	.LBB3_19
# BB#20:                                # %if.end62
                                        #   in Loop: Header=BB3_16 Depth=3
	incl	EdgeProfCounters+1412(%rip)
	cmpl	$0, 1348(%rsp)
	jg	.LBB3_21
# BB#55:                                # %if.end66
                                        #   in Loop: Header=BB3_16 Depth=3
	incl	EdgeProfCounters+1424(%rip)
	incl	1364(%rsp)
	incl	EdgeProfCounters+1432(%rip)
	jmp	.LBB3_16
	.align	16, 0x90
.LBB3_17:                               # %if.then40
                                        #   in Loop: Header=BB3_15 Depth=2
	incl	EdgeProfCounters+1396(%rip)
	incl	EdgeProfCounters+1404(%rip)
	jmp	.LBB3_22
	.align	16, 0x90
.LBB3_21:                               # %if.then65
                                        #   in Loop: Header=BB3_15 Depth=2
	incl	EdgeProfCounters+1420(%rip)
	incl	EdgeProfCounters+1428(%rip)
.LBB3_22:                               # %while.end
                                        #   in Loop: Header=BB3_15 Depth=2
	incl	EdgeProfCounters+1436(%rip)
	jmp	.LBB3_23
	.align	16, 0x90
.LBB3_26:                               # %if.then83
                                        #   in Loop: Header=BB3_23 Depth=3
	incl	EdgeProfCounters+1452(%rip)
	movslq	1360(%rsp), %rax
	movq	1408(%rsp), %rcx
	movl	(%rcx,%rax,4), %eax
	movl	%eax, 68(%rsp)
	movslq	1352(%rsp), %rcx
	movq	1408(%rsp), %rax
	movl	(%rax,%rcx,4), %ecx
	movslq	1360(%rsp), %rdx
	movl	%ecx, (%rax,%rdx,4)
	movq	1408(%rsp), %rax
	movslq	1352(%rsp), %rcx
	movl	68(%rsp), %edx
	movl	%edx, (%rax,%rcx,4)
	decl	1352(%rsp)
	decl	1360(%rsp)
	incl	EdgeProfCounters+1460(%rip)
.LBB3_23:                               # %while.body69
                                        #   Parent Loop BB3_1 Depth=1
                                        #     Parent Loop BB3_15 Depth=2
                                        # =>    This Inner Loop Header: Depth=3
	movl	1364(%rsp), %eax
	cmpl	1360(%rsp), %eax
	jg	.LBB3_24
# BB#25:                                # %if.end73
                                        #   in Loop: Header=BB3_23 Depth=3
	incl	EdgeProfCounters+1444(%rip)
	movslq	1360(%rsp), %rax
	movq	1408(%rsp), %rcx
	movl	(%rcx,%rax,4), %eax
	addl	1324(%rsp), %eax
	movq	1400(%rsp), %rcx
	movzbl	(%rcx,%rax), %eax
	subl	1340(%rsp), %eax
	movl	%eax, 1348(%rsp)
	je	.LBB3_26
# BB#27:                                # %if.end95
                                        #   in Loop: Header=BB3_23 Depth=3
	incl	EdgeProfCounters+1456(%rip)
	cmpl	$0, 1348(%rsp)
	js	.LBB3_28
# BB#56:                                # %if.end99
                                        #   in Loop: Header=BB3_23 Depth=3
	incl	EdgeProfCounters+1468(%rip)
	decl	1360(%rsp)
	incl	EdgeProfCounters+1476(%rip)
	jmp	.LBB3_23
	.align	16, 0x90
.LBB3_24:                               # %if.then72
                                        #   in Loop: Header=BB3_15 Depth=2
	incl	EdgeProfCounters+1440(%rip)
	incl	EdgeProfCounters+1448(%rip)
	jmp	.LBB3_29
	.align	16, 0x90
.LBB3_28:                               # %if.then98
                                        #   in Loop: Header=BB3_15 Depth=2
	incl	EdgeProfCounters+1464(%rip)
	incl	EdgeProfCounters+1472(%rip)
.LBB3_29:                               # %while.end101
                                        #   in Loop: Header=BB3_15 Depth=2
	movl	1364(%rsp), %eax
	cmpl	1360(%rsp), %eax
	jle	.LBB3_30
# BB#31:                                # %while.end117
                                        #   in Loop: Header=BB3_1 Depth=1
	incl	EdgeProfCounters+1480(%rip)
	incl	EdgeProfCounters+1488(%rip)
	movl	1352(%rsp), %eax
	cmpl	1356(%rsp), %eax
	jge	.LBB3_33
# BB#32:                                # %if.then120
                                        #   in Loop: Header=BB3_1 Depth=1
	incl	EdgeProfCounters+1496(%rip)
	movslq	1336(%rsp), %rax
	movl	1332(%rsp), %ecx
	movl	%ecx, 912(%rsp,%rax,4)
	movslq	1336(%rsp), %rax
	movl	1328(%rsp), %ecx
	movl	%ecx, 512(%rsp,%rax,4)
	movl	1324(%rsp), %eax
	incl	%eax
	movslq	1336(%rsp), %rcx
	movl	%eax, 112(%rsp,%rcx,4)
	incl	1336(%rsp)
	incl	EdgeProfCounters+1504(%rip)
	jmp	.LBB3_1
.LBB3_33:                               # %if.end129
                                        #   in Loop: Header=BB3_1 Depth=1
	incl	EdgeProfCounters+1500(%rip)
	movl	1356(%rsp), %eax
	movl	1364(%rsp), %ecx
	subl	%eax, %ecx
	subl	1332(%rsp), %eax
	cmpl	%ecx, %eax
	jge	.LBB3_35
# BB#34:                                # %cond.true
                                        #   in Loop: Header=BB3_1 Depth=1
	incl	EdgeProfCounters+1508(%rip)
	movl	1356(%rsp), %eax
	subl	1332(%rsp), %eax
	incl	EdgeProfCounters+1516(%rip)
	jmp	.LBB3_36
.LBB3_35:                               # %cond.false
                                        #   in Loop: Header=BB3_1 Depth=1
	incl	EdgeProfCounters+1512(%rip)
	movl	1364(%rsp), %eax
	subl	1356(%rsp), %eax
	incl	EdgeProfCounters+1520(%rip)
.LBB3_36:                               # %cond.end
                                        #   in Loop: Header=BB3_1 Depth=1
	movl	%eax, 1348(%rsp)
	movl	1332(%rsp), %eax
	movl	%eax, 60(%rsp)
	movl	1364(%rsp), %eax
	subl	1348(%rsp), %eax
	movl	%eax, 56(%rsp)
	movl	1348(%rsp), %eax
	movl	%eax, 52(%rsp)
	incl	EdgeProfCounters+1524(%rip)
	jmp	.LBB3_37
	.align	16, 0x90
.LBB3_38:                               # %while.body140
                                        #   in Loop: Header=BB3_37 Depth=2
	incl	EdgeProfCounters+1528(%rip)
	movslq	60(%rsp), %rax
	movq	1408(%rsp), %rcx
	movl	(%rcx,%rax,4), %eax
	movl	%eax, 48(%rsp)
	movslq	56(%rsp), %rcx
	movq	1408(%rsp), %rax
	movl	(%rax,%rcx,4), %ecx
	movslq	60(%rsp), %rdx
	movl	%ecx, (%rax,%rdx,4)
	movq	1408(%rsp), %rax
	movslq	56(%rsp), %rcx
	movl	48(%rsp), %edx
	movl	%edx, (%rax,%rcx,4)
	incl	60(%rsp)
	incl	56(%rsp)
	decl	52(%rsp)
	incl	EdgeProfCounters+1536(%rip)
.LBB3_37:                               # %while.cond137
                                        #   Parent Loop BB3_1 Depth=1
                                        # =>  This Inner Loop Header: Depth=2
	cmpl	$0, 52(%rsp)
	jg	.LBB3_38
# BB#39:                                # %while.end153
                                        #   in Loop: Header=BB3_1 Depth=1
	incl	EdgeProfCounters+1532(%rip)
	movl	1352(%rsp), %eax
	movl	1328(%rsp), %ecx
	subl	%eax, %ecx
	subl	1360(%rsp), %eax
	cmpl	%eax, %ecx
	jge	.LBB3_41
# BB#40:                                # %cond.true158
                                        #   in Loop: Header=BB3_1 Depth=1
	incl	EdgeProfCounters+1540(%rip)
	movl	1328(%rsp), %eax
	subl	1352(%rsp), %eax
	incl	EdgeProfCounters+1548(%rip)
	jmp	.LBB3_42
.LBB3_41:                               # %cond.false160
                                        #   in Loop: Header=BB3_1 Depth=1
	incl	EdgeProfCounters+1544(%rip)
	movl	1352(%rsp), %eax
	subl	1360(%rsp), %eax
	incl	EdgeProfCounters+1552(%rip)
.LBB3_42:                               # %cond.end162
                                        #   in Loop: Header=BB3_1 Depth=1
	movl	%eax, 1344(%rsp)
	movl	1364(%rsp), %eax
	movl	%eax, 44(%rsp)
	movl	1328(%rsp), %eax
	subl	1344(%rsp), %eax
	incl	%eax
	movl	%eax, 40(%rsp)
	movl	1344(%rsp), %eax
	movl	%eax, 36(%rsp)
	incl	EdgeProfCounters+1556(%rip)
	jmp	.LBB3_43
	.align	16, 0x90
.LBB3_44:                               # %while.body172
                                        #   in Loop: Header=BB3_43 Depth=2
	incl	EdgeProfCounters+1560(%rip)
	movslq	44(%rsp), %rax
	movq	1408(%rsp), %rcx
	movl	(%rcx,%rax,4), %eax
	movl	%eax, 32(%rsp)
	movslq	40(%rsp), %rcx
	movq	1408(%rsp), %rax
	movl	(%rax,%rcx,4), %ecx
	movslq	44(%rsp), %rdx
	movl	%ecx, (%rax,%rdx,4)
	movq	1408(%rsp), %rax
	movslq	40(%rsp), %rcx
	movl	32(%rsp), %edx
	movl	%edx, (%rax,%rcx,4)
	incl	44(%rsp)
	incl	40(%rsp)
	decl	36(%rsp)
	incl	EdgeProfCounters+1568(%rip)
.LBB3_43:                               # %while.cond169
                                        #   Parent Loop BB3_1 Depth=1
                                        # =>  This Inner Loop Header: Depth=2
	cmpl	$0, 36(%rsp)
	jg	.LBB3_44
# BB#45:                                # %while.end185
                                        #   in Loop: Header=BB3_1 Depth=1
	incl	EdgeProfCounters+1564(%rip)
	movl	1332(%rsp), %eax
	addl	1364(%rsp), %eax
	subl	1356(%rsp), %eax
	decl	%eax
	movl	%eax, 1348(%rsp)
	movl	1352(%rsp), %eax
	subl	1360(%rsp), %eax
	negl	%eax
	movl	1328(%rsp), %ecx
	leal	1(%rcx,%rax), %eax
	movl	%eax, 1344(%rsp)
	movl	1332(%rsp), %eax
	movl	%eax, 100(%rsp)
	movl	1348(%rsp), %eax
	movl	%eax, 88(%rsp)
	movl	1324(%rsp), %eax
	movl	%eax, 76(%rsp)
	movl	1344(%rsp), %eax
	movl	%eax, 104(%rsp)
	movl	1328(%rsp), %eax
	movl	%eax, 92(%rsp)
	movl	1324(%rsp), %eax
	movl	%eax, 80(%rsp)
	movl	1348(%rsp), %eax
	incl	%eax
	movl	%eax, 108(%rsp)
	movl	1344(%rsp), %eax
	decl	%eax
	movl	%eax, 96(%rsp)
	movl	1324(%rsp), %eax
	incl	%eax
	movl	%eax, 84(%rsp)
	movl	88(%rsp), %eax
	movl	92(%rsp), %ecx
	subl	104(%rsp), %ecx
	subl	100(%rsp), %eax
	cmpl	%ecx, %eax
	jge	.LBB3_46
# BB#47:                                # %if.then212
                                        #   in Loop: Header=BB3_1 Depth=1
	incl	EdgeProfCounters+1572(%rip)
	movl	100(%rsp), %eax
	movl	%eax, 28(%rsp)
	movl	104(%rsp), %eax
	movl	%eax, 100(%rsp)
	movl	28(%rsp), %eax
	movl	%eax, 104(%rsp)
	movl	88(%rsp), %eax
	movl	%eax, 28(%rsp)
	movl	92(%rsp), %eax
	movl	%eax, 88(%rsp)
	movl	28(%rsp), %eax
	movl	%eax, 92(%rsp)
	movl	76(%rsp), %eax
	movl	%eax, 28(%rsp)
	movl	80(%rsp), %eax
	movl	%eax, 76(%rsp)
	movl	28(%rsp), %eax
	movl	%eax, 80(%rsp)
	incl	EdgeProfCounters+1580(%rip)
	jmp	.LBB3_48
.LBB3_46:                               # %while.end185.if.end225_crit_edge
                                        #   in Loop: Header=BB3_1 Depth=1
	incl	EdgeProfCounters+1576(%rip)
.LBB3_48:                               # %if.end225
                                        #   in Loop: Header=BB3_1 Depth=1
	movl	92(%rsp), %eax
	movl	96(%rsp), %ecx
	subl	108(%rsp), %ecx
	subl	104(%rsp), %eax
	cmpl	%ecx, %eax
	jge	.LBB3_49
# BB#50:                                # %if.then234
                                        #   in Loop: Header=BB3_1 Depth=1
	incl	EdgeProfCounters+1584(%rip)
	movl	104(%rsp), %eax
	movl	%eax, 24(%rsp)
	movl	108(%rsp), %eax
	movl	%eax, 104(%rsp)
	movl	24(%rsp), %eax
	movl	%eax, 108(%rsp)
	movl	92(%rsp), %eax
	movl	%eax, 24(%rsp)
	movl	96(%rsp), %eax
	movl	%eax, 92(%rsp)
	movl	24(%rsp), %eax
	movl	%eax, 96(%rsp)
	movl	80(%rsp), %eax
	movl	%eax, 24(%rsp)
	movl	84(%rsp), %eax
	movl	%eax, 80(%rsp)
	movl	24(%rsp), %eax
	movl	%eax, 84(%rsp)
	incl	EdgeProfCounters+1592(%rip)
	jmp	.LBB3_51
.LBB3_49:                               # %if.end225.if.end248_crit_edge
                                        #   in Loop: Header=BB3_1 Depth=1
	incl	EdgeProfCounters+1588(%rip)
.LBB3_51:                               # %if.end248
                                        #   in Loop: Header=BB3_1 Depth=1
	movl	88(%rsp), %eax
	movl	92(%rsp), %ecx
	subl	104(%rsp), %ecx
	subl	100(%rsp), %eax
	cmpl	%ecx, %eax
	jge	.LBB3_52
# BB#53:                                # %if.then257
                                        #   in Loop: Header=BB3_1 Depth=1
	incl	EdgeProfCounters+1596(%rip)
	movl	100(%rsp), %eax
	movl	%eax, 20(%rsp)
	movl	104(%rsp), %eax
	movl	%eax, 100(%rsp)
	movl	20(%rsp), %eax
	movl	%eax, 104(%rsp)
	movl	88(%rsp), %eax
	movl	%eax, 20(%rsp)
	movl	92(%rsp), %eax
	movl	%eax, 88(%rsp)
	movl	20(%rsp), %eax
	movl	%eax, 92(%rsp)
	movl	76(%rsp), %eax
	movl	%eax, 20(%rsp)
	movl	80(%rsp), %eax
	movl	%eax, 76(%rsp)
	movl	20(%rsp), %eax
	movl	%eax, 80(%rsp)
	incl	EdgeProfCounters+1604(%rip)
	jmp	.LBB3_54
.LBB3_52:                               # %if.end248.if.end271_crit_edge
                                        #   in Loop: Header=BB3_1 Depth=1
	incl	EdgeProfCounters+1600(%rip)
.LBB3_54:                               # %if.end271
                                        #   in Loop: Header=BB3_1 Depth=1
	movslq	1336(%rsp), %rax
	movl	100(%rsp), %ecx
	movl	%ecx, 912(%rsp,%rax,4)
	movslq	1336(%rsp), %rax
	movl	88(%rsp), %ecx
	movl	%ecx, 512(%rsp,%rax,4)
	movslq	1336(%rsp), %rax
	movl	76(%rsp), %ecx
	movl	%ecx, 112(%rsp,%rax,4)
	incl	1336(%rsp)
	movslq	1336(%rsp), %rax
	movl	104(%rsp), %ecx
	movl	%ecx, 912(%rsp,%rax,4)
	movslq	1336(%rsp), %rax
	movl	92(%rsp), %ecx
	movl	%ecx, 512(%rsp,%rax,4)
	movslq	1336(%rsp), %rax
	movl	80(%rsp), %ecx
	movl	%ecx, 112(%rsp,%rax,4)
	incl	1336(%rsp)
	movslq	1336(%rsp), %rax
	movl	108(%rsp), %ecx
	movl	%ecx, 912(%rsp,%rax,4)
	movslq	1336(%rsp), %rax
	movl	96(%rsp), %ecx
	movl	%ecx, 512(%rsp,%rax,4)
	movslq	1336(%rsp), %rax
	movl	84(%rsp), %ecx
	movl	%ecx, 112(%rsp,%rax,4)
	incl	1336(%rsp)
	incl	EdgeProfCounters+1608(%rip)
	jmp	.LBB3_1
.LBB3_2:                                # %while.cond.while.end302_crit_edge
	incl	EdgeProfCounters+1340(%rip)
	addq	$1416, %rsp             # imm = 0x588
	ret
.LBB3_12:                               # %if.then16
	incl	EdgeProfCounters+1372(%rip)
	incl	EdgeProfCounters+1380(%rip)
	addq	$1416, %rsp             # imm = 0x588
	ret
.Ltmp17:
	.size	mainQSort3, .Ltmp17-mainQSort3
	.cfi_endproc

	.align	16, 0x90
	.type	mainSimpleSort,@function
mainSimpleSort:                         # @mainSimpleSort
	.cfi_startproc
# BB#0:                                 # %entry
	subq	$72, %rsp
.Ltmp19:
	.cfi_def_cfa_offset 80
	incl	EdgeProfCounters+1612(%rip)
	movq	%rdi, 64(%rsp)
	movq	%rsi, 56(%rsp)
	movq	%rdx, 48(%rsp)
	movl	%ecx, 44(%rsp)
	movl	%r8d, 40(%rsp)
	movl	%r9d, 36(%rsp)
	movq	88(%rsp), %rax
	movl	80(%rsp), %ecx
	movl	%ecx, 32(%rsp)
	movq	%rax, 24(%rsp)
	movl	36(%rsp), %eax
	subl	40(%rsp), %eax
	incl	%eax
	movl	%eax, 8(%rsp)
	cmpl	$1, %eax
	jg	.LBB4_2
# BB#1:                                 # %if.then
	incl	EdgeProfCounters+1616(%rip)
	incl	EdgeProfCounters+1624(%rip)
	addq	$72, %rsp
	ret
.LBB4_2:                                # %if.end
	incl	EdgeProfCounters+1620(%rip)
	movl	$0, 4(%rsp)
	incl	EdgeProfCounters+1628(%rip)
	jmp	.LBB4_3
	.align	16, 0x90
.LBB4_4:                                # %while.body
                                        #   in Loop: Header=BB4_3 Depth=1
	incl	EdgeProfCounters+1632(%rip)
	incl	4(%rsp)
	incl	EdgeProfCounters+1640(%rip)
.LBB4_3:                                # %while.cond
                                        # =>This Inner Loop Header: Depth=1
	movslq	4(%rsp), %rax
	movl	incs(,%rax,4), %eax
	cmpl	8(%rsp), %eax
	jl	.LBB4_4
# BB#5:                                 # %while.end
	incl	EdgeProfCounters+1636(%rip)
	decl	4(%rsp)
	incl	EdgeProfCounters+1644(%rip)
	jmp	.LBB4_6
	.align	16, 0x90
.LBB4_26:                               # %while.end96
                                        #   in Loop: Header=BB4_6 Depth=1
	incl	EdgeProfCounters+1796(%rip)
	decl	4(%rsp)
	incl	EdgeProfCounters+1800(%rip)
.LBB4_6:                                # %for.cond
                                        # =>This Loop Header: Depth=1
                                        #     Child Loop BB4_10 Depth 2
                                        #       Child Loop BB4_13 Depth 3
                                        #       Child Loop BB4_20 Depth 3
                                        #       Child Loop BB4_28 Depth 3
	cmpl	$0, 4(%rsp)
	js	.LBB4_7
# BB#9:                                 # %for.body
                                        #   in Loop: Header=BB4_6 Depth=1
	incl	EdgeProfCounters+1648(%rip)
	movslq	4(%rsp), %rax
	movl	incs(,%rax,4), %eax
	movl	%eax, 12(%rsp)
	addl	40(%rsp), %eax
	movl	%eax, 20(%rsp)
	incl	EdgeProfCounters+1656(%rip)
	jmp	.LBB4_10
	.align	16, 0x90
.LBB4_34:                               # %if.end95
                                        #   in Loop: Header=BB4_10 Depth=2
	incl	EdgeProfCounters+1784(%rip)
	incl	EdgeProfCounters+1792(%rip)
.LBB4_10:                               # %while.body7
                                        #   Parent Loop BB4_6 Depth=1
                                        # =>  This Loop Header: Depth=2
                                        #       Child Loop BB4_13 Depth 3
                                        #       Child Loop BB4_20 Depth 3
                                        #       Child Loop BB4_28 Depth 3
	movl	20(%rsp), %eax
	cmpl	36(%rsp), %eax
	jg	.LBB4_11
# BB#12:                                # %if.end10
                                        #   in Loop: Header=BB4_10 Depth=2
	incl	EdgeProfCounters+1664(%rip)
	movslq	20(%rsp), %rax
	movq	64(%rsp), %rcx
	movl	(%rcx,%rax,4), %eax
	movl	%eax, (%rsp)
	movl	20(%rsp), %eax
	movl	%eax, 16(%rsp)
	incl	EdgeProfCounters+1672(%rip)
	jmp	.LBB4_13
	.align	16, 0x90
.LBB4_35:                               # %if.end30
                                        #   in Loop: Header=BB4_13 Depth=3
	incl	EdgeProfCounters+1688(%rip)
	incl	EdgeProfCounters+1696(%rip)
.LBB4_13:                               # %while.cond13
                                        #   Parent Loop BB4_6 Depth=1
                                        #     Parent Loop BB4_10 Depth=2
                                        # =>    This Inner Loop Header: Depth=3
	movl	16(%rsp), %eax
	subl	12(%rsp), %eax
	movslq	%eax, %rax
	movq	64(%rsp), %rcx
	movl	32(%rsp), %esi
	movl	(%rcx,%rax,4), %edi
	addl	%esi, %edi
	addl	(%rsp), %esi
	movq	24(%rsp), %r9
	movl	44(%rsp), %r8d
	movq	48(%rsp), %rcx
	movq	56(%rsp), %rdx
	callq	mainGtU
	testb	%al, %al
	je	.LBB4_14
# BB#15:                                # %while.body19
                                        #   in Loop: Header=BB4_13 Depth=3
	incl	EdgeProfCounters+1676(%rip)
	movslq	16(%rsp), %rax
	movl	12(%rsp), %edx
	movl	%eax, %ecx
	subl	%edx, %ecx
	movslq	%ecx, %rcx
	movq	64(%rsp), %rdx
	movl	(%rdx,%rcx,4), %ecx
	movl	%ecx, (%rdx,%rax,4)
	movl	16(%rsp), %eax
	subl	12(%rsp), %eax
	movl	%eax, 16(%rsp)
	movl	12(%rsp), %ecx
	movl	40(%rsp), %edx
	leal	-1(%rdx,%rcx), %ecx
	cmpl	%ecx, %eax
	jg	.LBB4_35
# BB#16:                                # %if.then29
                                        #   in Loop: Header=BB4_10 Depth=2
	incl	EdgeProfCounters+1684(%rip)
	incl	EdgeProfCounters+1692(%rip)
	jmp	.LBB4_17
	.align	16, 0x90
.LBB4_14:                               # %while.cond13.while.end31_crit_edge
                                        #   in Loop: Header=BB4_10 Depth=2
	incl	EdgeProfCounters+1680(%rip)
.LBB4_17:                               # %while.end31
                                        #   in Loop: Header=BB4_10 Depth=2
	movq	64(%rsp), %rax
	movslq	16(%rsp), %rcx
	movl	(%rsp), %edx
	movl	%edx, (%rax,%rcx,4)
	movl	20(%rsp), %eax
	incl	%eax
	movl	%eax, 20(%rsp)
	cmpl	36(%rsp), %eax
	jg	.LBB4_18
# BB#19:                                # %if.end37
                                        #   in Loop: Header=BB4_10 Depth=2
	incl	EdgeProfCounters+1704(%rip)
	movslq	20(%rsp), %rax
	movq	64(%rsp), %rcx
	movl	(%rcx,%rax,4), %eax
	movl	%eax, (%rsp)
	movl	20(%rsp), %eax
	movl	%eax, 16(%rsp)
	incl	EdgeProfCounters+1712(%rip)
	jmp	.LBB4_20
	.align	16, 0x90
.LBB4_36:                               # %if.end59
                                        #   in Loop: Header=BB4_20 Depth=3
	incl	EdgeProfCounters+1728(%rip)
	incl	EdgeProfCounters+1736(%rip)
.LBB4_20:                               # %while.cond40
                                        #   Parent Loop BB4_6 Depth=1
                                        #     Parent Loop BB4_10 Depth=2
                                        # =>    This Inner Loop Header: Depth=3
	movl	16(%rsp), %eax
	subl	12(%rsp), %eax
	movslq	%eax, %rax
	movq	64(%rsp), %rcx
	movl	32(%rsp), %esi
	movl	(%rcx,%rax,4), %edi
	addl	%esi, %edi
	addl	(%rsp), %esi
	movq	24(%rsp), %r9
	movl	44(%rsp), %r8d
	movq	48(%rsp), %rcx
	movq	56(%rsp), %rdx
	callq	mainGtU
	testb	%al, %al
	je	.LBB4_21
# BB#22:                                # %while.body48
                                        #   in Loop: Header=BB4_20 Depth=3
	incl	EdgeProfCounters+1716(%rip)
	movslq	16(%rsp), %rax
	movl	12(%rsp), %edx
	movl	%eax, %ecx
	subl	%edx, %ecx
	movslq	%ecx, %rcx
	movq	64(%rsp), %rdx
	movl	(%rdx,%rcx,4), %ecx
	movl	%ecx, (%rdx,%rax,4)
	movl	16(%rsp), %eax
	subl	12(%rsp), %eax
	movl	%eax, 16(%rsp)
	movl	12(%rsp), %ecx
	movl	40(%rsp), %edx
	leal	-1(%rdx,%rcx), %ecx
	cmpl	%ecx, %eax
	jg	.LBB4_36
# BB#23:                                # %if.then58
                                        #   in Loop: Header=BB4_10 Depth=2
	incl	EdgeProfCounters+1724(%rip)
	incl	EdgeProfCounters+1732(%rip)
	jmp	.LBB4_24
	.align	16, 0x90
.LBB4_21:                               # %while.cond40.while.end60_crit_edge
                                        #   in Loop: Header=BB4_10 Depth=2
	incl	EdgeProfCounters+1720(%rip)
.LBB4_24:                               # %while.end60
                                        #   in Loop: Header=BB4_10 Depth=2
	movq	64(%rsp), %rax
	movslq	16(%rsp), %rcx
	movl	(%rsp), %edx
	movl	%edx, (%rax,%rcx,4)
	movl	20(%rsp), %eax
	incl	%eax
	movl	%eax, 20(%rsp)
	cmpl	36(%rsp), %eax
	jg	.LBB4_25
# BB#27:                                # %if.end66
                                        #   in Loop: Header=BB4_10 Depth=2
	incl	EdgeProfCounters+1744(%rip)
	movslq	20(%rsp), %rax
	movq	64(%rsp), %rcx
	movl	(%rcx,%rax,4), %eax
	movl	%eax, (%rsp)
	movl	20(%rsp), %eax
	movl	%eax, 16(%rsp)
	incl	EdgeProfCounters+1752(%rip)
	jmp	.LBB4_28
	.align	16, 0x90
.LBB4_37:                               # %if.end88
                                        #   in Loop: Header=BB4_28 Depth=3
	incl	EdgeProfCounters+1768(%rip)
	incl	EdgeProfCounters+1776(%rip)
.LBB4_28:                               # %while.cond69
                                        #   Parent Loop BB4_6 Depth=1
                                        #     Parent Loop BB4_10 Depth=2
                                        # =>    This Inner Loop Header: Depth=3
	movl	16(%rsp), %eax
	subl	12(%rsp), %eax
	movslq	%eax, %rax
	movq	64(%rsp), %rcx
	movl	32(%rsp), %esi
	movl	(%rcx,%rax,4), %edi
	addl	%esi, %edi
	addl	(%rsp), %esi
	movq	24(%rsp), %r9
	movl	44(%rsp), %r8d
	movq	48(%rsp), %rcx
	movq	56(%rsp), %rdx
	callq	mainGtU
	testb	%al, %al
	je	.LBB4_29
# BB#30:                                # %while.body77
                                        #   in Loop: Header=BB4_28 Depth=3
	incl	EdgeProfCounters+1756(%rip)
	movslq	16(%rsp), %rax
	movl	12(%rsp), %edx
	movl	%eax, %ecx
	subl	%edx, %ecx
	movslq	%ecx, %rcx
	movq	64(%rsp), %rdx
	movl	(%rdx,%rcx,4), %ecx
	movl	%ecx, (%rdx,%rax,4)
	movl	16(%rsp), %eax
	subl	12(%rsp), %eax
	movl	%eax, 16(%rsp)
	movl	12(%rsp), %ecx
	movl	40(%rsp), %edx
	leal	-1(%rdx,%rcx), %ecx
	cmpl	%ecx, %eax
	jg	.LBB4_37
# BB#31:                                # %if.then87
                                        #   in Loop: Header=BB4_10 Depth=2
	incl	EdgeProfCounters+1764(%rip)
	incl	EdgeProfCounters+1772(%rip)
	jmp	.LBB4_32
	.align	16, 0x90
.LBB4_29:                               # %while.cond69.while.end89_crit_edge
                                        #   in Loop: Header=BB4_10 Depth=2
	incl	EdgeProfCounters+1760(%rip)
.LBB4_32:                               # %while.end89
                                        #   in Loop: Header=BB4_10 Depth=2
	movq	64(%rsp), %rax
	movslq	16(%rsp), %rcx
	movl	(%rsp), %edx
	movl	%edx, (%rax,%rcx,4)
	incl	20(%rsp)
	movq	24(%rsp), %rax
	cmpl	$0, (%rax)
	jns	.LBB4_34
	jmp	.LBB4_33
	.align	16, 0x90
.LBB4_11:                               # %if.then9
                                        #   in Loop: Header=BB4_6 Depth=1
	incl	EdgeProfCounters+1660(%rip)
	incl	EdgeProfCounters+1668(%rip)
	jmp	.LBB4_26
	.align	16, 0x90
.LBB4_18:                               # %if.then36
                                        #   in Loop: Header=BB4_6 Depth=1
	incl	EdgeProfCounters+1700(%rip)
	incl	EdgeProfCounters+1708(%rip)
	jmp	.LBB4_26
	.align	16, 0x90
.LBB4_25:                               # %if.then65
                                        #   in Loop: Header=BB4_6 Depth=1
	incl	EdgeProfCounters+1740(%rip)
	incl	EdgeProfCounters+1748(%rip)
	jmp	.LBB4_26
.LBB4_33:                               # %if.then94
	incl	EdgeProfCounters+1780(%rip)
	incl	EdgeProfCounters+1788(%rip)
	addq	$72, %rsp
	ret
.LBB4_7:                                # %for.cond.for.end_crit_edge
	incl	EdgeProfCounters+1652(%rip)
	addq	$72, %rsp
	ret
.Ltmp20:
	.size	mainSimpleSort, .Ltmp20-mainSimpleSort
	.cfi_endproc

	.align	16, 0x90
	.type	mmed3,@function
mmed3:                                  # @mmed3
	.cfi_startproc
# BB#0:                                 # %entry
	incl	EdgeProfCounters+1804(%rip)
	movb	%dil, -1(%rsp)
	movb	%sil, -2(%rsp)
	movb	%dl, -3(%rsp)
	movzbl	-2(%rsp), %eax
	movzbl	-1(%rsp), %ecx
	cmpl	%eax, %ecx
	jle	.LBB5_1
# BB#2:                                 # %if.then
	incl	EdgeProfCounters+1808(%rip)
	movb	-1(%rsp), %al
	movb	%al, -4(%rsp)
	movb	-2(%rsp), %al
	movb	%al, -1(%rsp)
	movb	-4(%rsp), %al
	movb	%al, -2(%rsp)
	incl	EdgeProfCounters+1816(%rip)
	jmp	.LBB5_3
.LBB5_1:                                # %entry.if.end_crit_edge
	incl	EdgeProfCounters+1812(%rip)
.LBB5_3:                                # %if.end
	movzbl	-3(%rsp), %eax
	movzbl	-2(%rsp), %ecx
	cmpl	%eax, %ecx
	jle	.LBB5_4
# BB#5:                                 # %if.then7
	incl	EdgeProfCounters+1820(%rip)
	movb	-3(%rsp), %al
	movb	%al, -2(%rsp)
	movzbl	-2(%rsp), %eax
	movzbl	-1(%rsp), %ecx
	cmpl	%eax, %ecx
	jle	.LBB5_6
# BB#7:                                 # %if.then12
	incl	EdgeProfCounters+1828(%rip)
	movb	-1(%rsp), %al
	movb	%al, -2(%rsp)
	incl	EdgeProfCounters+1836(%rip)
	jmp	.LBB5_8
.LBB5_4:                                # %if.end.if.end14_crit_edge
	incl	EdgeProfCounters+1824(%rip)
	movzbl	-2(%rsp), %eax
	ret
.LBB5_6:                                # %if.then7.if.end13_crit_edge
	incl	EdgeProfCounters+1832(%rip)
.LBB5_8:                                # %if.end13
	incl	EdgeProfCounters+1840(%rip)
	movzbl	-2(%rsp), %eax
	ret
.Ltmp21:
	.size	mmed3, .Ltmp21-mmed3
	.cfi_endproc

	.align	16, 0x90
	.type	mainGtU,@function
mainGtU:                                # @mainGtU
	.cfi_startproc
# BB#0:                                 # %entry
	incl	EdgeProfCounters+1844(%rip)
	movl	%edi, -8(%rsp)
	movl	%esi, -12(%rsp)
	movq	%rdx, -24(%rsp)
	movq	%rcx, -32(%rsp)
	movl	%r8d, -36(%rsp)
	movq	%r9, -48(%rsp)
	movl	-8(%rsp), %eax
	movq	-24(%rsp), %rcx
	movb	(%rcx,%rax), %al
	movb	%al, -53(%rsp)
	movl	-12(%rsp), %eax
	movq	-24(%rsp), %rcx
	movb	(%rcx,%rax), %al
	movb	%al, -54(%rsp)
	movzbl	-54(%rsp), %eax
	movzbl	-53(%rsp), %ecx
	cmpl	%eax, %ecx
	je	.LBB6_2
# BB#1:                                 # %if.then
	incl	EdgeProfCounters+1848(%rip)
	movzbl	-54(%rsp), %eax
	movzbl	-53(%rsp), %ecx
	cmpl	%eax, %ecx
	setg	-1(%rsp)
	incl	EdgeProfCounters+1856(%rip)
	movzbl	-1(%rsp), %eax
	ret
.LBB6_2:                                # %if.end
	incl	EdgeProfCounters+1852(%rip)
	incl	-8(%rsp)
	incl	-12(%rsp)
	movl	-8(%rsp), %eax
	movq	-24(%rsp), %rcx
	movb	(%rcx,%rax), %al
	movb	%al, -53(%rsp)
	movl	-12(%rsp), %eax
	movq	-24(%rsp), %rcx
	movb	(%rcx,%rax), %al
	movb	%al, -54(%rsp)
	movzbl	-54(%rsp), %eax
	movzbl	-53(%rsp), %ecx
	cmpl	%eax, %ecx
	je	.LBB6_4
# BB#3:                                 # %if.then19
	incl	EdgeProfCounters+1860(%rip)
	movzbl	-54(%rsp), %eax
	movzbl	-53(%rsp), %ecx
	cmpl	%eax, %ecx
	setg	-1(%rsp)
	incl	EdgeProfCounters+1868(%rip)
	movzbl	-1(%rsp), %eax
	ret
.LBB6_4:                                # %if.end25
	incl	EdgeProfCounters+1864(%rip)
	incl	-8(%rsp)
	incl	-12(%rsp)
	movl	-8(%rsp), %eax
	movq	-24(%rsp), %rcx
	movb	(%rcx,%rax), %al
	movb	%al, -53(%rsp)
	movl	-12(%rsp), %eax
	movq	-24(%rsp), %rcx
	movb	(%rcx,%rax), %al
	movb	%al, -54(%rsp)
	movzbl	-54(%rsp), %eax
	movzbl	-53(%rsp), %ecx
	cmpl	%eax, %ecx
	je	.LBB6_6
# BB#5:                                 # %if.then36
	incl	EdgeProfCounters+1872(%rip)
	movzbl	-54(%rsp), %eax
	movzbl	-53(%rsp), %ecx
	cmpl	%eax, %ecx
	setg	-1(%rsp)
	incl	EdgeProfCounters+1880(%rip)
	movzbl	-1(%rsp), %eax
	ret
.LBB6_6:                                # %if.end42
	incl	EdgeProfCounters+1876(%rip)
	incl	-8(%rsp)
	incl	-12(%rsp)
	movl	-8(%rsp), %eax
	movq	-24(%rsp), %rcx
	movb	(%rcx,%rax), %al
	movb	%al, -53(%rsp)
	movl	-12(%rsp), %eax
	movq	-24(%rsp), %rcx
	movb	(%rcx,%rax), %al
	movb	%al, -54(%rsp)
	movzbl	-54(%rsp), %eax
	movzbl	-53(%rsp), %ecx
	cmpl	%eax, %ecx
	je	.LBB6_8
# BB#7:                                 # %if.then53
	incl	EdgeProfCounters+1884(%rip)
	movzbl	-54(%rsp), %eax
	movzbl	-53(%rsp), %ecx
	cmpl	%eax, %ecx
	setg	-1(%rsp)
	incl	EdgeProfCounters+1892(%rip)
	movzbl	-1(%rsp), %eax
	ret
.LBB6_8:                                # %if.end59
	incl	EdgeProfCounters+1888(%rip)
	incl	-8(%rsp)
	incl	-12(%rsp)
	movl	-8(%rsp), %eax
	movq	-24(%rsp), %rcx
	movb	(%rcx,%rax), %al
	movb	%al, -53(%rsp)
	movl	-12(%rsp), %eax
	movq	-24(%rsp), %rcx
	movb	(%rcx,%rax), %al
	movb	%al, -54(%rsp)
	movzbl	-54(%rsp), %eax
	movzbl	-53(%rsp), %ecx
	cmpl	%eax, %ecx
	je	.LBB6_10
# BB#9:                                 # %if.then70
	incl	EdgeProfCounters+1896(%rip)
	movzbl	-54(%rsp), %eax
	movzbl	-53(%rsp), %ecx
	cmpl	%eax, %ecx
	setg	-1(%rsp)
	incl	EdgeProfCounters+1904(%rip)
	movzbl	-1(%rsp), %eax
	ret
.LBB6_10:                               # %if.end76
	incl	EdgeProfCounters+1900(%rip)
	incl	-8(%rsp)
	incl	-12(%rsp)
	movl	-8(%rsp), %eax
	movq	-24(%rsp), %rcx
	movb	(%rcx,%rax), %al
	movb	%al, -53(%rsp)
	movl	-12(%rsp), %eax
	movq	-24(%rsp), %rcx
	movb	(%rcx,%rax), %al
	movb	%al, -54(%rsp)
	movzbl	-54(%rsp), %eax
	movzbl	-53(%rsp), %ecx
	cmpl	%eax, %ecx
	je	.LBB6_12
# BB#11:                                # %if.then87
	incl	EdgeProfCounters+1908(%rip)
	movzbl	-54(%rsp), %eax
	movzbl	-53(%rsp), %ecx
	cmpl	%eax, %ecx
	setg	-1(%rsp)
	incl	EdgeProfCounters+1916(%rip)
	movzbl	-1(%rsp), %eax
	ret
.LBB6_12:                               # %if.end93
	incl	EdgeProfCounters+1912(%rip)
	incl	-8(%rsp)
	incl	-12(%rsp)
	movl	-8(%rsp), %eax
	movq	-24(%rsp), %rcx
	movb	(%rcx,%rax), %al
	movb	%al, -53(%rsp)
	movl	-12(%rsp), %eax
	movq	-24(%rsp), %rcx
	movb	(%rcx,%rax), %al
	movb	%al, -54(%rsp)
	movzbl	-54(%rsp), %eax
	movzbl	-53(%rsp), %ecx
	cmpl	%eax, %ecx
	je	.LBB6_14
# BB#13:                                # %if.then104
	incl	EdgeProfCounters+1920(%rip)
	movzbl	-54(%rsp), %eax
	movzbl	-53(%rsp), %ecx
	cmpl	%eax, %ecx
	setg	-1(%rsp)
	incl	EdgeProfCounters+1928(%rip)
	movzbl	-1(%rsp), %eax
	ret
.LBB6_14:                               # %if.end110
	incl	EdgeProfCounters+1924(%rip)
	incl	-8(%rsp)
	incl	-12(%rsp)
	movl	-8(%rsp), %eax
	movq	-24(%rsp), %rcx
	movb	(%rcx,%rax), %al
	movb	%al, -53(%rsp)
	movl	-12(%rsp), %eax
	movq	-24(%rsp), %rcx
	movb	(%rcx,%rax), %al
	movb	%al, -54(%rsp)
	movzbl	-54(%rsp), %eax
	movzbl	-53(%rsp), %ecx
	cmpl	%eax, %ecx
	je	.LBB6_16
# BB#15:                                # %if.then121
	incl	EdgeProfCounters+1932(%rip)
	movzbl	-54(%rsp), %eax
	movzbl	-53(%rsp), %ecx
	cmpl	%eax, %ecx
	setg	-1(%rsp)
	incl	EdgeProfCounters+1940(%rip)
	movzbl	-1(%rsp), %eax
	ret
.LBB6_16:                               # %if.end127
	incl	EdgeProfCounters+1936(%rip)
	incl	-8(%rsp)
	incl	-12(%rsp)
	movl	-8(%rsp), %eax
	movq	-24(%rsp), %rcx
	movb	(%rcx,%rax), %al
	movb	%al, -53(%rsp)
	movl	-12(%rsp), %eax
	movq	-24(%rsp), %rcx
	movb	(%rcx,%rax), %al
	movb	%al, -54(%rsp)
	movzbl	-54(%rsp), %eax
	movzbl	-53(%rsp), %ecx
	cmpl	%eax, %ecx
	je	.LBB6_18
# BB#17:                                # %if.then138
	incl	EdgeProfCounters+1944(%rip)
	movzbl	-54(%rsp), %eax
	movzbl	-53(%rsp), %ecx
	cmpl	%eax, %ecx
	setg	-1(%rsp)
	incl	EdgeProfCounters+1952(%rip)
	movzbl	-1(%rsp), %eax
	ret
.LBB6_18:                               # %if.end144
	incl	EdgeProfCounters+1948(%rip)
	incl	-8(%rsp)
	incl	-12(%rsp)
	movl	-8(%rsp), %eax
	movq	-24(%rsp), %rcx
	movb	(%rcx,%rax), %al
	movb	%al, -53(%rsp)
	movl	-12(%rsp), %eax
	movq	-24(%rsp), %rcx
	movb	(%rcx,%rax), %al
	movb	%al, -54(%rsp)
	movzbl	-54(%rsp), %eax
	movzbl	-53(%rsp), %ecx
	cmpl	%eax, %ecx
	je	.LBB6_20
# BB#19:                                # %if.then155
	incl	EdgeProfCounters+1956(%rip)
	movzbl	-54(%rsp), %eax
	movzbl	-53(%rsp), %ecx
	cmpl	%eax, %ecx
	setg	-1(%rsp)
	incl	EdgeProfCounters+1964(%rip)
	movzbl	-1(%rsp), %eax
	ret
.LBB6_20:                               # %if.end161
	incl	EdgeProfCounters+1960(%rip)
	incl	-8(%rsp)
	incl	-12(%rsp)
	movl	-8(%rsp), %eax
	movq	-24(%rsp), %rcx
	movb	(%rcx,%rax), %al
	movb	%al, -53(%rsp)
	movl	-12(%rsp), %eax
	movq	-24(%rsp), %rcx
	movb	(%rcx,%rax), %al
	movb	%al, -54(%rsp)
	movzbl	-54(%rsp), %eax
	movzbl	-53(%rsp), %ecx
	cmpl	%eax, %ecx
	je	.LBB6_22
# BB#21:                                # %if.then172
	incl	EdgeProfCounters+1968(%rip)
	movzbl	-54(%rsp), %eax
	movzbl	-53(%rsp), %ecx
	cmpl	%eax, %ecx
	setg	-1(%rsp)
	incl	EdgeProfCounters+1976(%rip)
	movzbl	-1(%rsp), %eax
	ret
.LBB6_22:                               # %if.end178
	incl	EdgeProfCounters+1972(%rip)
	incl	-8(%rsp)
	incl	-12(%rsp)
	movl	-8(%rsp), %eax
	movq	-24(%rsp), %rcx
	movb	(%rcx,%rax), %al
	movb	%al, -53(%rsp)
	movl	-12(%rsp), %eax
	movq	-24(%rsp), %rcx
	movb	(%rcx,%rax), %al
	movb	%al, -54(%rsp)
	movzbl	-54(%rsp), %eax
	movzbl	-53(%rsp), %ecx
	cmpl	%eax, %ecx
	je	.LBB6_24
# BB#23:                                # %if.then189
	incl	EdgeProfCounters+1980(%rip)
	movzbl	-54(%rsp), %eax
	movzbl	-53(%rsp), %ecx
	cmpl	%eax, %ecx
	setg	-1(%rsp)
	incl	EdgeProfCounters+1988(%rip)
	movzbl	-1(%rsp), %eax
	ret
.LBB6_24:                               # %if.end195
	incl	EdgeProfCounters+1984(%rip)
	incl	-8(%rsp)
	incl	-12(%rsp)
	movl	-36(%rsp), %eax
	addl	$8, %eax
	movl	%eax, -52(%rsp)
	incl	EdgeProfCounters+1992(%rip)
	jmp	.LBB6_25
.LBB6_64:                               # %do.cond.do.body_crit_edge
                                        #   in Loop: Header=BB6_25 Depth=1
	incl	EdgeProfCounters+2216(%rip)
.LBB6_25:                               # %do.body
                                        # =>This Inner Loop Header: Depth=1
	movl	-8(%rsp), %eax
	movq	-24(%rsp), %rcx
	movb	(%rcx,%rax), %al
	movb	%al, -53(%rsp)
	movl	-12(%rsp), %eax
	movq	-24(%rsp), %rcx
	movb	(%rcx,%rax), %al
	movb	%al, -54(%rsp)
	movzbl	-54(%rsp), %eax
	movzbl	-53(%rsp), %ecx
	cmpl	%eax, %ecx
	jne	.LBB6_26
# BB#27:                                # %if.end212
                                        #   in Loop: Header=BB6_25 Depth=1
	incl	EdgeProfCounters+2000(%rip)
	movl	-8(%rsp), %eax
	movq	-32(%rsp), %rcx
	movw	(%rcx,%rax,2), %ax
	movw	%ax, -56(%rsp)
	movl	-12(%rsp), %eax
	movq	-32(%rsp), %rcx
	movw	(%rcx,%rax,2), %ax
	movw	%ax, -58(%rsp)
	movzwl	-58(%rsp), %eax
	movzwl	-56(%rsp), %ecx
	cmpl	%eax, %ecx
	jne	.LBB6_28
# BB#29:                                # %if.end227
                                        #   in Loop: Header=BB6_25 Depth=1
	incl	EdgeProfCounters+2012(%rip)
	incl	-8(%rsp)
	incl	-12(%rsp)
	movl	-8(%rsp), %eax
	movq	-24(%rsp), %rcx
	movb	(%rcx,%rax), %al
	movb	%al, -53(%rsp)
	movl	-12(%rsp), %eax
	movq	-24(%rsp), %rcx
	movb	(%rcx,%rax), %al
	movb	%al, -54(%rsp)
	movzbl	-54(%rsp), %eax
	movzbl	-53(%rsp), %ecx
	cmpl	%eax, %ecx
	jne	.LBB6_30
# BB#31:                                # %if.end244
                                        #   in Loop: Header=BB6_25 Depth=1
	incl	EdgeProfCounters+2024(%rip)
	movl	-8(%rsp), %eax
	movq	-32(%rsp), %rcx
	movw	(%rcx,%rax,2), %ax
	movw	%ax, -56(%rsp)
	movl	-12(%rsp), %eax
	movq	-32(%rsp), %rcx
	movw	(%rcx,%rax,2), %ax
	movw	%ax, -58(%rsp)
	movzwl	-58(%rsp), %eax
	movzwl	-56(%rsp), %ecx
	cmpl	%eax, %ecx
	jne	.LBB6_32
# BB#33:                                # %if.end259
                                        #   in Loop: Header=BB6_25 Depth=1
	incl	EdgeProfCounters+2036(%rip)
	incl	-8(%rsp)
	incl	-12(%rsp)
	movl	-8(%rsp), %eax
	movq	-24(%rsp), %rcx
	movb	(%rcx,%rax), %al
	movb	%al, -53(%rsp)
	movl	-12(%rsp), %eax
	movq	-24(%rsp), %rcx
	movb	(%rcx,%rax), %al
	movb	%al, -54(%rsp)
	movzbl	-54(%rsp), %eax
	movzbl	-53(%rsp), %ecx
	cmpl	%eax, %ecx
	jne	.LBB6_34
# BB#35:                                # %if.end276
                                        #   in Loop: Header=BB6_25 Depth=1
	incl	EdgeProfCounters+2048(%rip)
	movl	-8(%rsp), %eax
	movq	-32(%rsp), %rcx
	movw	(%rcx,%rax,2), %ax
	movw	%ax, -56(%rsp)
	movl	-12(%rsp), %eax
	movq	-32(%rsp), %rcx
	movw	(%rcx,%rax,2), %ax
	movw	%ax, -58(%rsp)
	movzwl	-58(%rsp), %eax
	movzwl	-56(%rsp), %ecx
	cmpl	%eax, %ecx
	jne	.LBB6_36
# BB#37:                                # %if.end291
                                        #   in Loop: Header=BB6_25 Depth=1
	incl	EdgeProfCounters+2060(%rip)
	incl	-8(%rsp)
	incl	-12(%rsp)
	movl	-8(%rsp), %eax
	movq	-24(%rsp), %rcx
	movb	(%rcx,%rax), %al
	movb	%al, -53(%rsp)
	movl	-12(%rsp), %eax
	movq	-24(%rsp), %rcx
	movb	(%rcx,%rax), %al
	movb	%al, -54(%rsp)
	movzbl	-54(%rsp), %eax
	movzbl	-53(%rsp), %ecx
	cmpl	%eax, %ecx
	jne	.LBB6_38
# BB#39:                                # %if.end308
                                        #   in Loop: Header=BB6_25 Depth=1
	incl	EdgeProfCounters+2072(%rip)
	movl	-8(%rsp), %eax
	movq	-32(%rsp), %rcx
	movw	(%rcx,%rax,2), %ax
	movw	%ax, -56(%rsp)
	movl	-12(%rsp), %eax
	movq	-32(%rsp), %rcx
	movw	(%rcx,%rax,2), %ax
	movw	%ax, -58(%rsp)
	movzwl	-58(%rsp), %eax
	movzwl	-56(%rsp), %ecx
	cmpl	%eax, %ecx
	jne	.LBB6_40
# BB#41:                                # %if.end323
                                        #   in Loop: Header=BB6_25 Depth=1
	incl	EdgeProfCounters+2084(%rip)
	incl	-8(%rsp)
	incl	-12(%rsp)
	movl	-8(%rsp), %eax
	movq	-24(%rsp), %rcx
	movb	(%rcx,%rax), %al
	movb	%al, -53(%rsp)
	movl	-12(%rsp), %eax
	movq	-24(%rsp), %rcx
	movb	(%rcx,%rax), %al
	movb	%al, -54(%rsp)
	movzbl	-54(%rsp), %eax
	movzbl	-53(%rsp), %ecx
	cmpl	%eax, %ecx
	jne	.LBB6_42
# BB#43:                                # %if.end340
                                        #   in Loop: Header=BB6_25 Depth=1
	incl	EdgeProfCounters+2096(%rip)
	movl	-8(%rsp), %eax
	movq	-32(%rsp), %rcx
	movw	(%rcx,%rax,2), %ax
	movw	%ax, -56(%rsp)
	movl	-12(%rsp), %eax
	movq	-32(%rsp), %rcx
	movw	(%rcx,%rax,2), %ax
	movw	%ax, -58(%rsp)
	movzwl	-58(%rsp), %eax
	movzwl	-56(%rsp), %ecx
	cmpl	%eax, %ecx
	jne	.LBB6_44
# BB#45:                                # %if.end355
                                        #   in Loop: Header=BB6_25 Depth=1
	incl	EdgeProfCounters+2108(%rip)
	incl	-8(%rsp)
	incl	-12(%rsp)
	movl	-8(%rsp), %eax
	movq	-24(%rsp), %rcx
	movb	(%rcx,%rax), %al
	movb	%al, -53(%rsp)
	movl	-12(%rsp), %eax
	movq	-24(%rsp), %rcx
	movb	(%rcx,%rax), %al
	movb	%al, -54(%rsp)
	movzbl	-54(%rsp), %eax
	movzbl	-53(%rsp), %ecx
	cmpl	%eax, %ecx
	jne	.LBB6_46
# BB#47:                                # %if.end372
                                        #   in Loop: Header=BB6_25 Depth=1
	incl	EdgeProfCounters+2120(%rip)
	movl	-8(%rsp), %eax
	movq	-32(%rsp), %rcx
	movw	(%rcx,%rax,2), %ax
	movw	%ax, -56(%rsp)
	movl	-12(%rsp), %eax
	movq	-32(%rsp), %rcx
	movw	(%rcx,%rax,2), %ax
	movw	%ax, -58(%rsp)
	movzwl	-58(%rsp), %eax
	movzwl	-56(%rsp), %ecx
	cmpl	%eax, %ecx
	jne	.LBB6_48
# BB#49:                                # %if.end387
                                        #   in Loop: Header=BB6_25 Depth=1
	incl	EdgeProfCounters+2132(%rip)
	incl	-8(%rsp)
	incl	-12(%rsp)
	movl	-8(%rsp), %eax
	movq	-24(%rsp), %rcx
	movb	(%rcx,%rax), %al
	movb	%al, -53(%rsp)
	movl	-12(%rsp), %eax
	movq	-24(%rsp), %rcx
	movb	(%rcx,%rax), %al
	movb	%al, -54(%rsp)
	movzbl	-54(%rsp), %eax
	movzbl	-53(%rsp), %ecx
	cmpl	%eax, %ecx
	jne	.LBB6_50
# BB#51:                                # %if.end404
                                        #   in Loop: Header=BB6_25 Depth=1
	incl	EdgeProfCounters+2144(%rip)
	movl	-8(%rsp), %eax
	movq	-32(%rsp), %rcx
	movw	(%rcx,%rax,2), %ax
	movw	%ax, -56(%rsp)
	movl	-12(%rsp), %eax
	movq	-32(%rsp), %rcx
	movw	(%rcx,%rax,2), %ax
	movw	%ax, -58(%rsp)
	movzwl	-58(%rsp), %eax
	movzwl	-56(%rsp), %ecx
	cmpl	%eax, %ecx
	jne	.LBB6_52
# BB#53:                                # %if.end419
                                        #   in Loop: Header=BB6_25 Depth=1
	incl	EdgeProfCounters+2156(%rip)
	incl	-8(%rsp)
	incl	-12(%rsp)
	movl	-8(%rsp), %eax
	movq	-24(%rsp), %rcx
	movb	(%rcx,%rax), %al
	movb	%al, -53(%rsp)
	movl	-12(%rsp), %eax
	movq	-24(%rsp), %rcx
	movb	(%rcx,%rax), %al
	movb	%al, -54(%rsp)
	movzbl	-54(%rsp), %eax
	movzbl	-53(%rsp), %ecx
	cmpl	%eax, %ecx
	jne	.LBB6_54
# BB#55:                                # %if.end436
                                        #   in Loop: Header=BB6_25 Depth=1
	incl	EdgeProfCounters+2168(%rip)
	movl	-8(%rsp), %eax
	movq	-32(%rsp), %rcx
	movw	(%rcx,%rax,2), %ax
	movw	%ax, -56(%rsp)
	movl	-12(%rsp), %eax
	movq	-32(%rsp), %rcx
	movw	(%rcx,%rax,2), %ax
	movw	%ax, -58(%rsp)
	movzwl	-58(%rsp), %eax
	movzwl	-56(%rsp), %ecx
	cmpl	%eax, %ecx
	jne	.LBB6_56
# BB#57:                                # %if.end451
                                        #   in Loop: Header=BB6_25 Depth=1
	incl	EdgeProfCounters+2180(%rip)
	incl	-8(%rsp)
	incl	-12(%rsp)
	movl	-8(%rsp), %eax
	cmpl	-36(%rsp), %eax
	jb	.LBB6_58
# BB#59:                                # %if.then456
                                        #   in Loop: Header=BB6_25 Depth=1
	incl	EdgeProfCounters+2188(%rip)
	movl	-36(%rsp), %eax
	subl	%eax, -8(%rsp)
	incl	EdgeProfCounters+2196(%rip)
	jmp	.LBB6_60
.LBB6_58:                               # %if.end451.if.end457_crit_edge
                                        #   in Loop: Header=BB6_25 Depth=1
	incl	EdgeProfCounters+2192(%rip)
.LBB6_60:                               # %if.end457
                                        #   in Loop: Header=BB6_25 Depth=1
	movl	-12(%rsp), %eax
	cmpl	-36(%rsp), %eax
	jb	.LBB6_61
# BB#62:                                # %if.then460
                                        #   in Loop: Header=BB6_25 Depth=1
	incl	EdgeProfCounters+2200(%rip)
	movl	-36(%rsp), %eax
	subl	%eax, -12(%rsp)
	incl	EdgeProfCounters+2208(%rip)
	jmp	.LBB6_63
.LBB6_61:                               # %if.end457.if.end462_crit_edge
                                        #   in Loop: Header=BB6_25 Depth=1
	incl	EdgeProfCounters+2204(%rip)
.LBB6_63:                               # %if.end462
                                        #   in Loop: Header=BB6_25 Depth=1
	addl	$-8, -52(%rsp)
	movq	-48(%rsp), %rax
	decl	(%rax)
	incl	EdgeProfCounters+2212(%rip)
	cmpl	$0, -52(%rsp)
	jns	.LBB6_64
# BB#65:                                # %do.end
	incl	EdgeProfCounters+2220(%rip)
	movb	$0, -1(%rsp)
	incl	EdgeProfCounters+2224(%rip)
	movzbl	-1(%rsp), %eax
	ret
.LBB6_26:                               # %if.then206
	incl	EdgeProfCounters+1996(%rip)
	movzbl	-54(%rsp), %eax
	movzbl	-53(%rsp), %ecx
	cmpl	%eax, %ecx
	setg	-1(%rsp)
	incl	EdgeProfCounters+2004(%rip)
	movzbl	-1(%rsp), %eax
	ret
.LBB6_28:                               # %if.then221
	incl	EdgeProfCounters+2008(%rip)
	movzwl	-58(%rsp), %eax
	movzwl	-56(%rsp), %ecx
	cmpl	%eax, %ecx
	setg	-1(%rsp)
	incl	EdgeProfCounters+2016(%rip)
	movzbl	-1(%rsp), %eax
	ret
.LBB6_30:                               # %if.then238
	incl	EdgeProfCounters+2020(%rip)
	movzbl	-54(%rsp), %eax
	movzbl	-53(%rsp), %ecx
	cmpl	%eax, %ecx
	setg	-1(%rsp)
	incl	EdgeProfCounters+2028(%rip)
	movzbl	-1(%rsp), %eax
	ret
.LBB6_32:                               # %if.then253
	incl	EdgeProfCounters+2032(%rip)
	movzwl	-58(%rsp), %eax
	movzwl	-56(%rsp), %ecx
	cmpl	%eax, %ecx
	setg	-1(%rsp)
	incl	EdgeProfCounters+2040(%rip)
	movzbl	-1(%rsp), %eax
	ret
.LBB6_34:                               # %if.then270
	incl	EdgeProfCounters+2044(%rip)
	movzbl	-54(%rsp), %eax
	movzbl	-53(%rsp), %ecx
	cmpl	%eax, %ecx
	setg	-1(%rsp)
	incl	EdgeProfCounters+2052(%rip)
	movzbl	-1(%rsp), %eax
	ret
.LBB6_36:                               # %if.then285
	incl	EdgeProfCounters+2056(%rip)
	movzwl	-58(%rsp), %eax
	movzwl	-56(%rsp), %ecx
	cmpl	%eax, %ecx
	setg	-1(%rsp)
	incl	EdgeProfCounters+2064(%rip)
	movzbl	-1(%rsp), %eax
	ret
.LBB6_38:                               # %if.then302
	incl	EdgeProfCounters+2068(%rip)
	movzbl	-54(%rsp), %eax
	movzbl	-53(%rsp), %ecx
	cmpl	%eax, %ecx
	setg	-1(%rsp)
	incl	EdgeProfCounters+2076(%rip)
	movzbl	-1(%rsp), %eax
	ret
.LBB6_40:                               # %if.then317
	incl	EdgeProfCounters+2080(%rip)
	movzwl	-58(%rsp), %eax
	movzwl	-56(%rsp), %ecx
	cmpl	%eax, %ecx
	setg	-1(%rsp)
	incl	EdgeProfCounters+2088(%rip)
	movzbl	-1(%rsp), %eax
	ret
.LBB6_42:                               # %if.then334
	incl	EdgeProfCounters+2092(%rip)
	movzbl	-54(%rsp), %eax
	movzbl	-53(%rsp), %ecx
	cmpl	%eax, %ecx
	setg	-1(%rsp)
	incl	EdgeProfCounters+2100(%rip)
	movzbl	-1(%rsp), %eax
	ret
.LBB6_44:                               # %if.then349
	incl	EdgeProfCounters+2104(%rip)
	movzwl	-58(%rsp), %eax
	movzwl	-56(%rsp), %ecx
	cmpl	%eax, %ecx
	setg	-1(%rsp)
	incl	EdgeProfCounters+2112(%rip)
	movzbl	-1(%rsp), %eax
	ret
.LBB6_46:                               # %if.then366
	incl	EdgeProfCounters+2116(%rip)
	movzbl	-54(%rsp), %eax
	movzbl	-53(%rsp), %ecx
	cmpl	%eax, %ecx
	setg	-1(%rsp)
	incl	EdgeProfCounters+2124(%rip)
	movzbl	-1(%rsp), %eax
	ret
.LBB6_48:                               # %if.then381
	incl	EdgeProfCounters+2128(%rip)
	movzwl	-58(%rsp), %eax
	movzwl	-56(%rsp), %ecx
	cmpl	%eax, %ecx
	setg	-1(%rsp)
	incl	EdgeProfCounters+2136(%rip)
	movzbl	-1(%rsp), %eax
	ret
.LBB6_50:                               # %if.then398
	incl	EdgeProfCounters+2140(%rip)
	movzbl	-54(%rsp), %eax
	movzbl	-53(%rsp), %ecx
	cmpl	%eax, %ecx
	setg	-1(%rsp)
	incl	EdgeProfCounters+2148(%rip)
	movzbl	-1(%rsp), %eax
	ret
.LBB6_52:                               # %if.then413
	incl	EdgeProfCounters+2152(%rip)
	movzwl	-58(%rsp), %eax
	movzwl	-56(%rsp), %ecx
	cmpl	%eax, %ecx
	setg	-1(%rsp)
	incl	EdgeProfCounters+2160(%rip)
	movzbl	-1(%rsp), %eax
	ret
.LBB6_54:                               # %if.then430
	incl	EdgeProfCounters+2164(%rip)
	movzbl	-54(%rsp), %eax
	movzbl	-53(%rsp), %ecx
	cmpl	%eax, %ecx
	setg	-1(%rsp)
	incl	EdgeProfCounters+2172(%rip)
	movzbl	-1(%rsp), %eax
	ret
.LBB6_56:                               # %if.then445
	incl	EdgeProfCounters+2176(%rip)
	movzwl	-58(%rsp), %eax
	movzwl	-56(%rsp), %ecx
	cmpl	%eax, %ecx
	setg	-1(%rsp)
	incl	EdgeProfCounters+2184(%rip)
	movzbl	-1(%rsp), %eax
	ret
.Ltmp22:
	.size	mainGtU, .Ltmp22-mainGtU
	.cfi_endproc

	.align	16, 0x90
	.type	fallbackQSort3,@function
fallbackQSort3:                         # @fallbackQSort3
	.cfi_startproc
# BB#0:                                 # %entry
	pushq	%rbx
.Ltmp25:
	.cfi_def_cfa_offset 16
	subq	$928, %rsp              # imm = 0x3A0
.Ltmp26:
	.cfi_def_cfa_offset 944
.Ltmp27:
	.cfi_offset %rbx, -16
	incl	EdgeProfCounters+2228(%rip)
	movq	%rdi, 920(%rsp)
	movq	%rsi, 912(%rsp)
	movl	%edx, 908(%rsp)
	movl	%ecx, 904(%rsp)
	movl	$0, 860(%rsp)
	movl	$0, 876(%rsp)
	movslq	876(%rsp), %rax
	movl	908(%rsp), %ecx
	movl	%ecx, 448(%rsp,%rax,4)
	movslq	876(%rsp), %rax
	movl	904(%rsp), %ecx
	movl	%ecx, 48(%rsp,%rax,4)
	incl	876(%rsp)
	incl	EdgeProfCounters+2232(%rip)
	movl	$2863311531, %ebx       # imm = 0xAAAAAAAB
	jmp	.LBB7_1
	.align	16, 0x90
.LBB7_6:                                # %if.then9
                                        #   in Loop: Header=BB7_1 Depth=1
	incl	EdgeProfCounters+2256(%rip)
	movl	868(%rsp), %ecx
	movl	872(%rsp), %edx
	movq	912(%rsp), %rsi
	movq	920(%rsp), %rdi
	callq	fallbackSimpleSort
	incl	EdgeProfCounters+2264(%rip)
.LBB7_1:                                # %while.cond
                                        # =>This Loop Header: Depth=1
                                        #     Child Loop BB7_14 Depth 2
                                        #       Child Loop BB7_15 Depth 3
                                        #       Child Loop BB7_22 Depth 3
                                        #     Child Loop BB7_36 Depth 2
                                        #     Child Loop BB7_42 Depth 2
	cmpl	$0, 876(%rsp)
	jle	.LBB7_47
# BB#2:                                 # %while.body
                                        #   in Loop: Header=BB7_1 Depth=1
	incl	EdgeProfCounters+2236(%rip)
	cmpl	$99, 876(%rsp)
	jg	.LBB7_4
# BB#3:                                 # %while.body.if.end_crit_edge
                                        #   in Loop: Header=BB7_1 Depth=1
	incl	EdgeProfCounters+2244(%rip)
	jmp	.LBB7_5
	.align	16, 0x90
.LBB7_4:                                # %if.then
                                        #   in Loop: Header=BB7_1 Depth=1
	incl	EdgeProfCounters+2248(%rip)
	movl	$1004, %edi             # imm = 0x3EC
	callq	BZ2_bz__AssertH__fail
	incl	EdgeProfCounters+2252(%rip)
.LBB7_5:                                # %if.end
                                        #   in Loop: Header=BB7_1 Depth=1
	decl	876(%rsp)
	movslq	876(%rsp), %rax
	movl	448(%rsp,%rax,4), %eax
	movl	%eax, 872(%rsp)
	movslq	876(%rsp), %rax
	movl	48(%rsp,%rax,4), %eax
	movl	%eax, 868(%rsp)
	subl	872(%rsp), %eax
	cmpl	$9, %eax
	jle	.LBB7_6
# BB#7:                                 # %if.end10
                                        #   in Loop: Header=BB7_1 Depth=1
	incl	EdgeProfCounters+2260(%rip)
	imull	$7621, 860(%rsp), %eax  # imm = 0x1DC5
	incl	%eax
	andl	$32767, %eax            # imm = 0x7FFF
	movl	%eax, 860(%rsp)
	movq	%rax, %rcx
	imulq	%rbx, %rcx
	shrq	$33, %rcx
	leal	(%rcx,%rcx,2), %ecx
	subl	%ecx, %eax
	movl	%eax, 856(%rsp)
	jne	.LBB7_9
# BB#8:                                 # %if.then13
                                        #   in Loop: Header=BB7_1 Depth=1
	incl	EdgeProfCounters+2268(%rip)
	movslq	872(%rsp), %rax
	movq	920(%rsp), %rcx
	movl	(%rcx,%rax,4), %eax
	movq	912(%rsp), %rcx
	movl	(%rcx,%rax,4), %eax
	movl	%eax, 864(%rsp)
	incl	EdgeProfCounters+2276(%rip)
	jmp	.LBB7_13
	.align	16, 0x90
.LBB7_9:                                # %if.else
                                        #   in Loop: Header=BB7_1 Depth=1
	incl	EdgeProfCounters+2272(%rip)
	cmpl	$1, 856(%rsp)
	jne	.LBB7_11
# BB#10:                                # %if.then19
                                        #   in Loop: Header=BB7_1 Depth=1
	incl	EdgeProfCounters+2280(%rip)
	movl	872(%rsp), %eax
	addl	868(%rsp), %eax
	sarl	%eax
	movslq	%eax, %rax
	movq	920(%rsp), %rcx
	movl	(%rcx,%rax,4), %eax
	movq	912(%rsp), %rcx
	movl	(%rcx,%rax,4), %eax
	movl	%eax, 864(%rsp)
	incl	EdgeProfCounters+2288(%rip)
	jmp	.LBB7_12
.LBB7_11:                               # %if.else25
                                        #   in Loop: Header=BB7_1 Depth=1
	incl	EdgeProfCounters+2284(%rip)
	movslq	868(%rsp), %rax
	movq	920(%rsp), %rcx
	movl	(%rcx,%rax,4), %eax
	movq	912(%rsp), %rcx
	movl	(%rcx,%rax,4), %eax
	movl	%eax, 864(%rsp)
	incl	EdgeProfCounters+2292(%rip)
.LBB7_12:                               # %if.end30
                                        #   in Loop: Header=BB7_1 Depth=1
	incl	EdgeProfCounters+2296(%rip)
.LBB7_13:                               # %if.end31
                                        #   in Loop: Header=BB7_1 Depth=1
	movl	872(%rsp), %eax
	movl	%eax, 892(%rsp)
	movl	%eax, 900(%rsp)
	movl	868(%rsp), %eax
	movl	%eax, 888(%rsp)
	movl	%eax, 896(%rsp)
	incl	EdgeProfCounters+2300(%rip)
	jmp	.LBB7_14
	.align	16, 0x90
.LBB7_29:                               # %if.end92
                                        #   in Loop: Header=BB7_14 Depth=2
	incl	EdgeProfCounters+2396(%rip)
	movslq	900(%rsp), %rax
	movq	920(%rsp), %rcx
	movl	(%rcx,%rax,4), %eax
	movl	%eax, 36(%rsp)
	movslq	896(%rsp), %rcx
	movq	920(%rsp), %rax
	movl	(%rax,%rcx,4), %ecx
	movslq	900(%rsp), %rdx
	movl	%ecx, (%rax,%rdx,4)
	movq	920(%rsp), %rax
	movslq	896(%rsp), %rcx
	movl	36(%rsp), %edx
	movl	%edx, (%rax,%rcx,4)
	incl	900(%rsp)
	decl	896(%rsp)
	incl	EdgeProfCounters+2404(%rip)
.LBB7_14:                               # %while.body33
                                        #   Parent Loop BB7_1 Depth=1
                                        # =>  This Loop Header: Depth=2
                                        #       Child Loop BB7_15 Depth 3
                                        #       Child Loop BB7_22 Depth 3
	incl	EdgeProfCounters+2304(%rip)
	jmp	.LBB7_15
	.align	16, 0x90
.LBB7_18:                               # %if.then45
                                        #   in Loop: Header=BB7_15 Depth=3
	incl	EdgeProfCounters+2320(%rip)
	movslq	900(%rsp), %rax
	movq	920(%rsp), %rcx
	movl	(%rcx,%rax,4), %eax
	movl	%eax, 44(%rsp)
	movslq	892(%rsp), %rcx
	movq	920(%rsp), %rax
	movl	(%rax,%rcx,4), %ecx
	movslq	900(%rsp), %rdx
	movl	%ecx, (%rax,%rdx,4)
	movq	920(%rsp), %rax
	movslq	892(%rsp), %rcx
	movl	44(%rsp), %edx
	movl	%edx, (%rax,%rcx,4)
	incl	892(%rsp)
	incl	900(%rsp)
	incl	EdgeProfCounters+2328(%rip)
.LBB7_15:                               # %while.body35
                                        #   Parent Loop BB7_1 Depth=1
                                        #     Parent Loop BB7_14 Depth=2
                                        # =>    This Inner Loop Header: Depth=3
	movl	900(%rsp), %eax
	cmpl	896(%rsp), %eax
	jg	.LBB7_16
# BB#17:                                # %if.end38
                                        #   in Loop: Header=BB7_15 Depth=3
	incl	EdgeProfCounters+2312(%rip)
	movslq	900(%rsp), %rax
	movq	920(%rsp), %rcx
	movl	(%rcx,%rax,4), %eax
	movq	912(%rsp), %rcx
	movl	(%rcx,%rax,4), %eax
	subl	864(%rsp), %eax
	movl	%eax, 884(%rsp)
	je	.LBB7_18
# BB#19:                                # %if.end56
                                        #   in Loop: Header=BB7_15 Depth=3
	incl	EdgeProfCounters+2324(%rip)
	cmpl	$0, 884(%rsp)
	jg	.LBB7_20
# BB#48:                                # %if.end59
                                        #   in Loop: Header=BB7_15 Depth=3
	incl	EdgeProfCounters+2336(%rip)
	incl	900(%rsp)
	incl	EdgeProfCounters+2344(%rip)
	jmp	.LBB7_15
	.align	16, 0x90
.LBB7_16:                               # %if.then37
                                        #   in Loop: Header=BB7_14 Depth=2
	incl	EdgeProfCounters+2308(%rip)
	incl	EdgeProfCounters+2316(%rip)
	jmp	.LBB7_21
	.align	16, 0x90
.LBB7_20:                               # %if.then58
                                        #   in Loop: Header=BB7_14 Depth=2
	incl	EdgeProfCounters+2332(%rip)
	incl	EdgeProfCounters+2340(%rip)
.LBB7_21:                               # %while.end
                                        #   in Loop: Header=BB7_14 Depth=2
	incl	EdgeProfCounters+2348(%rip)
	jmp	.LBB7_22
	.align	16, 0x90
.LBB7_25:                               # %if.then72
                                        #   in Loop: Header=BB7_22 Depth=3
	incl	EdgeProfCounters+2364(%rip)
	movslq	896(%rsp), %rax
	movq	920(%rsp), %rcx
	movl	(%rcx,%rax,4), %eax
	movl	%eax, 40(%rsp)
	movslq	888(%rsp), %rcx
	movq	920(%rsp), %rax
	movl	(%rax,%rcx,4), %ecx
	movslq	896(%rsp), %rdx
	movl	%ecx, (%rax,%rdx,4)
	movq	920(%rsp), %rax
	movslq	888(%rsp), %rcx
	movl	40(%rsp), %edx
	movl	%edx, (%rax,%rcx,4)
	decl	888(%rsp)
	decl	896(%rsp)
	incl	EdgeProfCounters+2372(%rip)
.LBB7_22:                               # %while.body62
                                        #   Parent Loop BB7_1 Depth=1
                                        #     Parent Loop BB7_14 Depth=2
                                        # =>    This Inner Loop Header: Depth=3
	movl	900(%rsp), %eax
	cmpl	896(%rsp), %eax
	jg	.LBB7_23
# BB#24:                                # %if.end65
                                        #   in Loop: Header=BB7_22 Depth=3
	incl	EdgeProfCounters+2356(%rip)
	movslq	896(%rsp), %rax
	movq	920(%rsp), %rcx
	movl	(%rcx,%rax,4), %eax
	movq	912(%rsp), %rcx
	movl	(%rcx,%rax,4), %eax
	subl	864(%rsp), %eax
	movl	%eax, 884(%rsp)
	je	.LBB7_25
# BB#26:                                # %if.end84
                                        #   in Loop: Header=BB7_22 Depth=3
	incl	EdgeProfCounters+2368(%rip)
	cmpl	$0, 884(%rsp)
	js	.LBB7_27
# BB#49:                                # %if.end87
                                        #   in Loop: Header=BB7_22 Depth=3
	incl	EdgeProfCounters+2380(%rip)
	decl	896(%rsp)
	incl	EdgeProfCounters+2388(%rip)
	jmp	.LBB7_22
	.align	16, 0x90
.LBB7_23:                               # %if.then64
                                        #   in Loop: Header=BB7_14 Depth=2
	incl	EdgeProfCounters+2352(%rip)
	incl	EdgeProfCounters+2360(%rip)
	jmp	.LBB7_28
	.align	16, 0x90
.LBB7_27:                               # %if.then86
                                        #   in Loop: Header=BB7_14 Depth=2
	incl	EdgeProfCounters+2376(%rip)
	incl	EdgeProfCounters+2384(%rip)
.LBB7_28:                               # %while.end89
                                        #   in Loop: Header=BB7_14 Depth=2
	movl	900(%rsp), %eax
	cmpl	896(%rsp), %eax
	jle	.LBB7_29
# BB#30:                                # %while.end104
                                        #   in Loop: Header=BB7_1 Depth=1
	incl	EdgeProfCounters+2392(%rip)
	incl	EdgeProfCounters+2400(%rip)
	movl	888(%rsp), %eax
	cmpl	892(%rsp), %eax
	jge	.LBB7_32
# BB#31:                                # %if.then106
                                        #   in Loop: Header=BB7_1 Depth=1
	incl	EdgeProfCounters+2408(%rip)
	incl	EdgeProfCounters+2416(%rip)
	jmp	.LBB7_1
.LBB7_32:                               # %if.end107
                                        #   in Loop: Header=BB7_1 Depth=1
	incl	EdgeProfCounters+2412(%rip)
	movl	892(%rsp), %eax
	movl	900(%rsp), %ecx
	subl	%eax, %ecx
	subl	872(%rsp), %eax
	cmpl	%ecx, %eax
	jge	.LBB7_34
# BB#33:                                # %cond.true
                                        #   in Loop: Header=BB7_1 Depth=1
	incl	EdgeProfCounters+2420(%rip)
	movl	892(%rsp), %eax
	subl	872(%rsp), %eax
	incl	EdgeProfCounters+2428(%rip)
	jmp	.LBB7_35
.LBB7_34:                               # %cond.false
                                        #   in Loop: Header=BB7_1 Depth=1
	incl	EdgeProfCounters+2424(%rip)
	movl	900(%rsp), %eax
	subl	892(%rsp), %eax
	incl	EdgeProfCounters+2432(%rip)
.LBB7_35:                               # %cond.end
                                        #   in Loop: Header=BB7_1 Depth=1
	movl	%eax, 884(%rsp)
	movl	872(%rsp), %eax
	movl	%eax, 32(%rsp)
	movl	900(%rsp), %eax
	subl	884(%rsp), %eax
	movl	%eax, 28(%rsp)
	movl	884(%rsp), %eax
	movl	%eax, 24(%rsp)
	incl	EdgeProfCounters+2436(%rip)
	jmp	.LBB7_36
	.align	16, 0x90
.LBB7_37:                               # %while.body116
                                        #   in Loop: Header=BB7_36 Depth=2
	incl	EdgeProfCounters+2440(%rip)
	movslq	32(%rsp), %rax
	movq	920(%rsp), %rcx
	movl	(%rcx,%rax,4), %eax
	movl	%eax, 20(%rsp)
	movslq	28(%rsp), %rcx
	movq	920(%rsp), %rax
	movl	(%rax,%rcx,4), %ecx
	movslq	32(%rsp), %rdx
	movl	%ecx, (%rax,%rdx,4)
	movq	920(%rsp), %rax
	movslq	28(%rsp), %rcx
	movl	20(%rsp), %edx
	movl	%edx, (%rax,%rcx,4)
	incl	32(%rsp)
	incl	28(%rsp)
	decl	24(%rsp)
	incl	EdgeProfCounters+2448(%rip)
.LBB7_36:                               # %while.cond114
                                        #   Parent Loop BB7_1 Depth=1
                                        # =>  This Inner Loop Header: Depth=2
	cmpl	$0, 24(%rsp)
	jg	.LBB7_37
# BB#38:                                # %while.end129
                                        #   in Loop: Header=BB7_1 Depth=1
	incl	EdgeProfCounters+2444(%rip)
	movl	888(%rsp), %eax
	movl	868(%rsp), %ecx
	subl	%eax, %ecx
	subl	896(%rsp), %eax
	cmpl	%eax, %ecx
	jge	.LBB7_40
# BB#39:                                # %cond.true133
                                        #   in Loop: Header=BB7_1 Depth=1
	incl	EdgeProfCounters+2452(%rip)
	movl	868(%rsp), %eax
	subl	888(%rsp), %eax
	incl	EdgeProfCounters+2460(%rip)
	jmp	.LBB7_41
.LBB7_40:                               # %cond.false135
                                        #   in Loop: Header=BB7_1 Depth=1
	incl	EdgeProfCounters+2456(%rip)
	movl	888(%rsp), %eax
	subl	896(%rsp), %eax
	incl	EdgeProfCounters+2464(%rip)
.LBB7_41:                               # %cond.end137
                                        #   in Loop: Header=BB7_1 Depth=1
	movl	%eax, 880(%rsp)
	movl	900(%rsp), %eax
	movl	%eax, 16(%rsp)
	movl	868(%rsp), %eax
	subl	880(%rsp), %eax
	incl	%eax
	movl	%eax, 12(%rsp)
	movl	880(%rsp), %eax
	movl	%eax, 8(%rsp)
	incl	EdgeProfCounters+2468(%rip)
	jmp	.LBB7_42
	.align	16, 0x90
.LBB7_43:                               # %while.body146
                                        #   in Loop: Header=BB7_42 Depth=2
	incl	EdgeProfCounters+2472(%rip)
	movslq	16(%rsp), %rax
	movq	920(%rsp), %rcx
	movl	(%rcx,%rax,4), %eax
	movl	%eax, 4(%rsp)
	movslq	12(%rsp), %rcx
	movq	920(%rsp), %rax
	movl	(%rax,%rcx,4), %ecx
	movslq	16(%rsp), %rdx
	movl	%ecx, (%rax,%rdx,4)
	movq	920(%rsp), %rax
	movslq	12(%rsp), %rcx
	movl	4(%rsp), %edx
	movl	%edx, (%rax,%rcx,4)
	incl	16(%rsp)
	incl	12(%rsp)
	decl	8(%rsp)
	incl	EdgeProfCounters+2480(%rip)
.LBB7_42:                               # %while.cond144
                                        #   Parent Loop BB7_1 Depth=1
                                        # =>  This Inner Loop Header: Depth=2
	cmpl	$0, 8(%rsp)
	jg	.LBB7_43
# BB#44:                                # %while.end159
                                        #   in Loop: Header=BB7_1 Depth=1
	incl	EdgeProfCounters+2476(%rip)
	movl	872(%rsp), %eax
	addl	900(%rsp), %eax
	subl	892(%rsp), %eax
	decl	%eax
	movl	%eax, 884(%rsp)
	movl	888(%rsp), %eax
	subl	896(%rsp), %eax
	negl	%eax
	movl	868(%rsp), %ecx
	leal	1(%rcx,%rax), %ecx
	movl	%ecx, 880(%rsp)
	movl	868(%rsp), %eax
	subl	%ecx, %eax
	movl	884(%rsp), %ecx
	subl	872(%rsp), %ecx
	cmpl	%eax, %ecx
	jle	.LBB7_46
# BB#45:                                # %if.then169
                                        #   in Loop: Header=BB7_1 Depth=1
	incl	EdgeProfCounters+2484(%rip)
	movslq	876(%rsp), %rax
	movl	872(%rsp), %ecx
	movl	%ecx, 448(%rsp,%rax,4)
	movslq	876(%rsp), %rax
	movl	884(%rsp), %ecx
	movl	%ecx, 48(%rsp,%rax,4)
	incl	876(%rsp)
	movslq	876(%rsp), %rax
	movl	880(%rsp), %ecx
	movl	%ecx, 448(%rsp,%rax,4)
	movslq	876(%rsp), %rax
	movl	868(%rsp), %ecx
	movl	%ecx, 48(%rsp,%rax,4)
	incl	876(%rsp)
	incl	EdgeProfCounters+2492(%rip)
	incl	EdgeProfCounters+2500(%rip)
	jmp	.LBB7_1
.LBB7_46:                               # %if.else180
                                        #   in Loop: Header=BB7_1 Depth=1
	incl	EdgeProfCounters+2488(%rip)
	movslq	876(%rsp), %rax
	movl	880(%rsp), %ecx
	movl	%ecx, 448(%rsp,%rax,4)
	movslq	876(%rsp), %rax
	movl	868(%rsp), %ecx
	movl	%ecx, 48(%rsp,%rax,4)
	incl	876(%rsp)
	movslq	876(%rsp), %rax
	movl	872(%rsp), %ecx
	movl	%ecx, 448(%rsp,%rax,4)
	movslq	876(%rsp), %rax
	movl	884(%rsp), %ecx
	movl	%ecx, 48(%rsp,%rax,4)
	incl	876(%rsp)
	incl	EdgeProfCounters+2496(%rip)
	incl	EdgeProfCounters+2500(%rip)
	jmp	.LBB7_1
.LBB7_47:                               # %while.end192
	incl	EdgeProfCounters+2240(%rip)
	addq	$928, %rsp              # imm = 0x3A0
	popq	%rbx
	ret
.Ltmp28:
	.size	fallbackQSort3, .Ltmp28-fallbackQSort3
	.cfi_endproc

	.align	16, 0x90
	.type	fallbackSimpleSort,@function
fallbackSimpleSort:                     # @fallbackSimpleSort
	.cfi_startproc
# BB#0:                                 # %entry
	incl	EdgeProfCounters+2504(%rip)
	movq	%rdi, -8(%rsp)
	movq	%rsi, -16(%rsp)
	movl	%edx, -20(%rsp)
	movl	%ecx, -24(%rsp)
	cmpl	%ecx, -20(%rsp)
	jne	.LBB8_2
# BB#1:                                 # %if.then
	incl	EdgeProfCounters+2508(%rip)
	incl	EdgeProfCounters+2516(%rip)
	ret
.LBB8_2:                                # %if.end
	incl	EdgeProfCounters+2512(%rip)
	movl	-24(%rsp), %eax
	subl	-20(%rsp), %eax
	cmpl	$3, %eax
	jle	.LBB8_3
# BB#4:                                 # %if.then3
	incl	EdgeProfCounters+2520(%rip)
	movl	-24(%rsp), %eax
	addl	$-4, %eax
	movl	%eax, -28(%rsp)
	incl	EdgeProfCounters+2528(%rip)
	jmp	.LBB8_5
	.align	16, 0x90
.LBB8_12:                               # %for.end
                                        #   in Loop: Header=BB8_5 Depth=1
	incl	EdgeProfCounters+2560(%rip)
	movl	-32(%rsp), %eax
	addl	$-4, %eax
	movslq	%eax, %rax
	movq	-8(%rsp), %rcx
	movl	-36(%rsp), %edx
	movl	%edx, (%rcx,%rax,4)
	incl	EdgeProfCounters+2572(%rip)
	decl	-28(%rsp)
	incl	EdgeProfCounters+2576(%rip)
.LBB8_5:                                # %for.cond
                                        # =>This Loop Header: Depth=1
                                        #     Child Loop BB8_7 Depth 2
	movl	-28(%rsp), %eax
	cmpl	-20(%rsp), %eax
	jl	.LBB8_13
# BB#6:                                 # %for.body
                                        #   in Loop: Header=BB8_5 Depth=1
	incl	EdgeProfCounters+2532(%rip)
	movslq	-28(%rsp), %rax
	movq	-8(%rsp), %rcx
	movl	(%rcx,%rax,4), %eax
	movl	%eax, -36(%rsp)
	movslq	-36(%rsp), %rax
	movq	-16(%rsp), %rcx
	movl	(%rcx,%rax,4), %eax
	movl	%eax, -40(%rsp)
	movl	-28(%rsp), %eax
	addl	$4, %eax
	movl	%eax, -32(%rsp)
	incl	EdgeProfCounters+2540(%rip)
	jmp	.LBB8_7
	.align	16, 0x90
.LBB8_11:                               # %for.body15
                                        #   in Loop: Header=BB8_7 Depth=2
	incl	EdgeProfCounters+2556(%rip)
	movslq	-32(%rsp), %rax
	movq	-8(%rsp), %rcx
	movl	(%rcx,%rax,4), %edx
	addl	$-4, %eax
	movslq	%eax, %rax
	movl	%edx, (%rcx,%rax,4)
	incl	EdgeProfCounters+2564(%rip)
	addl	$4, -32(%rsp)
	incl	EdgeProfCounters+2568(%rip)
.LBB8_7:                                # %for.cond8
                                        #   Parent Loop BB8_5 Depth=1
                                        # =>  This Inner Loop Header: Depth=2
	movl	-32(%rsp), %eax
	cmpl	-24(%rsp), %eax
	jg	.LBB8_8
# BB#9:                                 # %land.rhs
                                        #   in Loop: Header=BB8_7 Depth=2
	incl	EdgeProfCounters+2544(%rip)
	movslq	-32(%rsp), %rax
	movq	-8(%rsp), %rcx
	movl	(%rcx,%rax,4), %eax
	movq	-16(%rsp), %rcx
	movl	-40(%rsp), %edx
	cmpl	(%rcx,%rax,4), %edx
	seta	%al
	incl	EdgeProfCounters+2552(%rip)
	jmp	.LBB8_10
	.align	16, 0x90
.LBB8_8:                                # %for.cond8.land.end_crit_edge
                                        #   in Loop: Header=BB8_7 Depth=2
	incl	EdgeProfCounters+2548(%rip)
	xorb	%al, %al
.LBB8_10:                               # %land.end
                                        #   in Loop: Header=BB8_7 Depth=2
	cmpb	$1, %al
	jne	.LBB8_12
	jmp	.LBB8_11
.LBB8_3:                                # %if.end.if.end27_crit_edge
	incl	EdgeProfCounters+2524(%rip)
	jmp	.LBB8_14
.LBB8_13:                               # %for.end26
	incl	EdgeProfCounters+2536(%rip)
	incl	EdgeProfCounters+2580(%rip)
.LBB8_14:                               # %if.end27
	movl	-24(%rsp), %eax
	decl	%eax
	movl	%eax, -28(%rsp)
	incl	EdgeProfCounters+2584(%rip)
	jmp	.LBB8_15
	.align	16, 0x90
.LBB8_24:                               # %for.end53
                                        #   in Loop: Header=BB8_15 Depth=1
	incl	EdgeProfCounters+2616(%rip)
	movl	-32(%rsp), %eax
	decl	%eax
	movslq	%eax, %rax
	movq	-8(%rsp), %rcx
	movl	-36(%rsp), %edx
	movl	%edx, (%rcx,%rax,4)
	incl	EdgeProfCounters+2628(%rip)
	decl	-28(%rsp)
	incl	EdgeProfCounters+2632(%rip)
.LBB8_15:                               # %for.cond29
                                        # =>This Loop Header: Depth=1
                                        #     Child Loop BB8_19 Depth 2
	movl	-28(%rsp), %eax
	cmpl	-20(%rsp), %eax
	jl	.LBB8_16
# BB#18:                                # %for.body31
                                        #   in Loop: Header=BB8_15 Depth=1
	incl	EdgeProfCounters+2588(%rip)
	movslq	-28(%rsp), %rax
	movq	-8(%rsp), %rcx
	movl	(%rcx,%rax,4), %eax
	movl	%eax, -36(%rsp)
	movslq	-36(%rsp), %rax
	movq	-16(%rsp), %rcx
	movl	(%rcx,%rax,4), %eax
	movl	%eax, -40(%rsp)
	movl	-28(%rsp), %eax
	incl	%eax
	movl	%eax, -32(%rsp)
	incl	EdgeProfCounters+2596(%rip)
	jmp	.LBB8_19
	.align	16, 0x90
.LBB8_23:                               # %for.body46
                                        #   in Loop: Header=BB8_19 Depth=2
	incl	EdgeProfCounters+2612(%rip)
	movslq	-32(%rsp), %rax
	movq	-8(%rsp), %rcx
	movl	(%rcx,%rax,4), %edx
	decl	%eax
	movslq	%eax, %rax
	movl	%edx, (%rcx,%rax,4)
	incl	EdgeProfCounters+2620(%rip)
	incl	-32(%rsp)
	incl	EdgeProfCounters+2624(%rip)
.LBB8_19:                               # %for.cond37
                                        #   Parent Loop BB8_15 Depth=1
                                        # =>  This Inner Loop Header: Depth=2
	movl	-32(%rsp), %eax
	cmpl	-24(%rsp), %eax
	jg	.LBB8_20
# BB#21:                                # %land.rhs39
                                        #   in Loop: Header=BB8_19 Depth=2
	incl	EdgeProfCounters+2600(%rip)
	movslq	-32(%rsp), %rax
	movq	-8(%rsp), %rcx
	movl	(%rcx,%rax,4), %eax
	movq	-16(%rsp), %rcx
	movl	-40(%rsp), %edx
	cmpl	(%rcx,%rax,4), %edx
	seta	%al
	incl	EdgeProfCounters+2608(%rip)
	jmp	.LBB8_22
	.align	16, 0x90
.LBB8_20:                               # %for.cond37.land.end45_crit_edge
                                        #   in Loop: Header=BB8_19 Depth=2
	incl	EdgeProfCounters+2604(%rip)
	xorb	%al, %al
.LBB8_22:                               # %land.end45
                                        #   in Loop: Header=BB8_19 Depth=2
	cmpb	$1, %al
	jne	.LBB8_24
	jmp	.LBB8_23
.LBB8_16:                               # %for.cond29.for.end59_crit_edge
	incl	EdgeProfCounters+2592(%rip)
	ret
.Ltmp29:
	.size	fallbackSimpleSort, .Ltmp29-fallbackSimpleSort
	.cfi_endproc

	.globl	fopen_output_safely
	.align	16, 0x90
	.type	fopen_output_safely,@function
fopen_output_safely:                    # @fopen_output_safely
	.cfi_startproc
# BB#0:                                 # %entry
	subq	$40, %rsp
.Ltmp31:
	.cfi_def_cfa_offset 48
	incl	EdgeProfCounters+2636(%rip)
	movq	%rdi, 24(%rsp)
	movq	%rsi, 16(%rsp)
	movq	24(%rsp), %rdi
	movl	$193, %esi
	movl	$384, %edx              # imm = 0x180
	xorb	%al, %al
	callq	open
	movl	%eax, 4(%rsp)
	cmpl	$-1, %eax
	jne	.LBB9_2
# BB#1:                                 # %if.then
	incl	EdgeProfCounters+2640(%rip)
	movq	$0, 32(%rsp)
	incl	EdgeProfCounters+2648(%rip)
	jmp	.LBB9_6
.LBB9_2:                                # %if.end
	incl	EdgeProfCounters+2644(%rip)
	movq	16(%rsp), %rsi
	movl	4(%rsp), %edi
	callq	fdopen
	movq	%rax, 8(%rsp)
	testq	%rax, %rax
	je	.LBB9_4
# BB#3:                                 # %if.end.if.end5_crit_edge
	incl	EdgeProfCounters+2656(%rip)
	jmp	.LBB9_5
.LBB9_4:                                # %if.then3
	incl	EdgeProfCounters+2652(%rip)
	movl	4(%rsp), %edi
	callq	close
	incl	EdgeProfCounters+2660(%rip)
.LBB9_5:                                # %if.end5
	movq	8(%rsp), %rax
	movq	%rax, 32(%rsp)
	incl	EdgeProfCounters+2664(%rip)
.LBB9_6:                                # %return
	movq	32(%rsp), %rax
	addq	$40, %rsp
	ret
.Ltmp32:
	.size	fopen_output_safely, .Ltmp32-fopen_output_safely
	.cfi_endproc

	.globl	main
	.align	16, 0x90
	.type	main,@function
main:                                   # @main
	.cfi_startproc
# BB#0:                                 # %entry
	pushq	%rbx
.Ltmp35:
	.cfi_def_cfa_offset 16
	subq	$64, %rsp
.Ltmp36:
	.cfi_def_cfa_offset 80
.Ltmp37:
	.cfi_offset %rbx, -16
	movq	%rsi, %rbx
	movl	$EdgeProfCounters, %edx
	movl	$4693, %ecx             # imm = 0x1255
	callq	llvm_start_edge_profiling
	incl	EdgeProfCounters+2668(%rip)
	movl	$0, 60(%rsp)
	movl	%eax, 56(%rsp)
	movq	%rbx, 48(%rsp)
	movq	$0, outputHandleJustInCase(%rip)
	movb	$0, smallMode(%rip)
	movb	$0, keepInputFiles(%rip)
	movb	$0, forceOverwrite(%rip)
	movb	$1, noisy(%rip)
	movl	$0, verbosity(%rip)
	movl	$9, blockSize100k(%rip)
	movb	$0, testFailsExist(%rip)
	movb	$0, unzFailsExist(%rip)
	movl	$0, numFileNames(%rip)
	movl	$0, numFilesProcessed(%rip)
	movl	$30, workFactor(%rip)
	movb	$0, deleteOutputOnInterrupt(%rip)
	movl	$0, exitValue(%rip)
	movl	$0, 40(%rsp)
	movl	$0, 44(%rsp)
	movl	$11, %edi
	movl	$mySIGSEGVorSIGBUScatcher, %esi
	callq	signal
	movl	$7, %edi
	movl	$mySIGSEGVorSIGBUScatcher, %esi
	callq	signal
	movl	$inName, %edi
	movl	$.L.str615, %esi
	callq	copyFileName
	movl	$outName, %edi
	movl	$.L.str615, %esi
	callq	copyFileName
	movq	48(%rsp), %rax
	movq	(%rax), %rsi
	movl	$progNameReally, %edi
	callq	copyFileName
	movq	$progNameReally, progName(%rip)
	movq	$progNameReally, 32(%rsp)
	incl	EdgeProfCounters+2672(%rip)
	jmp	.LBB10_1
	.align	16, 0x90
.LBB10_5:                               # %for.inc
                                        #   in Loop: Header=BB10_1 Depth=1
	incl	EdgeProfCounters+2696(%rip)
	incq	32(%rsp)
	incl	EdgeProfCounters+2700(%rip)
.LBB10_1:                               # %for.cond
                                        # =>This Inner Loop Header: Depth=1
	movq	32(%rsp), %rax
	movsbl	(%rax), %eax
	testl	%eax, %eax
	je	.LBB10_6
# BB#2:                                 # %for.body
                                        #   in Loop: Header=BB10_1 Depth=1
	incl	EdgeProfCounters+2676(%rip)
	movq	32(%rsp), %rax
	movsbl	(%rax), %eax
	cmpl	$47, %eax
	jne	.LBB10_3
# BB#4:                                 # %if.then
                                        #   in Loop: Header=BB10_1 Depth=1
	incl	EdgeProfCounters+2684(%rip)
	movq	32(%rsp), %rax
	incq	%rax
	movq	%rax, progName(%rip)
	incl	EdgeProfCounters+2692(%rip)
	jmp	.LBB10_5
	.align	16, 0x90
.LBB10_3:                               # %for.body.if.end_crit_edge
                                        #   in Loop: Header=BB10_1 Depth=1
	incl	EdgeProfCounters+2688(%rip)
	jmp	.LBB10_5
.LBB10_6:                               # %for.end
	incl	EdgeProfCounters+2680(%rip)
	movq	$0, 24(%rsp)
	leaq	24(%rsp), %rbx
	movq	%rbx, %rdi
	movl	$.L.str716, %esi
	callq	addFlagsFromEnvVar
	movq	%rbx, %rdi
	movl	$.L.str817, %esi
	callq	addFlagsFromEnvVar
	movl	$1, 44(%rsp)
	incl	EdgeProfCounters+2704(%rip)
	jmp	.LBB10_7
	.align	16, 0x90
.LBB10_8:                               # %for.inc15
                                        #   in Loop: Header=BB10_7 Depth=1
	incl	EdgeProfCounters+2708(%rip)
	movslq	44(%rsp), %rax
	movq	48(%rsp), %rcx
	movq	(%rcx,%rax,8), %rsi
	movq	24(%rsp), %rdi
	callq	snocString
	movq	%rax, 24(%rsp)
	incl	EdgeProfCounters+2716(%rip)
	incl	44(%rsp)
	incl	EdgeProfCounters+2720(%rip)
.LBB10_7:                               # %for.cond9
                                        # =>This Inner Loop Header: Depth=1
	movl	56(%rsp), %eax
	decl	%eax
	cmpl	%eax, 44(%rsp)
	jle	.LBB10_8
# BB#9:                                 # %for.end16
	incl	EdgeProfCounters+2712(%rip)
	movl	$7, longestFileName(%rip)
	movl	$0, numFileNames(%rip)
	movb	$1, 15(%rsp)
	movq	24(%rsp), %rax
	movq	%rax, 16(%rsp)
	incl	EdgeProfCounters+2724(%rip)
	jmp	.LBB10_10
	.align	16, 0x90
.LBB10_21:                              # %for.inc45
                                        #   in Loop: Header=BB10_10 Depth=1
	movq	16(%rsp), %rax
	movq	8(%rax), %rax
	movq	%rax, 16(%rsp)
	incl	EdgeProfCounters+2784(%rip)
.LBB10_10:                              # %for.cond17
                                        # =>This Inner Loop Header: Depth=1
	cmpq	$0, 16(%rsp)
	je	.LBB10_22
# BB#11:                                # %for.body20
                                        #   in Loop: Header=BB10_10 Depth=1
	incl	EdgeProfCounters+2728(%rip)
	movq	16(%rsp), %rax
	movq	(%rax), %rdi
	movl	$.L.str918, %esi
	callq	strcmp
	testl	%eax, %eax
	jne	.LBB10_13
# BB#12:                                # %if.then24
                                        #   in Loop: Header=BB10_10 Depth=1
	incl	EdgeProfCounters+2736(%rip)
	movb	$0, 15(%rsp)
	incl	EdgeProfCounters+2744(%rip)
	jmp	.LBB10_21
	.align	16, 0x90
.LBB10_13:                              # %if.end25
                                        #   in Loop: Header=BB10_10 Depth=1
	incl	EdgeProfCounters+2740(%rip)
	movq	16(%rsp), %rax
	movq	(%rax), %rax
	movsbl	(%rax), %eax
	cmpl	$45, %eax
	jne	.LBB10_14
# BB#15:                                # %land.lhs.true
                                        #   in Loop: Header=BB10_10 Depth=1
	incl	EdgeProfCounters+2748(%rip)
	cmpb	$0, 15(%rsp)
	je	.LBB10_16
# BB#233:                               # %if.then32
                                        #   in Loop: Header=BB10_10 Depth=1
	incl	EdgeProfCounters+2756(%rip)
	incl	EdgeProfCounters+2764(%rip)
	jmp	.LBB10_21
	.align	16, 0x90
.LBB10_14:                              # %if.end25.if.end33_crit_edge
                                        #   in Loop: Header=BB10_10 Depth=1
	incl	EdgeProfCounters+2752(%rip)
	jmp	.LBB10_17
.LBB10_16:                              # %land.lhs.true.if.end33_crit_edge
                                        #   in Loop: Header=BB10_10 Depth=1
	incl	EdgeProfCounters+2760(%rip)
.LBB10_17:                              # %if.end33
                                        #   in Loop: Header=BB10_10 Depth=1
	incl	numFileNames(%rip)
	movq	16(%rsp), %rax
	movq	(%rax), %rdi
	movl	longestFileName(%rip), %ebx
	callq	strlen
	cmpl	%eax, %ebx
	jge	.LBB10_18
# BB#19:                                # %if.then40
                                        #   in Loop: Header=BB10_10 Depth=1
	incl	EdgeProfCounters+2768(%rip)
	movq	16(%rsp), %rax
	movq	(%rax), %rdi
	callq	strlen
	movl	%eax, longestFileName(%rip)
	incl	EdgeProfCounters+2776(%rip)
	jmp	.LBB10_20
.LBB10_18:                              # %if.end33.if.end44_crit_edge
                                        #   in Loop: Header=BB10_10 Depth=1
	incl	EdgeProfCounters+2772(%rip)
.LBB10_20:                              # %if.end44
                                        #   in Loop: Header=BB10_10 Depth=1
	incl	EdgeProfCounters+2780(%rip)
	jmp	.LBB10_21
.LBB10_22:                              # %for.end46
	incl	EdgeProfCounters+2732(%rip)
	cmpl	$0, numFileNames(%rip)
	je	.LBB10_23
# BB#24:                                # %if.else
	incl	EdgeProfCounters+2792(%rip)
	movl	$3, srcMode(%rip)
	incl	EdgeProfCounters+2800(%rip)
	jmp	.LBB10_25
.LBB10_23:                              # %if.then49
	incl	EdgeProfCounters+2788(%rip)
	movl	$1, srcMode(%rip)
	incl	EdgeProfCounters+2796(%rip)
.LBB10_25:                              # %if.end50
	movl	$1, opMode(%rip)
	movq	progName(%rip), %rdi
	movl	$.L.str10, %esi
	callq	strstr
	testq	%rax, %rax
	je	.LBB10_27
# BB#26:                                # %if.end50.if.then57_crit_edge
	incl	EdgeProfCounters+2804(%rip)
	jmp	.LBB10_30
.LBB10_27:                              # %lor.lhs.false
	incl	EdgeProfCounters+2808(%rip)
	movq	progName(%rip), %rdi
	movl	$.L.str11, %esi
	callq	strstr
	testq	%rax, %rax
	je	.LBB10_28
# BB#29:                                # %lor.lhs.false.if.then57_crit_edge
	incl	EdgeProfCounters+2812(%rip)
.LBB10_30:                              # %if.then57
	movl	$2, opMode(%rip)
	incl	EdgeProfCounters+2820(%rip)
.LBB10_31:                              # %if.end58
	movq	progName(%rip), %rdi
	movl	$.L.str12, %esi
	callq	strstr
	testq	%rax, %rax
	je	.LBB10_33
# BB#32:                                # %if.end58.if.then74_crit_edge
	incl	EdgeProfCounters+2824(%rip)
	jmp	.LBB10_40
.LBB10_33:                              # %lor.lhs.false62
	incl	EdgeProfCounters+2828(%rip)
	movq	progName(%rip), %rdi
	movl	$.L.str13, %esi
	callq	strstr
	testq	%rax, %rax
	je	.LBB10_35
# BB#34:                                # %lor.lhs.false62.if.then74_crit_edge
	incl	EdgeProfCounters+2832(%rip)
	jmp	.LBB10_40
.LBB10_28:                              # %lor.lhs.false.if.end58_crit_edge
	incl	EdgeProfCounters+2816(%rip)
	jmp	.LBB10_31
.LBB10_35:                              # %lor.lhs.false66
	incl	EdgeProfCounters+2836(%rip)
	movq	progName(%rip), %rdi
	movl	$.L.str14, %esi
	callq	strstr
	testq	%rax, %rax
	je	.LBB10_37
# BB#36:                                # %lor.lhs.false66.if.then74_crit_edge
	incl	EdgeProfCounters+2840(%rip)
	jmp	.LBB10_40
.LBB10_37:                              # %lor.lhs.false70
	incl	EdgeProfCounters+2844(%rip)
	movq	progName(%rip), %rdi
	movl	$.L.str15, %esi
	callq	strstr
	testq	%rax, %rax
	je	.LBB10_38
# BB#39:                                # %lor.lhs.false70.if.then74_crit_edge
	incl	EdgeProfCounters+2848(%rip)
.LBB10_40:                              # %if.then74
	movl	$2, opMode(%rip)
	movl	$1, %eax
	cmpl	$0, numFileNames(%rip)
	je	.LBB10_42
# BB#41:                                # %select.mid
	movl	$2, %eax
.LBB10_42:                              # %select.end
	movl	%eax, srcMode(%rip)
	incl	EdgeProfCounters+2856(%rip)
.LBB10_43:                              # %if.end77
	movq	24(%rsp), %rax
	movq	%rax, 16(%rsp)
	incl	EdgeProfCounters+2860(%rip)
	jmp	.LBB10_44
	.align	16, 0x90
.LBB10_93:                              # %for.inc138
                                        #   in Loop: Header=BB10_44 Depth=1
	incl	EdgeProfCounters+3096(%rip)
	movq	16(%rsp), %rax
	movq	8(%rax), %rax
	movq	%rax, 16(%rsp)
	incl	EdgeProfCounters+3100(%rip)
.LBB10_44:                              # %for.cond78
                                        # =>This Loop Header: Depth=1
                                        #     Child Loop BB10_58 Depth 2
	cmpq	$0, 16(%rsp)
	je	.LBB10_45
# BB#51:                                # %for.body81
                                        #   in Loop: Header=BB10_44 Depth=1
	incl	EdgeProfCounters+2864(%rip)
	movq	16(%rsp), %rax
	movq	(%rax), %rdi
	movl	$.L.str918, %esi
	callq	strcmp
	testl	%eax, %eax
	je	.LBB10_52
# BB#53:                                # %if.end87
                                        #   in Loop: Header=BB10_44 Depth=1
	incl	EdgeProfCounters+2876(%rip)
	movq	16(%rsp), %rax
	movq	(%rax), %rax
	movsbl	(%rax), %eax
	cmpl	$45, %eax
	jne	.LBB10_54
# BB#55:                                # %land.lhs.true93
                                        #   in Loop: Header=BB10_44 Depth=1
	incl	EdgeProfCounters+2884(%rip)
	movq	16(%rsp), %rax
	movq	(%rax), %rax
	movsbl	1(%rax), %eax
	cmpl	$45, %eax
	je	.LBB10_56
# BB#57:                                # %if.then99
                                        #   in Loop: Header=BB10_44 Depth=1
	incl	EdgeProfCounters+2892(%rip)
	movl	$1, 40(%rsp)
	incl	EdgeProfCounters+2900(%rip)
	jmp	.LBB10_58
	.align	16, 0x90
.LBB10_91:                              # %for.inc134
                                        #   in Loop: Header=BB10_58 Depth=2
	incl	EdgeProfCounters+3084(%rip)
	incl	40(%rsp)
	incl	EdgeProfCounters+3088(%rip)
.LBB10_58:                              # %for.cond100
                                        #   Parent Loop BB10_44 Depth=1
                                        # =>  This Inner Loop Header: Depth=2
	movq	16(%rsp), %rax
	movq	(%rax), %rax
	movslq	40(%rsp), %rcx
	movsbl	(%rax,%rcx), %eax
	testl	%eax, %eax
	je	.LBB10_92
# BB#59:                                # %for.body107
                                        #   in Loop: Header=BB10_58 Depth=2
	incl	EdgeProfCounters+2904(%rip)
	movq	16(%rsp), %rax
	movq	(%rax), %rax
	movslq	40(%rsp), %rcx
	movsbl	(%rax,%rcx), %eax
	cmpl	$75, %eax
	ja	.LBB10_62
# BB#60:                                # %for.body107
                                        #   in Loop: Header=BB10_58 Depth=2
	addl	$-49, %eax
	cmpl	$8, %eax
	ja	.LBB10_90
# BB#61:                                # %for.body107
                                        #   in Loop: Header=BB10_58 Depth=2
	jmpq	*.LJTI10_1(,%rax,8)
.LBB10_79:                              # %sw.bb119
                                        #   in Loop: Header=BB10_58 Depth=2
	incl	EdgeProfCounters+2948(%rip)
	movl	$1, blockSize100k(%rip)
	incl	EdgeProfCounters+3032(%rip)
	jmp	.LBB10_91
	.align	16, 0x90
.LBB10_62:                              # %for.body107
                                        #   in Loop: Header=BB10_58 Depth=2
	cmpl	$85, %eax
	ja	.LBB10_66
# BB#63:                                # %for.body107
                                        #   in Loop: Header=BB10_58 Depth=2
	cmpl	$76, %eax
	jne	.LBB10_90
# BB#64:                                # %for.body107.sw.bb128_crit_edge159
                                        #   in Loop: Header=BB10_58 Depth=2
	incl	EdgeProfCounters+2988(%rip)
	jmp	.LBB10_65
	.align	16, 0x90
.LBB10_66:                              # %for.body107
                                        #   in Loop: Header=BB10_58 Depth=2
	cmpl	$98, %eax
	ja	.LBB10_69
# BB#67:                                # %for.body107
                                        #   in Loop: Header=BB10_58 Depth=2
	cmpl	$86, %eax
	jne	.LBB10_90
# BB#68:                                # %for.body107.sw.bb128_crit_edge
                                        #   in Loop: Header=BB10_58 Depth=2
	incl	EdgeProfCounters+2984(%rip)
.LBB10_65:                              # %sw.bb128
                                        #   in Loop: Header=BB10_58 Depth=2
	callq	license
	incl	EdgeProfCounters+3068(%rip)
	jmp	.LBB10_91
.LBB10_69:                              # %for.body107
                                        #   in Loop: Header=BB10_58 Depth=2
	addl	$-99, %eax
	cmpl	$23, %eax
	ja	.LBB10_90
# BB#70:                                # %for.body107
                                        #   in Loop: Header=BB10_58 Depth=2
	jmpq	*.LJTI10_0(,%rax,8)
.LBB10_71:                              # %sw.bb
                                        #   in Loop: Header=BB10_58 Depth=2
	incl	EdgeProfCounters+2916(%rip)
	movl	$2, srcMode(%rip)
	incl	EdgeProfCounters+3000(%rip)
	jmp	.LBB10_91
	.align	16, 0x90
.LBB10_90:                              # %sw.default
                                        #   in Loop: Header=BB10_58 Depth=2
	incl	EdgeProfCounters+2912(%rip)
	movq	16(%rsp), %rax
	movq	(%rax), %rcx
	movq	progName(%rip), %rdx
	movq	stderr(%rip), %rdi
	movl	$.L.str16, %esi
	xorb	%al, %al
	callq	fprintf
	movq	progName(%rip), %rdi
	callq	usage
	movl	$1, %edi
	callq	exit
	incl	EdgeProfCounters+3080(%rip)
	jmp	.LBB10_91
.LBB10_80:                              # %sw.bb120
                                        #   in Loop: Header=BB10_58 Depth=2
	incl	EdgeProfCounters+2952(%rip)
	movl	$2, blockSize100k(%rip)
	incl	EdgeProfCounters+3036(%rip)
	jmp	.LBB10_91
.LBB10_81:                              # %sw.bb121
                                        #   in Loop: Header=BB10_58 Depth=2
	incl	EdgeProfCounters+2956(%rip)
	movl	$3, blockSize100k(%rip)
	incl	EdgeProfCounters+3040(%rip)
	jmp	.LBB10_91
.LBB10_82:                              # %sw.bb122
                                        #   in Loop: Header=BB10_58 Depth=2
	incl	EdgeProfCounters+2960(%rip)
	movl	$4, blockSize100k(%rip)
	incl	EdgeProfCounters+3044(%rip)
	jmp	.LBB10_91
.LBB10_83:                              # %sw.bb123
                                        #   in Loop: Header=BB10_58 Depth=2
	incl	EdgeProfCounters+2964(%rip)
	movl	$5, blockSize100k(%rip)
	incl	EdgeProfCounters+3048(%rip)
	jmp	.LBB10_91
.LBB10_84:                              # %sw.bb124
                                        #   in Loop: Header=BB10_58 Depth=2
	incl	EdgeProfCounters+2968(%rip)
	movl	$6, blockSize100k(%rip)
	incl	EdgeProfCounters+3052(%rip)
	jmp	.LBB10_91
.LBB10_85:                              # %sw.bb125
                                        #   in Loop: Header=BB10_58 Depth=2
	incl	EdgeProfCounters+2972(%rip)
	movl	$7, blockSize100k(%rip)
	incl	EdgeProfCounters+3056(%rip)
	jmp	.LBB10_91
.LBB10_86:                              # %sw.bb126
                                        #   in Loop: Header=BB10_58 Depth=2
	incl	EdgeProfCounters+2976(%rip)
	movl	$8, blockSize100k(%rip)
	incl	EdgeProfCounters+3060(%rip)
	jmp	.LBB10_91
.LBB10_87:                              # %sw.bb127
                                        #   in Loop: Header=BB10_58 Depth=2
	incl	EdgeProfCounters+2980(%rip)
	movl	$9, blockSize100k(%rip)
	incl	EdgeProfCounters+3064(%rip)
	jmp	.LBB10_91
.LBB10_72:                              # %sw.bb112
                                        #   in Loop: Header=BB10_58 Depth=2
	incl	EdgeProfCounters+2920(%rip)
	movl	$2, opMode(%rip)
	incl	EdgeProfCounters+3004(%rip)
	jmp	.LBB10_91
.LBB10_74:                              # %sw.bb114
                                        #   in Loop: Header=BB10_58 Depth=2
	incl	EdgeProfCounters+2928(%rip)
	movb	$1, forceOverwrite(%rip)
	incl	EdgeProfCounters+3012(%rip)
	jmp	.LBB10_91
.LBB10_89:                              # %sw.bb131
                                        #   in Loop: Header=BB10_58 Depth=2
	incl	EdgeProfCounters+2996(%rip)
	movq	progName(%rip), %rdi
	callq	usage
	xorl	%edi, %edi
	callq	exit
	incl	EdgeProfCounters+3076(%rip)
	jmp	.LBB10_91
.LBB10_76:                              # %sw.bb116
                                        #   in Loop: Header=BB10_58 Depth=2
	incl	EdgeProfCounters+2936(%rip)
	movb	$1, keepInputFiles(%rip)
	incl	EdgeProfCounters+3020(%rip)
	jmp	.LBB10_91
.LBB10_78:                              # %sw.bb118
                                        #   in Loop: Header=BB10_58 Depth=2
	incl	EdgeProfCounters+2944(%rip)
	movb	$0, noisy(%rip)
	incl	EdgeProfCounters+3028(%rip)
	jmp	.LBB10_91
.LBB10_77:                              # %sw.bb117
                                        #   in Loop: Header=BB10_58 Depth=2
	incl	EdgeProfCounters+2940(%rip)
	movb	$1, smallMode(%rip)
	incl	EdgeProfCounters+3024(%rip)
	jmp	.LBB10_91
.LBB10_75:                              # %sw.bb115
                                        #   in Loop: Header=BB10_58 Depth=2
	incl	EdgeProfCounters+2932(%rip)
	movl	$3, opMode(%rip)
	incl	EdgeProfCounters+3016(%rip)
	jmp	.LBB10_91
.LBB10_88:                              # %sw.bb129
                                        #   in Loop: Header=BB10_58 Depth=2
	incl	EdgeProfCounters+2992(%rip)
	incl	verbosity(%rip)
	incl	EdgeProfCounters+3072(%rip)
	jmp	.LBB10_91
.LBB10_73:                              # %sw.bb113
                                        #   in Loop: Header=BB10_58 Depth=2
	incl	EdgeProfCounters+2924(%rip)
	movl	$1, opMode(%rip)
	incl	EdgeProfCounters+3008(%rip)
	jmp	.LBB10_91
	.align	16, 0x90
.LBB10_54:                              # %if.end87.if.end137_crit_edge
                                        #   in Loop: Header=BB10_44 Depth=1
	incl	EdgeProfCounters+2888(%rip)
	jmp	.LBB10_93
	.align	16, 0x90
.LBB10_56:                              # %land.lhs.true93.if.end137_crit_edge
                                        #   in Loop: Header=BB10_44 Depth=1
	incl	EdgeProfCounters+2896(%rip)
	jmp	.LBB10_93
.LBB10_92:                              # %for.end136
                                        #   in Loop: Header=BB10_44 Depth=1
	incl	EdgeProfCounters+2908(%rip)
	incl	EdgeProfCounters+3092(%rip)
	jmp	.LBB10_93
.LBB10_45:                              # %for.cond78.for.end140_crit_edge
	incl	EdgeProfCounters+2868(%rip)
	jmp	.LBB10_46
.LBB10_52:                              # %if.then86
	incl	EdgeProfCounters+2872(%rip)
	incl	EdgeProfCounters+2880(%rip)
.LBB10_46:                              # %for.end140
	movq	24(%rsp), %rax
	movq	%rax, 16(%rsp)
	incl	EdgeProfCounters+3104(%rip)
	jmp	.LBB10_47
	.align	16, 0x90
.LBB10_150:                             # %for.inc281
                                        #   in Loop: Header=BB10_47 Depth=1
	incl	EdgeProfCounters+3412(%rip)
	movq	16(%rsp), %rax
	movq	8(%rax), %rax
	movq	%rax, 16(%rsp)
	incl	EdgeProfCounters+3416(%rip)
.LBB10_47:                              # %for.cond141
                                        # =>This Inner Loop Header: Depth=1
	cmpq	$0, 16(%rsp)
	je	.LBB10_48
# BB#94:                                # %for.body144
                                        #   in Loop: Header=BB10_47 Depth=1
	incl	EdgeProfCounters+3108(%rip)
	movq	16(%rsp), %rax
	movq	(%rax), %rdi
	movl	$.L.str918, %esi
	callq	strcmp
	testl	%eax, %eax
	je	.LBB10_95
# BB#96:                                # %if.end150
                                        #   in Loop: Header=BB10_47 Depth=1
	incl	EdgeProfCounters+3120(%rip)
	movq	16(%rsp), %rax
	movq	(%rax), %rdi
	movl	$.L.str17, %esi
	callq	strcmp
	testl	%eax, %eax
	jne	.LBB10_98
# BB#97:                                # %if.then155
                                        #   in Loop: Header=BB10_47 Depth=1
	incl	EdgeProfCounters+3128(%rip)
	movl	$2, srcMode(%rip)
	incl	EdgeProfCounters+3136(%rip)
	jmp	.LBB10_150
	.align	16, 0x90
.LBB10_98:                              # %if.else156
                                        #   in Loop: Header=BB10_47 Depth=1
	incl	EdgeProfCounters+3132(%rip)
	movq	16(%rsp), %rax
	movq	(%rax), %rdi
	movl	$.L.str18, %esi
	callq	strcmp
	testl	%eax, %eax
	jne	.LBB10_100
# BB#99:                                # %if.then161
                                        #   in Loop: Header=BB10_47 Depth=1
	incl	EdgeProfCounters+3140(%rip)
	movl	$2, opMode(%rip)
	incl	EdgeProfCounters+3148(%rip)
	jmp	.LBB10_149
	.align	16, 0x90
.LBB10_100:                             # %if.else162
                                        #   in Loop: Header=BB10_47 Depth=1
	incl	EdgeProfCounters+3144(%rip)
	movq	16(%rsp), %rax
	movq	(%rax), %rdi
	movl	$.L.str19, %esi
	callq	strcmp
	testl	%eax, %eax
	jne	.LBB10_102
# BB#101:                               # %if.then167
                                        #   in Loop: Header=BB10_47 Depth=1
	incl	EdgeProfCounters+3152(%rip)
	movl	$1, opMode(%rip)
	incl	EdgeProfCounters+3160(%rip)
	jmp	.LBB10_148
.LBB10_102:                             # %if.else168
                                        #   in Loop: Header=BB10_47 Depth=1
	incl	EdgeProfCounters+3156(%rip)
	movq	16(%rsp), %rax
	movq	(%rax), %rdi
	movl	$.L.str20, %esi
	callq	strcmp
	testl	%eax, %eax
	jne	.LBB10_104
# BB#103:                               # %if.then173
                                        #   in Loop: Header=BB10_47 Depth=1
	incl	EdgeProfCounters+3164(%rip)
	movb	$1, forceOverwrite(%rip)
	incl	EdgeProfCounters+3172(%rip)
	jmp	.LBB10_147
.LBB10_104:                             # %if.else174
                                        #   in Loop: Header=BB10_47 Depth=1
	incl	EdgeProfCounters+3168(%rip)
	movq	16(%rsp), %rax
	movq	(%rax), %rdi
	movl	$.L.str21, %esi
	callq	strcmp
	testl	%eax, %eax
	jne	.LBB10_106
# BB#105:                               # %if.then179
                                        #   in Loop: Header=BB10_47 Depth=1
	incl	EdgeProfCounters+3176(%rip)
	movl	$3, opMode(%rip)
	incl	EdgeProfCounters+3184(%rip)
	jmp	.LBB10_146
.LBB10_106:                             # %if.else180
                                        #   in Loop: Header=BB10_47 Depth=1
	incl	EdgeProfCounters+3180(%rip)
	movq	16(%rsp), %rax
	movq	(%rax), %rdi
	movl	$.L.str22, %esi
	callq	strcmp
	testl	%eax, %eax
	jne	.LBB10_108
# BB#107:                               # %if.then185
                                        #   in Loop: Header=BB10_47 Depth=1
	incl	EdgeProfCounters+3188(%rip)
	movb	$1, keepInputFiles(%rip)
	incl	EdgeProfCounters+3196(%rip)
	jmp	.LBB10_145
.LBB10_108:                             # %if.else186
                                        #   in Loop: Header=BB10_47 Depth=1
	incl	EdgeProfCounters+3192(%rip)
	movq	16(%rsp), %rax
	movq	(%rax), %rdi
	movl	$.L.str23, %esi
	callq	strcmp
	testl	%eax, %eax
	jne	.LBB10_110
# BB#109:                               # %if.then191
                                        #   in Loop: Header=BB10_47 Depth=1
	incl	EdgeProfCounters+3200(%rip)
	movb	$1, smallMode(%rip)
	incl	EdgeProfCounters+3208(%rip)
	jmp	.LBB10_144
.LBB10_110:                             # %if.else192
                                        #   in Loop: Header=BB10_47 Depth=1
	incl	EdgeProfCounters+3204(%rip)
	movq	16(%rsp), %rax
	movq	(%rax), %rdi
	movl	$.L.str24, %esi
	callq	strcmp
	testl	%eax, %eax
	jne	.LBB10_112
# BB#111:                               # %if.then197
                                        #   in Loop: Header=BB10_47 Depth=1
	incl	EdgeProfCounters+3212(%rip)
	movb	$0, noisy(%rip)
	incl	EdgeProfCounters+3220(%rip)
	jmp	.LBB10_143
.LBB10_112:                             # %if.else198
                                        #   in Loop: Header=BB10_47 Depth=1
	incl	EdgeProfCounters+3216(%rip)
	movq	16(%rsp), %rax
	movq	(%rax), %rdi
	movl	$.L.str25, %esi
	callq	strcmp
	testl	%eax, %eax
	jne	.LBB10_114
# BB#113:                               # %if.then203
                                        #   in Loop: Header=BB10_47 Depth=1
	incl	EdgeProfCounters+3224(%rip)
	callq	license
	incl	EdgeProfCounters+3232(%rip)
	jmp	.LBB10_142
.LBB10_114:                             # %if.else204
                                        #   in Loop: Header=BB10_47 Depth=1
	incl	EdgeProfCounters+3228(%rip)
	movq	16(%rsp), %rax
	movq	(%rax), %rdi
	movl	$.L.str26, %esi
	callq	strcmp
	testl	%eax, %eax
	jne	.LBB10_116
# BB#115:                               # %if.then209
                                        #   in Loop: Header=BB10_47 Depth=1
	incl	EdgeProfCounters+3236(%rip)
	callq	license
	incl	EdgeProfCounters+3244(%rip)
	jmp	.LBB10_141
.LBB10_116:                             # %if.else210
                                        #   in Loop: Header=BB10_47 Depth=1
	incl	EdgeProfCounters+3240(%rip)
	movq	16(%rsp), %rax
	movq	(%rax), %rdi
	movl	$.L.str27, %esi
	callq	strcmp
	testl	%eax, %eax
	jne	.LBB10_118
# BB#117:                               # %if.then215
                                        #   in Loop: Header=BB10_47 Depth=1
	incl	EdgeProfCounters+3248(%rip)
	movl	$1, workFactor(%rip)
	incl	EdgeProfCounters+3256(%rip)
	jmp	.LBB10_140
.LBB10_118:                             # %if.else216
                                        #   in Loop: Header=BB10_47 Depth=1
	incl	EdgeProfCounters+3252(%rip)
	movq	16(%rsp), %rax
	movq	(%rax), %rdi
	movl	$.L.str28, %esi
	callq	strcmp
	testl	%eax, %eax
	jne	.LBB10_120
# BB#119:                               # %if.then221
                                        #   in Loop: Header=BB10_47 Depth=1
	incl	EdgeProfCounters+3260(%rip)
	movq	16(%rsp), %rax
	movq	(%rax), %rdi
	callq	redundant
	incl	EdgeProfCounters+3268(%rip)
	jmp	.LBB10_139
.LBB10_120:                             # %if.else223
                                        #   in Loop: Header=BB10_47 Depth=1
	incl	EdgeProfCounters+3264(%rip)
	movq	16(%rsp), %rax
	movq	(%rax), %rdi
	movl	$.L.str29, %esi
	callq	strcmp
	testl	%eax, %eax
	jne	.LBB10_122
# BB#121:                               # %if.then228
                                        #   in Loop: Header=BB10_47 Depth=1
	incl	EdgeProfCounters+3272(%rip)
	movq	16(%rsp), %rax
	movq	(%rax), %rdi
	callq	redundant
	incl	EdgeProfCounters+3280(%rip)
	jmp	.LBB10_138
.LBB10_122:                             # %if.else230
                                        #   in Loop: Header=BB10_47 Depth=1
	incl	EdgeProfCounters+3276(%rip)
	movq	16(%rsp), %rax
	movq	(%rax), %rdi
	movl	$.L.str30, %esi
	callq	strcmp
	testl	%eax, %eax
	jne	.LBB10_124
# BB#123:                               # %if.then235
                                        #   in Loop: Header=BB10_47 Depth=1
	incl	EdgeProfCounters+3284(%rip)
	movl	$1, blockSize100k(%rip)
	incl	EdgeProfCounters+3292(%rip)
	jmp	.LBB10_137
.LBB10_124:                             # %if.else236
                                        #   in Loop: Header=BB10_47 Depth=1
	incl	EdgeProfCounters+3288(%rip)
	movq	16(%rsp), %rax
	movq	(%rax), %rdi
	movl	$.L.str31, %esi
	callq	strcmp
	testl	%eax, %eax
	jne	.LBB10_126
# BB#125:                               # %if.then241
                                        #   in Loop: Header=BB10_47 Depth=1
	incl	EdgeProfCounters+3296(%rip)
	movl	$9, blockSize100k(%rip)
	incl	EdgeProfCounters+3304(%rip)
	jmp	.LBB10_136
.LBB10_126:                             # %if.else242
                                        #   in Loop: Header=BB10_47 Depth=1
	incl	EdgeProfCounters+3300(%rip)
	movq	16(%rsp), %rax
	movq	(%rax), %rdi
	movl	$.L.str32, %esi
	callq	strcmp
	testl	%eax, %eax
	jne	.LBB10_128
# BB#127:                               # %if.then247
                                        #   in Loop: Header=BB10_47 Depth=1
	incl	EdgeProfCounters+3308(%rip)
	incl	verbosity(%rip)
	incl	EdgeProfCounters+3316(%rip)
	jmp	.LBB10_135
.LBB10_128:                             # %if.else249
                                        #   in Loop: Header=BB10_47 Depth=1
	incl	EdgeProfCounters+3312(%rip)
	movq	16(%rsp), %rax
	movq	(%rax), %rdi
	movl	$.L.str33, %esi
	callq	strcmp
	testl	%eax, %eax
	jne	.LBB10_130
# BB#129:                               # %if.then254
                                        #   in Loop: Header=BB10_47 Depth=1
	incl	EdgeProfCounters+3320(%rip)
	movq	progName(%rip), %rdi
	callq	usage
	xorl	%edi, %edi
	callq	exit
	incl	EdgeProfCounters+3328(%rip)
	jmp	.LBB10_134
.LBB10_130:                             # %if.else255
                                        #   in Loop: Header=BB10_47 Depth=1
	incl	EdgeProfCounters+3324(%rip)
	movq	16(%rsp), %rax
	movq	(%rax), %rdi
	movl	$.L.str918, %esi
	movl	$2, %edx
	callq	strncmp
	testl	%eax, %eax
	jne	.LBB10_131
# BB#132:                               # %if.then260
                                        #   in Loop: Header=BB10_47 Depth=1
	incl	EdgeProfCounters+3332(%rip)
	movq	16(%rsp), %rax
	movq	(%rax), %rcx
	movq	progName(%rip), %rdx
	movq	stderr(%rip), %rdi
	movl	$.L.str16, %esi
	xorb	%al, %al
	callq	fprintf
	movq	progName(%rip), %rdi
	callq	usage
	movl	$1, %edi
	callq	exit
	incl	EdgeProfCounters+3340(%rip)
	jmp	.LBB10_133
.LBB10_131:                             # %if.else255.if.end263_crit_edge
                                        #   in Loop: Header=BB10_47 Depth=1
	incl	EdgeProfCounters+3336(%rip)
.LBB10_133:                             # %if.end263
                                        #   in Loop: Header=BB10_47 Depth=1
	incl	EdgeProfCounters+3344(%rip)
.LBB10_134:                             # %if.end264
                                        #   in Loop: Header=BB10_47 Depth=1
	incl	EdgeProfCounters+3348(%rip)
.LBB10_135:                             # %if.end265
                                        #   in Loop: Header=BB10_47 Depth=1
	incl	EdgeProfCounters+3352(%rip)
.LBB10_136:                             # %if.end266
                                        #   in Loop: Header=BB10_47 Depth=1
	incl	EdgeProfCounters+3356(%rip)
.LBB10_137:                             # %if.end267
                                        #   in Loop: Header=BB10_47 Depth=1
	incl	EdgeProfCounters+3360(%rip)
.LBB10_138:                             # %if.end268
                                        #   in Loop: Header=BB10_47 Depth=1
	incl	EdgeProfCounters+3364(%rip)
.LBB10_139:                             # %if.end269
                                        #   in Loop: Header=BB10_47 Depth=1
	incl	EdgeProfCounters+3368(%rip)
.LBB10_140:                             # %if.end270
                                        #   in Loop: Header=BB10_47 Depth=1
	incl	EdgeProfCounters+3372(%rip)
.LBB10_141:                             # %if.end271
                                        #   in Loop: Header=BB10_47 Depth=1
	incl	EdgeProfCounters+3376(%rip)
.LBB10_142:                             # %if.end272
                                        #   in Loop: Header=BB10_47 Depth=1
	incl	EdgeProfCounters+3380(%rip)
.LBB10_143:                             # %if.end273
                                        #   in Loop: Header=BB10_47 Depth=1
	incl	EdgeProfCounters+3384(%rip)
.LBB10_144:                             # %if.end274
                                        #   in Loop: Header=BB10_47 Depth=1
	incl	EdgeProfCounters+3388(%rip)
.LBB10_145:                             # %if.end275
                                        #   in Loop: Header=BB10_47 Depth=1
	incl	EdgeProfCounters+3392(%rip)
.LBB10_146:                             # %if.end276
                                        #   in Loop: Header=BB10_47 Depth=1
	incl	EdgeProfCounters+3396(%rip)
.LBB10_147:                             # %if.end277
                                        #   in Loop: Header=BB10_47 Depth=1
	incl	EdgeProfCounters+3400(%rip)
.LBB10_148:                             # %if.end278
                                        #   in Loop: Header=BB10_47 Depth=1
	incl	EdgeProfCounters+3404(%rip)
.LBB10_149:                             # %if.end279
                                        #   in Loop: Header=BB10_47 Depth=1
	incl	EdgeProfCounters+3408(%rip)
	jmp	.LBB10_150
.LBB10_48:                              # %for.cond141.for.end283_crit_edge
	incl	EdgeProfCounters+3112(%rip)
	jmp	.LBB10_49
.LBB10_95:                              # %if.then149
	incl	EdgeProfCounters+3116(%rip)
	incl	EdgeProfCounters+3124(%rip)
.LBB10_49:                              # %for.end283
	cmpl	$4, verbosity(%rip)
	jle	.LBB10_50
# BB#151:                               # %if.then286
	incl	EdgeProfCounters+3420(%rip)
	movl	$4, verbosity(%rip)
	incl	EdgeProfCounters+3428(%rip)
	jmp	.LBB10_152
.LBB10_50:                              # %for.end283.if.end287_crit_edge
	incl	EdgeProfCounters+3424(%rip)
.LBB10_152:                             # %if.end287
	cmpl	$1, opMode(%rip)
	jne	.LBB10_153
# BB#154:                               # %land.lhs.true290
	incl	EdgeProfCounters+3432(%rip)
	cmpb	$0, smallMode(%rip)
	je	.LBB10_155
# BB#156:                               # %land.lhs.true293
	incl	EdgeProfCounters+3440(%rip)
	cmpl	$2, blockSize100k(%rip)
	jle	.LBB10_157
# BB#158:                               # %if.then296
	incl	EdgeProfCounters+3448(%rip)
	movl	$2, blockSize100k(%rip)
	incl	EdgeProfCounters+3456(%rip)
	jmp	.LBB10_159
.LBB10_153:                             # %if.end287.if.end297_crit_edge
	incl	EdgeProfCounters+3436(%rip)
	jmp	.LBB10_159
.LBB10_155:                             # %land.lhs.true290.if.end297_crit_edge
	incl	EdgeProfCounters+3444(%rip)
	jmp	.LBB10_159
.LBB10_157:                             # %land.lhs.true293.if.end297_crit_edge
	incl	EdgeProfCounters+3452(%rip)
.LBB10_159:                             # %if.end297
	cmpl	$3, opMode(%rip)
	jne	.LBB10_160
# BB#161:                               # %land.lhs.true300
	incl	EdgeProfCounters+3460(%rip)
	cmpl	$2, srcMode(%rip)
	jne	.LBB10_162
# BB#163:                               # %if.then303
	incl	EdgeProfCounters+3468(%rip)
	movq	progName(%rip), %rdx
	movq	stderr(%rip), %rdi
	movl	$.L.str34, %esi
	xorb	%al, %al
	callq	fprintf
	movl	$1, %edi
	callq	exit
	incl	EdgeProfCounters+3476(%rip)
	jmp	.LBB10_164
.LBB10_160:                             # %if.end297.if.end305_crit_edge
	incl	EdgeProfCounters+3464(%rip)
	jmp	.LBB10_164
.LBB10_162:                             # %land.lhs.true300.if.end305_crit_edge
	incl	EdgeProfCounters+3472(%rip)
.LBB10_164:                             # %if.end305
	cmpl	$2, srcMode(%rip)
	jne	.LBB10_165
# BB#166:                               # %land.lhs.true308
	incl	EdgeProfCounters+3480(%rip)
	cmpl	$0, numFileNames(%rip)
	je	.LBB10_168
# BB#167:                               # %land.lhs.true308.if.end312_crit_edge
	incl	EdgeProfCounters+3492(%rip)
	jmp	.LBB10_169
.LBB10_165:                             # %if.end305.if.end312_crit_edge
	incl	EdgeProfCounters+3484(%rip)
	jmp	.LBB10_169
.LBB10_168:                             # %if.then311
	incl	EdgeProfCounters+3488(%rip)
	movl	$1, srcMode(%rip)
	incl	EdgeProfCounters+3496(%rip)
.LBB10_169:                             # %if.end312
	cmpl	$1, opMode(%rip)
	je	.LBB10_170
# BB#171:                               # %if.then315
	incl	EdgeProfCounters+3500(%rip)
	movl	$0, blockSize100k(%rip)
	incl	EdgeProfCounters+3508(%rip)
	jmp	.LBB10_172
.LBB10_170:                             # %if.end312.if.end316_crit_edge
	incl	EdgeProfCounters+3504(%rip)
.LBB10_172:                             # %if.end316
	cmpl	$3, srcMode(%rip)
	jne	.LBB10_173
# BB#174:                               # %if.then319
	incl	EdgeProfCounters+3512(%rip)
	movl	$2, %edi
	movl	$mySignalCatcher, %esi
	callq	signal
	movl	$15, %edi
	movl	$mySignalCatcher, %esi
	callq	signal
	movl	$1, %edi
	movl	$mySignalCatcher, %esi
	callq	signal
	incl	EdgeProfCounters+3520(%rip)
	jmp	.LBB10_175
.LBB10_173:                             # %if.end316.if.end323_crit_edge
	incl	EdgeProfCounters+3516(%rip)
.LBB10_175:                             # %if.end323
	cmpl	$1, opMode(%rip)
	jne	.LBB10_189
# BB#176:                               # %if.then326
	incl	EdgeProfCounters+3524(%rip)
	cmpl	$1, srcMode(%rip)
	jne	.LBB10_178
# BB#177:                               # %if.then329
	incl	EdgeProfCounters+3532(%rip)
	xorl	%edi, %edi
	callq	compress
	incl	EdgeProfCounters+3540(%rip)
	incl	EdgeProfCounters+3600(%rip)
	jmp	.LBB10_226
.LBB10_189:                             # %if.else357
	incl	EdgeProfCounters+3528(%rip)
	cmpl	$2, opMode(%rip)
	jne	.LBB10_206
# BB#190:                               # %if.then360
	incl	EdgeProfCounters+3604(%rip)
	movb	$0, unzFailsExist(%rip)
	cmpl	$1, srcMode(%rip)
	jne	.LBB10_192
# BB#191:                               # %if.then363
	incl	EdgeProfCounters+3612(%rip)
	xorl	%edi, %edi
	callq	uncompress
	incl	EdgeProfCounters+3620(%rip)
	jmp	.LBB10_203
.LBB10_178:                             # %if.else330
	incl	EdgeProfCounters+3536(%rip)
	movb	$1, 15(%rsp)
	movq	24(%rsp), %rax
	movq	%rax, 16(%rsp)
	incl	EdgeProfCounters+3544(%rip)
	jmp	.LBB10_179
	.align	16, 0x90
.LBB10_187:                             # %for.inc353
                                        #   in Loop: Header=BB10_179 Depth=1
	movq	16(%rsp), %rax
	movq	8(%rax), %rax
	movq	%rax, 16(%rsp)
	incl	EdgeProfCounters+3592(%rip)
.LBB10_179:                             # %for.cond331
                                        # =>This Inner Loop Header: Depth=1
	cmpq	$0, 16(%rsp)
	je	.LBB10_188
# BB#180:                               # %for.body334
                                        #   in Loop: Header=BB10_179 Depth=1
	incl	EdgeProfCounters+3548(%rip)
	movq	16(%rsp), %rax
	movq	(%rax), %rdi
	movl	$.L.str918, %esi
	callq	strcmp
	testl	%eax, %eax
	jne	.LBB10_182
# BB#181:                               # %if.then339
                                        #   in Loop: Header=BB10_179 Depth=1
	incl	EdgeProfCounters+3556(%rip)
	movb	$0, 15(%rsp)
	incl	EdgeProfCounters+3564(%rip)
	jmp	.LBB10_187
	.align	16, 0x90
.LBB10_182:                             # %if.end340
                                        #   in Loop: Header=BB10_179 Depth=1
	incl	EdgeProfCounters+3560(%rip)
	movq	16(%rsp), %rax
	movq	(%rax), %rax
	movsbl	(%rax), %eax
	cmpl	$45, %eax
	jne	.LBB10_183
# BB#184:                               # %land.lhs.true346
                                        #   in Loop: Header=BB10_179 Depth=1
	incl	EdgeProfCounters+3568(%rip)
	cmpb	$0, 15(%rsp)
	je	.LBB10_185
# BB#234:                               # %if.then349
                                        #   in Loop: Header=BB10_179 Depth=1
	incl	EdgeProfCounters+3576(%rip)
	incl	EdgeProfCounters+3584(%rip)
	jmp	.LBB10_187
	.align	16, 0x90
.LBB10_183:                             # %if.end340.if.end350_crit_edge
                                        #   in Loop: Header=BB10_179 Depth=1
	incl	EdgeProfCounters+3572(%rip)
	jmp	.LBB10_186
.LBB10_185:                             # %land.lhs.true346.if.end350_crit_edge
                                        #   in Loop: Header=BB10_179 Depth=1
	incl	EdgeProfCounters+3580(%rip)
.LBB10_186:                             # %if.end350
                                        #   in Loop: Header=BB10_179 Depth=1
	incl	numFilesProcessed(%rip)
	movq	16(%rsp), %rax
	movq	(%rax), %rdi
	callq	compress
	incl	EdgeProfCounters+3588(%rip)
	jmp	.LBB10_187
.LBB10_206:                             # %if.else394
	incl	EdgeProfCounters+3608(%rip)
	movb	$0, testFailsExist(%rip)
	cmpl	$1, srcMode(%rip)
	jne	.LBB10_208
# BB#207:                               # %if.then397
	incl	EdgeProfCounters+3696(%rip)
	xorl	%edi, %edi
	callq	testf
	incl	EdgeProfCounters+3704(%rip)
	jmp	.LBB10_219
.LBB10_188:                             # %for.end355
	incl	EdgeProfCounters+3552(%rip)
	incl	EdgeProfCounters+3596(%rip)
	incl	EdgeProfCounters+3600(%rip)
	jmp	.LBB10_226
.LBB10_192:                             # %if.else364
	incl	EdgeProfCounters+3616(%rip)
	movb	$1, 15(%rsp)
	movq	24(%rsp), %rax
	movq	%rax, 16(%rsp)
	incl	EdgeProfCounters+3624(%rip)
	jmp	.LBB10_193
	.align	16, 0x90
.LBB10_201:                             # %for.inc387
                                        #   in Loop: Header=BB10_193 Depth=1
	movq	16(%rsp), %rax
	movq	8(%rax), %rax
	movq	%rax, 16(%rsp)
	incl	EdgeProfCounters+3672(%rip)
.LBB10_193:                             # %for.cond365
                                        # =>This Inner Loop Header: Depth=1
	cmpq	$0, 16(%rsp)
	je	.LBB10_202
# BB#194:                               # %for.body368
                                        #   in Loop: Header=BB10_193 Depth=1
	incl	EdgeProfCounters+3628(%rip)
	movq	16(%rsp), %rax
	movq	(%rax), %rdi
	movl	$.L.str918, %esi
	callq	strcmp
	testl	%eax, %eax
	jne	.LBB10_196
# BB#195:                               # %if.then373
                                        #   in Loop: Header=BB10_193 Depth=1
	incl	EdgeProfCounters+3636(%rip)
	movb	$0, 15(%rsp)
	incl	EdgeProfCounters+3644(%rip)
	jmp	.LBB10_201
	.align	16, 0x90
.LBB10_196:                             # %if.end374
                                        #   in Loop: Header=BB10_193 Depth=1
	incl	EdgeProfCounters+3640(%rip)
	movq	16(%rsp), %rax
	movq	(%rax), %rax
	movsbl	(%rax), %eax
	cmpl	$45, %eax
	jne	.LBB10_197
# BB#198:                               # %land.lhs.true380
                                        #   in Loop: Header=BB10_193 Depth=1
	incl	EdgeProfCounters+3648(%rip)
	cmpb	$0, 15(%rsp)
	je	.LBB10_199
# BB#235:                               # %if.then383
                                        #   in Loop: Header=BB10_193 Depth=1
	incl	EdgeProfCounters+3656(%rip)
	incl	EdgeProfCounters+3664(%rip)
	jmp	.LBB10_201
	.align	16, 0x90
.LBB10_197:                             # %if.end374.if.end384_crit_edge
                                        #   in Loop: Header=BB10_193 Depth=1
	incl	EdgeProfCounters+3652(%rip)
	jmp	.LBB10_200
.LBB10_199:                             # %land.lhs.true380.if.end384_crit_edge
                                        #   in Loop: Header=BB10_193 Depth=1
	incl	EdgeProfCounters+3660(%rip)
.LBB10_200:                             # %if.end384
                                        #   in Loop: Header=BB10_193 Depth=1
	incl	numFilesProcessed(%rip)
	movq	16(%rsp), %rax
	movq	(%rax), %rdi
	callq	uncompress
	incl	EdgeProfCounters+3668(%rip)
	jmp	.LBB10_201
.LBB10_208:                             # %if.else398
	incl	EdgeProfCounters+3700(%rip)
	movb	$1, 15(%rsp)
	movq	24(%rsp), %rax
	movq	%rax, 16(%rsp)
	incl	EdgeProfCounters+3708(%rip)
	jmp	.LBB10_209
	.align	16, 0x90
.LBB10_217:                             # %for.inc421
                                        #   in Loop: Header=BB10_209 Depth=1
	movq	16(%rsp), %rax
	movq	8(%rax), %rax
	movq	%rax, 16(%rsp)
	incl	EdgeProfCounters+3756(%rip)
.LBB10_209:                             # %for.cond399
                                        # =>This Inner Loop Header: Depth=1
	cmpq	$0, 16(%rsp)
	je	.LBB10_218
# BB#210:                               # %for.body402
                                        #   in Loop: Header=BB10_209 Depth=1
	incl	EdgeProfCounters+3712(%rip)
	movq	16(%rsp), %rax
	movq	(%rax), %rdi
	movl	$.L.str918, %esi
	callq	strcmp
	testl	%eax, %eax
	jne	.LBB10_212
# BB#211:                               # %if.then407
                                        #   in Loop: Header=BB10_209 Depth=1
	incl	EdgeProfCounters+3720(%rip)
	movb	$0, 15(%rsp)
	incl	EdgeProfCounters+3728(%rip)
	jmp	.LBB10_217
	.align	16, 0x90
.LBB10_212:                             # %if.end408
                                        #   in Loop: Header=BB10_209 Depth=1
	incl	EdgeProfCounters+3724(%rip)
	movq	16(%rsp), %rax
	movq	(%rax), %rax
	movsbl	(%rax), %eax
	cmpl	$45, %eax
	jne	.LBB10_213
# BB#214:                               # %land.lhs.true414
                                        #   in Loop: Header=BB10_209 Depth=1
	incl	EdgeProfCounters+3732(%rip)
	cmpb	$0, 15(%rsp)
	je	.LBB10_215
# BB#236:                               # %if.then417
                                        #   in Loop: Header=BB10_209 Depth=1
	incl	EdgeProfCounters+3740(%rip)
	incl	EdgeProfCounters+3748(%rip)
	jmp	.LBB10_217
	.align	16, 0x90
.LBB10_213:                             # %if.end408.if.end418_crit_edge
                                        #   in Loop: Header=BB10_209 Depth=1
	incl	EdgeProfCounters+3736(%rip)
	jmp	.LBB10_216
.LBB10_215:                             # %land.lhs.true414.if.end418_crit_edge
                                        #   in Loop: Header=BB10_209 Depth=1
	incl	EdgeProfCounters+3744(%rip)
.LBB10_216:                             # %if.end418
                                        #   in Loop: Header=BB10_209 Depth=1
	incl	numFilesProcessed(%rip)
	movq	16(%rsp), %rax
	movq	(%rax), %rdi
	callq	testf
	incl	EdgeProfCounters+3752(%rip)
	jmp	.LBB10_217
.LBB10_202:                             # %for.end389
	incl	EdgeProfCounters+3632(%rip)
	incl	EdgeProfCounters+3676(%rip)
.LBB10_203:                             # %if.end390
	cmpb	$0, unzFailsExist(%rip)
	je	.LBB10_204
# BB#205:                               # %if.then392
	incl	EdgeProfCounters+3680(%rip)
	movl	$2, %edi
	callq	setExit
	movl	exitValue(%rip), %edi
	callq	exit
	incl	EdgeProfCounters+3688(%rip)
	incl	EdgeProfCounters+3692(%rip)
	jmp	.LBB10_225
.LBB10_218:                             # %for.end423
	incl	EdgeProfCounters+3716(%rip)
	incl	EdgeProfCounters+3760(%rip)
.LBB10_219:                             # %if.end424
	cmpb	$0, testFailsExist(%rip)
	je	.LBB10_220
# BB#221:                               # %land.lhs.true427
	incl	EdgeProfCounters+3764(%rip)
	cmpb	$0, noisy(%rip)
	je	.LBB10_222
# BB#223:                               # %if.then430
	incl	EdgeProfCounters+3772(%rip)
	movq	stderr(%rip), %rdi
	movl	$.L.str35, %esi
	xorb	%al, %al
	callq	fprintf
	movl	$2, %edi
	callq	setExit
	movl	exitValue(%rip), %edi
	callq	exit
	incl	EdgeProfCounters+3780(%rip)
	jmp	.LBB10_224
.LBB10_204:                             # %if.end390.if.end393_crit_edge
	incl	EdgeProfCounters+3684(%rip)
	incl	EdgeProfCounters+3692(%rip)
	jmp	.LBB10_225
.LBB10_220:                             # %if.end424.if.end432_crit_edge
	incl	EdgeProfCounters+3768(%rip)
	jmp	.LBB10_224
.LBB10_222:                             # %land.lhs.true427.if.end432_crit_edge
	incl	EdgeProfCounters+3776(%rip)
.LBB10_224:                             # %if.end432
	incl	EdgeProfCounters+3784(%rip)
.LBB10_225:                             # %if.end433
	incl	EdgeProfCounters+3788(%rip)
.LBB10_226:                             # %if.end434
	movq	24(%rsp), %rax
	movq	%rax, 16(%rsp)
	incl	EdgeProfCounters+3792(%rip)
	jmp	.LBB10_227
	.align	16, 0x90
.LBB10_231:                             # %if.end444
                                        #   in Loop: Header=BB10_227 Depth=1
	movq	16(%rsp), %rdi
	callq	free
	movq	(%rsp), %rax
	movq	%rax, 16(%rsp)
	incl	EdgeProfCounters+3816(%rip)
.LBB10_227:                             # %while.cond
                                        # =>This Inner Loop Header: Depth=1
	cmpq	$0, 16(%rsp)
	je	.LBB10_232
# BB#228:                               # %while.body
                                        #   in Loop: Header=BB10_227 Depth=1
	incl	EdgeProfCounters+3796(%rip)
	movq	16(%rsp), %rax
	movq	8(%rax), %rax
	movq	%rax, (%rsp)
	movq	16(%rsp), %rax
	cmpq	$0, (%rax)
	je	.LBB10_229
# BB#230:                               # %if.then442
                                        #   in Loop: Header=BB10_227 Depth=1
	incl	EdgeProfCounters+3804(%rip)
	movq	16(%rsp), %rax
	movq	(%rax), %rdi
	callq	free
	incl	EdgeProfCounters+3812(%rip)
	jmp	.LBB10_231
	.align	16, 0x90
.LBB10_229:                             # %while.body.if.end444_crit_edge
                                        #   in Loop: Header=BB10_227 Depth=1
	incl	EdgeProfCounters+3808(%rip)
	jmp	.LBB10_231
.LBB10_232:                             # %while.end
	incl	EdgeProfCounters+3800(%rip)
	movl	exitValue(%rip), %eax
	addq	$64, %rsp
	popq	%rbx
	ret
.LBB10_38:                              # %lor.lhs.false70.if.end77_crit_edge
	incl	EdgeProfCounters+2852(%rip)
	jmp	.LBB10_43
.Ltmp38:
	.size	main, .Ltmp38-main
	.cfi_endproc
	.section	.rodata,"a",@progbits
	.align	8
.LJTI10_0:
	.quad	.LBB10_71
	.quad	.LBB10_72
	.quad	.LBB10_90
	.quad	.LBB10_74
	.quad	.LBB10_90
	.quad	.LBB10_89
	.quad	.LBB10_90
	.quad	.LBB10_90
	.quad	.LBB10_76
	.quad	.LBB10_90
	.quad	.LBB10_90
	.quad	.LBB10_90
	.quad	.LBB10_90
	.quad	.LBB10_90
	.quad	.LBB10_78
	.quad	.LBB10_90
	.quad	.LBB10_77
	.quad	.LBB10_75
	.quad	.LBB10_90
	.quad	.LBB10_88
	.quad	.LBB10_90
	.quad	.LBB10_90
	.quad	.LBB10_90
	.quad	.LBB10_73
.LJTI10_1:
	.quad	.LBB10_79
	.quad	.LBB10_80
	.quad	.LBB10_81
	.quad	.LBB10_82
	.quad	.LBB10_83
	.quad	.LBB10_84
	.quad	.LBB10_85
	.quad	.LBB10_86
	.quad	.LBB10_87

	.text
	.align	16, 0x90
	.type	mySIGSEGVorSIGBUScatcher,@function
mySIGSEGVorSIGBUScatcher:               # @mySIGSEGVorSIGBUScatcher
	.cfi_startproc
# BB#0:                                 # %entry
	pushq	%rax
.Ltmp40:
	.cfi_def_cfa_offset 16
	incl	EdgeProfCounters+3820(%rip)
	movl	%edi, 4(%rsp)
	cmpl	$1, opMode(%rip)
	jne	.LBB11_2
# BB#1:                                 # %if.then
	incl	EdgeProfCounters+3824(%rip)
	movq	progName(%rip), %rdx
	movq	stderr(%rip), %rdi
	movl	$.L.str106, %esi
	xorb	%al, %al
	callq	fprintf
	incl	EdgeProfCounters+3832(%rip)
	jmp	.LBB11_3
.LBB11_2:                               # %if.else
	incl	EdgeProfCounters+3828(%rip)
	movq	progName(%rip), %rdx
	movq	stderr(%rip), %rdi
	movl	$.L.str107, %esi
	xorb	%al, %al
	callq	fprintf
	incl	EdgeProfCounters+3836(%rip)
.LBB11_3:                               # %if.end
	callq	showFileNames
	cmpl	$1, opMode(%rip)
	jne	.LBB11_5
# BB#4:                                 # %if.then3
	incl	EdgeProfCounters+3840(%rip)
	movl	$3, %edi
	callq	cleanUpAndFail
	incl	EdgeProfCounters+3848(%rip)
	popq	%rax
	ret
.LBB11_5:                               # %if.else4
	incl	EdgeProfCounters+3844(%rip)
	callq	cadvise
	movl	$2, %edi
	callq	cleanUpAndFail
	incl	EdgeProfCounters+3852(%rip)
	popq	%rax
	ret
.Ltmp41:
	.size	mySIGSEGVorSIGBUScatcher, .Ltmp41-mySIGSEGVorSIGBUScatcher
	.cfi_endproc

	.align	16, 0x90
	.type	copyFileName,@function
copyFileName:                           # @copyFileName
	.cfi_startproc
# BB#0:                                 # %entry
	subq	$24, %rsp
.Ltmp43:
	.cfi_def_cfa_offset 32
	incl	EdgeProfCounters+3856(%rip)
	movq	%rdi, 16(%rsp)
	movq	%rsi, 8(%rsp)
	movq	%rsi, %rdi
	callq	strlen
	cmpq	$1024, %rax             # imm = 0x400
	jbe	.LBB12_1
# BB#2:                                 # %if.then
	incl	EdgeProfCounters+3860(%rip)
	movq	8(%rsp), %rdx
	movq	stderr(%rip), %rdi
	movl	$.L.str105, %esi
	movl	$1024, %ecx             # imm = 0x400
	xorb	%al, %al
	callq	fprintf
	movl	$1, %edi
	callq	setExit
	movl	exitValue(%rip), %edi
	callq	exit
	incl	EdgeProfCounters+3868(%rip)
	jmp	.LBB12_3
.LBB12_1:                               # %entry.if.end_crit_edge
	incl	EdgeProfCounters+3864(%rip)
.LBB12_3:                               # %if.end
	movq	8(%rsp), %rsi
	movq	16(%rsp), %rdi
	movl	$1024, %edx             # imm = 0x400
	callq	strncpy
	movq	16(%rsp), %rax
	movb	$0, 1024(%rax)
	addq	$24, %rsp
	ret
.Ltmp44:
	.size	copyFileName, .Ltmp44-copyFileName
	.cfi_endproc

	.align	16, 0x90
	.type	addFlagsFromEnvVar,@function
addFlagsFromEnvVar:                     # @addFlagsFromEnvVar
	.cfi_startproc
# BB#0:                                 # %entry
	pushq	%rbx
.Ltmp47:
	.cfi_def_cfa_offset 16
	subq	$48, %rsp
.Ltmp48:
	.cfi_def_cfa_offset 64
.Ltmp49:
	.cfi_offset %rbx, -16
	incl	EdgeProfCounters+3872(%rip)
	movq	%rdi, 40(%rsp)
	movq	%rsi, 32(%rsp)
	movq	%rsi, %rdi
	callq	getenv
	movq	%rax, 8(%rsp)
	testq	%rax, %rax
	je	.LBB13_1
# BB#2:                                 # %if.then
	incl	EdgeProfCounters+3876(%rip)
	movq	8(%rsp), %rax
	movq	%rax, (%rsp)
	movl	$0, 28(%rsp)
	incl	EdgeProfCounters+3884(%rip)
	jmp	.LBB13_3
	.align	16, 0x90
.LBB13_14:                              # %while.end28.if.end46_crit_edge
                                        #   in Loop: Header=BB13_3 Depth=1
	incl	EdgeProfCounters+3948(%rip)
	incl	EdgeProfCounters+3988(%rip)
.LBB13_3:                               # %while.body
                                        # =>This Loop Header: Depth=1
                                        #     Child Loop BB13_5 Depth 2
                                        #     Child Loop BB13_8 Depth 2
                                        #     Child Loop BB13_19 Depth 2
	movslq	28(%rsp), %rax
	movq	(%rsp), %rcx
	movsbl	(%rcx,%rax), %eax
	testl	%eax, %eax
	je	.LBB13_22
# BB#4:                                 # %if.end
                                        #   in Loop: Header=BB13_3 Depth=1
	incl	EdgeProfCounters+3892(%rip)
	movslq	28(%rsp), %rax
	addq	%rax, (%rsp)
	movl	$0, 28(%rsp)
	incl	EdgeProfCounters+3900(%rip)
	jmp	.LBB13_5
	.align	16, 0x90
.LBB13_6:                               # %while.body11
                                        #   in Loop: Header=BB13_5 Depth=2
	incl	EdgeProfCounters+3904(%rip)
	incq	(%rsp)
	incl	EdgeProfCounters+3912(%rip)
.LBB13_5:                               # %while.cond4
                                        #   Parent Loop BB13_3 Depth=1
                                        # =>  This Inner Loop Header: Depth=2
	movq	(%rsp), %rax
	movsbq	(%rax), %rbx
	callq	__ctype_b_loc
	movq	(%rax), %rax
	testb	$32, 1(%rax,%rbx,2)
	jne	.LBB13_6
# BB#7:                                 # %while.end
                                        #   in Loop: Header=BB13_3 Depth=1
	incl	EdgeProfCounters+3908(%rip)
	incl	EdgeProfCounters+3916(%rip)
	jmp	.LBB13_8
	.align	16, 0x90
.LBB13_12:                              # %while.body27
                                        #   in Loop: Header=BB13_8 Depth=2
	incl	EdgeProfCounters+3932(%rip)
	incl	28(%rsp)
	incl	EdgeProfCounters+3940(%rip)
.LBB13_8:                               # %while.cond12
                                        #   Parent Loop BB13_3 Depth=1
                                        # =>  This Inner Loop Header: Depth=2
	movslq	28(%rsp), %rax
	movq	(%rsp), %rcx
	movsbl	(%rcx,%rax), %eax
	testl	%eax, %eax
	je	.LBB13_9
# BB#10:                                # %land.rhs
                                        #   in Loop: Header=BB13_8 Depth=2
	incl	EdgeProfCounters+3920(%rip)
	movslq	28(%rsp), %rax
	movq	(%rsp), %rcx
	movsbq	(%rcx,%rax), %rbx
	callq	__ctype_b_loc
	movq	(%rax), %rax
	movzwl	(%rax,%rbx,2), %eax
	testb	$32, %ah
	sete	%al
	incl	EdgeProfCounters+3928(%rip)
	jmp	.LBB13_11
	.align	16, 0x90
.LBB13_9:                               # %while.cond12.land.end_crit_edge
                                        #   in Loop: Header=BB13_8 Depth=2
	incl	EdgeProfCounters+3924(%rip)
	xorb	%al, %al
.LBB13_11:                              # %land.end
                                        #   in Loop: Header=BB13_8 Depth=2
	cmpb	$1, %al
	je	.LBB13_12
# BB#13:                                # %while.end28
                                        #   in Loop: Header=BB13_3 Depth=1
	incl	EdgeProfCounters+3936(%rip)
	cmpl	$0, 28(%rsp)
	jle	.LBB13_14
# BB#15:                                # %if.then31
                                        #   in Loop: Header=BB13_3 Depth=1
	incl	EdgeProfCounters+3944(%rip)
	movl	28(%rsp), %eax
	movl	%eax, 20(%rsp)
	cmpl	$1024, %eax             # imm = 0x400
	jle	.LBB13_16
# BB#17:                                # %if.then34
                                        #   in Loop: Header=BB13_3 Depth=1
	incl	EdgeProfCounters+3952(%rip)
	movl	$1024, 20(%rsp)         # imm = 0x400
	incl	EdgeProfCounters+3960(%rip)
	jmp	.LBB13_18
	.align	16, 0x90
.LBB13_16:                              # %if.then31.if.end35_crit_edge
                                        #   in Loop: Header=BB13_3 Depth=1
	incl	EdgeProfCounters+3956(%rip)
.LBB13_18:                              # %if.end35
                                        #   in Loop: Header=BB13_3 Depth=1
	movl	$0, 24(%rsp)
	incl	EdgeProfCounters+3964(%rip)
	jmp	.LBB13_19
	.align	16, 0x90
.LBB13_20:                              # %for.inc
                                        #   in Loop: Header=BB13_19 Depth=2
	incl	EdgeProfCounters+3968(%rip)
	movslq	24(%rsp), %rax
	movq	(%rsp), %rcx
	movb	(%rcx,%rax), %cl
	movb	%cl, tmpName(%rax)
	incl	EdgeProfCounters+3976(%rip)
	incl	24(%rsp)
	incl	EdgeProfCounters+3980(%rip)
.LBB13_19:                              # %for.cond
                                        #   Parent Loop BB13_3 Depth=1
                                        # =>  This Inner Loop Header: Depth=2
	movl	24(%rsp), %eax
	cmpl	20(%rsp), %eax
	jl	.LBB13_20
# BB#21:                                # %for.end
                                        #   in Loop: Header=BB13_3 Depth=1
	incl	EdgeProfCounters+3972(%rip)
	movslq	20(%rsp), %rax
	movb	$0, tmpName(%rax)
	movq	40(%rsp), %rax
	movq	(%rax), %rdi
	movl	$tmpName, %esi
	callq	snocString
	movq	40(%rsp), %rcx
	movq	%rax, (%rcx)
	incl	EdgeProfCounters+3984(%rip)
	incl	EdgeProfCounters+3988(%rip)
	jmp	.LBB13_3
.LBB13_22:                              # %while.end47
	incl	EdgeProfCounters+3888(%rip)
	incl	EdgeProfCounters+3896(%rip)
	incl	EdgeProfCounters+3992(%rip)
	jmp	.LBB13_23
.LBB13_1:                               # %entry.if.end48_crit_edge
	incl	EdgeProfCounters+3880(%rip)
.LBB13_23:                              # %if.end48
	addq	$48, %rsp
	popq	%rbx
	ret
.Ltmp50:
	.size	addFlagsFromEnvVar, .Ltmp50-addFlagsFromEnvVar
	.cfi_endproc

	.align	16, 0x90
	.type	snocString,@function
snocString:                             # @snocString
	.cfi_startproc
# BB#0:                                 # %entry
	subq	$40, %rsp
.Ltmp52:
	.cfi_def_cfa_offset 48
	incl	EdgeProfCounters+3996(%rip)
	movq	%rdi, 24(%rsp)
	movq	%rsi, 16(%rsp)
	cmpq	$0, 24(%rsp)
	je	.LBB14_1
# BB#2:                                 # %if.else
	incl	EdgeProfCounters+4004(%rip)
	movq	24(%rsp), %rax
	movq	%rax, (%rsp)
	incl	EdgeProfCounters+4012(%rip)
	jmp	.LBB14_3
	.align	16, 0x90
.LBB14_4:                               # %while.body
                                        #   in Loop: Header=BB14_3 Depth=1
	incl	EdgeProfCounters+4016(%rip)
	movq	(%rsp), %rax
	movq	8(%rax), %rax
	movq	%rax, (%rsp)
	incl	EdgeProfCounters+4024(%rip)
.LBB14_3:                               # %while.cond
                                        # =>This Inner Loop Header: Depth=1
	movq	(%rsp), %rax
	cmpq	$0, 8(%rax)
	jne	.LBB14_4
# BB#5:                                 # %while.end
	incl	EdgeProfCounters+4020(%rip)
	movq	(%rsp), %rax
	movq	8(%rax), %rdi
	movq	16(%rsp), %rsi
	callq	snocString
	movq	(%rsp), %rcx
	movq	%rax, 8(%rcx)
	movq	24(%rsp), %rax
	movq	%rax, 32(%rsp)
	incl	EdgeProfCounters+4028(%rip)
	jmp	.LBB14_6
.LBB14_1:                               # %if.then
	incl	EdgeProfCounters+4000(%rip)
	callq	mkCell
	movq	%rax, 8(%rsp)
	movq	16(%rsp), %rdi
	callq	strlen
	leal	5(%rax), %edi
	callq	myMalloc
	movq	8(%rsp), %rcx
	movq	%rax, (%rcx)
	movq	8(%rsp), %rax
	movq	(%rax), %rdi
	movq	16(%rsp), %rsi
	callq	strcpy
	movq	8(%rsp), %rax
	movq	%rax, 32(%rsp)
	incl	EdgeProfCounters+4008(%rip)
.LBB14_6:                               # %return
	movq	32(%rsp), %rax
	addq	$40, %rsp
	ret
.Ltmp53:
	.size	snocString, .Ltmp53-snocString
	.cfi_endproc

	.align	16, 0x90
	.type	license,@function
license:                                # @license
	.cfi_startproc
# BB#0:                                 # %entry
	pushq	%rbx
.Ltmp56:
	.cfi_def_cfa_offset 16
.Ltmp57:
	.cfi_offset %rbx, -16
	incl	EdgeProfCounters+4032(%rip)
	movq	stderr(%rip), %rbx
	callq	BZ2_bzlibVersion
	movq	%rbx, %rdi
	movl	$.L.str104, %esi
	movq	%rax, %rdx
	xorb	%al, %al
	callq	fprintf
	popq	%rbx
	ret
.Ltmp58:
	.size	license, .Ltmp58-license
	.cfi_endproc

	.align	16, 0x90
	.type	usage,@function
usage:                                  # @usage
	.cfi_startproc
# BB#0:                                 # %entry
	pushq	%rbx
.Ltmp61:
	.cfi_def_cfa_offset 16
	subq	$16, %rsp
.Ltmp62:
	.cfi_def_cfa_offset 32
.Ltmp63:
	.cfi_offset %rbx, -16
	incl	EdgeProfCounters+4036(%rip)
	movq	%rdi, 8(%rsp)
	movq	stderr(%rip), %rbx
	callq	BZ2_bzlibVersion
	movq	8(%rsp), %rcx
	movq	%rbx, %rdi
	movl	$.L.str103, %esi
	movq	%rax, %rdx
	xorb	%al, %al
	callq	fprintf
	addq	$16, %rsp
	popq	%rbx
	ret
.Ltmp64:
	.size	usage, .Ltmp64-usage
	.cfi_endproc

	.align	16, 0x90
	.type	redundant,@function
redundant:                              # @redundant
	.cfi_startproc
# BB#0:                                 # %entry
	pushq	%rax
.Ltmp66:
	.cfi_def_cfa_offset 16
	movq	%rdi, %rax
	incl	EdgeProfCounters+4040(%rip)
	movq	%rax, (%rsp)
	movq	progName(%rip), %rdx
	movq	stderr(%rip), %rdi
	movl	$.L.str102, %esi
	movq	%rax, %rcx
	xorb	%al, %al
	callq	fprintf
	popq	%rax
	ret
.Ltmp67:
	.size	redundant, .Ltmp67-redundant
	.cfi_endproc

	.align	16, 0x90
	.type	mySignalCatcher,@function
mySignalCatcher:                        # @mySignalCatcher
	.cfi_startproc
# BB#0:                                 # %entry
	pushq	%rax
.Ltmp69:
	.cfi_def_cfa_offset 16
	incl	EdgeProfCounters+4044(%rip)
	movl	%edi, 4(%rsp)
	movq	progName(%rip), %rdx
	movq	stderr(%rip), %rdi
	movl	$.L.str101, %esi
	xorb	%al, %al
	callq	fprintf
	movl	$1, %edi
	callq	cleanUpAndFail
	popq	%rax
	ret
.Ltmp70:
	.size	mySignalCatcher, .Ltmp70-mySignalCatcher
	.cfi_endproc

	.align	16, 0x90
	.type	compress,@function
compress:                               # @compress
	.cfi_startproc
# BB#0:                                 # %entry
	pushq	%r14
.Ltmp74:
	.cfi_def_cfa_offset 16
	pushq	%rbx
.Ltmp75:
	.cfi_def_cfa_offset 24
	subq	$184, %rsp
.Ltmp76:
	.cfi_def_cfa_offset 208
.Ltmp77:
	.cfi_offset %rbx, -24
.Ltmp78:
	.cfi_offset %r14, -16
	incl	EdgeProfCounters+4048(%rip)
	movq	%rdi, 176(%rsp)
	movb	$0, deleteOutputOnInterrupt(%rip)
	cmpq	$0, 176(%rsp)
	je	.LBB19_2
# BB#1:                                 # %entry.if.end_crit_edge
	incl	EdgeProfCounters+4056(%rip)
	jmp	.LBB19_5
.LBB19_2:                               # %land.lhs.true
	incl	EdgeProfCounters+4052(%rip)
	cmpl	$1, srcMode(%rip)
	je	.LBB19_3
# BB#4:                                 # %if.then
	incl	EdgeProfCounters+4060(%rip)
	movl	$.L.str92, %edi
	callq	panic
	incl	EdgeProfCounters+4068(%rip)
	jmp	.LBB19_5
.LBB19_3:                               # %land.lhs.true.if.end_crit_edge
	incl	EdgeProfCounters+4064(%rip)
.LBB19_5:                               # %if.end
	movl	srcMode(%rip), %eax
	cmpl	$1, %eax
	je	.LBB19_9
# BB#6:                                 # %if.end
	cmpl	$2, %eax
	jne	.LBB19_7
# BB#11:                                # %sw.bb3
	incl	EdgeProfCounters+4084(%rip)
	movq	176(%rsp), %rsi
	movl	$inName, %edi
	callq	copyFileName
	movl	$outName, %edi
	movl	$.L.str71, %esi
	callq	copyFileName
	incl	EdgeProfCounters+4096(%rip)
	jmp	.LBB19_12
.LBB19_9:                               # %sw.bb
	incl	EdgeProfCounters+4076(%rip)
	movl	$inName, %edi
	movl	$.L.str37, %esi
	callq	copyFileName
	movl	$outName, %edi
	movl	$.L.str71, %esi
	callq	copyFileName
	incl	EdgeProfCounters+4088(%rip)
	jmp	.LBB19_12
.LBB19_7:                               # %if.end
	cmpl	$3, %eax
	jne	.LBB19_8
# BB#10:                                # %sw.bb2
	incl	EdgeProfCounters+4080(%rip)
	movq	176(%rsp), %rsi
	movl	$inName, %edi
	callq	copyFileName
	movq	176(%rsp), %rsi
	movl	$outName, %edi
	callq	copyFileName
	movl	$outName, %edi
	movl	$.L.str9, %esi
	callq	strcat
	incl	EdgeProfCounters+4092(%rip)
	jmp	.LBB19_12
.LBB19_8:                               # %if.end.sw.epilog_crit_edge
	incl	EdgeProfCounters+4072(%rip)
.LBB19_12:                              # %sw.epilog
	cmpl	$1, srcMode(%rip)
	je	.LBB19_13
# BB#16:                                # %land.lhs.true5
	incl	EdgeProfCounters+4100(%rip)
	movl	$inName, %edi
	callq	containsDubiousChars
	testb	%al, %al
	je	.LBB19_17
# BB#18:                                # %if.then7
	incl	EdgeProfCounters+4108(%rip)
	cmpb	$0, noisy(%rip)
	je	.LBB19_19
# BB#20:                                # %if.then9
	incl	EdgeProfCounters+4116(%rip)
	movq	progName(%rip), %rdx
	movq	stderr(%rip), %rdi
	movl	$.L.str38, %esi
	movl	$inName, %ecx
	xorb	%al, %al
	callq	fprintf
	incl	EdgeProfCounters+4124(%rip)
	jmp	.LBB19_21
.LBB19_13:                              # %sw.epilog.if.end12_crit_edge
	incl	EdgeProfCounters+4104(%rip)
	jmp	.LBB19_14
.LBB19_17:                              # %land.lhs.true5.if.end12_crit_edge
	incl	EdgeProfCounters+4112(%rip)
.LBB19_14:                              # %if.end12
	cmpl	$1, srcMode(%rip)
	je	.LBB19_15
# BB#22:                                # %land.lhs.true15
	incl	EdgeProfCounters+4132(%rip)
	movl	$inName, %edi
	callq	fileExists
	testb	%al, %al
	je	.LBB19_109
# BB#23:                                # %land.lhs.true15.if.end22_crit_edge
	incl	EdgeProfCounters+4140(%rip)
	jmp	.LBB19_24
.LBB19_15:                              # %if.end12.if.end22_crit_edge
	incl	EdgeProfCounters+4136(%rip)
.LBB19_24:                              # %if.end22
	movl	$0, 152(%rsp)
	incl	EdgeProfCounters+4152(%rip)
	jmp	.LBB19_25
	.align	16, 0x90
.LBB19_31:                              # %for.inc
                                        #   in Loop: Header=BB19_25 Depth=1
	incl	EdgeProfCounters+4168(%rip)
	incl	EdgeProfCounters+4188(%rip)
	incl	152(%rsp)
	incl	EdgeProfCounters+4192(%rip)
.LBB19_25:                              # %for.cond
                                        # =>This Inner Loop Header: Depth=1
	cmpl	$3, 152(%rsp)
	jg	.LBB19_32
# BB#26:                                # %for.body
                                        #   in Loop: Header=BB19_25 Depth=1
	incl	EdgeProfCounters+4156(%rip)
	movslq	152(%rsp), %rax
	movq	zSuffix(,%rax,8), %rsi
	movl	$inName, %edi
	callq	hasSuffix
	testb	%al, %al
	je	.LBB19_31
# BB#27:                                # %if.then27
	incl	EdgeProfCounters+4164(%rip)
	cmpb	$0, noisy(%rip)
	je	.LBB19_28
# BB#29:                                # %if.then29
	incl	EdgeProfCounters+4172(%rip)
	movslq	152(%rsp), %rax
	movq	zSuffix(,%rax,8), %r8
	movq	progName(%rip), %rdx
	movq	stderr(%rip), %rdi
	movl	$.L.str93, %esi
	movl	$inName, %ecx
	xorb	%al, %al
	callq	fprintf
	incl	EdgeProfCounters+4180(%rip)
	jmp	.LBB19_30
.LBB19_32:                              # %for.end
	incl	EdgeProfCounters+4160(%rip)
	cmpl	$3, srcMode(%rip)
	jne	.LBB19_34
# BB#33:                                # %for.end.if.then39_crit_edge
	incl	EdgeProfCounters+4196(%rip)
	jmp	.LBB19_37
.LBB19_34:                              # %lor.lhs.false
	incl	EdgeProfCounters+4200(%rip)
	cmpl	$2, srcMode(%rip)
	jne	.LBB19_35
# BB#36:                                # %lor.lhs.false.if.then39_crit_edge
	incl	EdgeProfCounters+4204(%rip)
.LBB19_37:                              # %if.then39
	leaq	8(%rsp), %rsi
	movl	$inName, %edi
	callq	stat
	movl	$61440, %eax            # imm = 0xF000
	andl	32(%rsp), %eax
	cmpl	$16384, %eax            # imm = 0x4000
	jne	.LBB19_39
# BB#38:                                # %if.then43
	incl	EdgeProfCounters+4212(%rip)
	movq	progName(%rip), %rdx
	movq	stderr(%rip), %rdi
	movl	$.L.str40, %esi
	movl	$inName, %ecx
	xorb	%al, %al
	callq	fprintf
	movl	$1, %edi
	callq	setExit
	incl	EdgeProfCounters+4220(%rip)
	jmp	.LBB19_108
.LBB19_109:                             # %if.then18
	incl	EdgeProfCounters+4144(%rip)
	movq	progName(%rip), %r14
	movq	stderr(%rip), %rbx
	callq	__errno_location
	movl	(%rax), %edi
	callq	strerror
	movq	%rbx, %rdi
	movl	$.L.str73, %esi
	movq	%r14, %rdx
	movl	$inName, %ecx
	movq	%rax, %r8
	xorb	%al, %al
	callq	fprintf
	movl	$1, %edi
	callq	setExit
	incl	EdgeProfCounters+4148(%rip)
	jmp	.LBB19_108
.LBB19_19:                              # %if.then7.if.end11_crit_edge
	incl	EdgeProfCounters+4120(%rip)
.LBB19_21:                              # %if.end11
	movl	$1, %edi
	callq	setExit
	incl	EdgeProfCounters+4128(%rip)
	jmp	.LBB19_108
.LBB19_39:                              # %if.end45
	incl	EdgeProfCounters+4216(%rip)
	incl	EdgeProfCounters+4224(%rip)
	jmp	.LBB19_40
.LBB19_28:                              # %if.then27.if.end33_crit_edge
	incl	EdgeProfCounters+4176(%rip)
.LBB19_30:                              # %if.end33
	movl	$1, %edi
	callq	setExit
	incl	EdgeProfCounters+4184(%rip)
.LBB19_108:                             # %return
	addq	$184, %rsp
	popq	%rbx
	popq	%r14
	ret
.LBB19_35:                              # %lor.lhs.false.if.end46_crit_edge
	incl	EdgeProfCounters+4208(%rip)
.LBB19_40:                              # %if.end46
	cmpl	$3, srcMode(%rip)
	jne	.LBB19_41
# BB#44:                                # %land.lhs.true49
	incl	EdgeProfCounters+4228(%rip)
	cmpb	$0, forceOverwrite(%rip)
	je	.LBB19_46
# BB#45:                                # %land.lhs.true49.if.end60_crit_edge
	incl	EdgeProfCounters+4236(%rip)
	jmp	.LBB19_42
.LBB19_41:                              # %if.end46.if.end60_crit_edge
	incl	EdgeProfCounters+4232(%rip)
.LBB19_42:                              # %if.end60
	cmpl	$3, srcMode(%rip)
	jne	.LBB19_43
# BB#52:                                # %land.lhs.true63
	incl	EdgeProfCounters+4268(%rip)
	movl	$outName, %edi
	callq	fileExists
	testb	%al, %al
	je	.LBB19_53
# BB#54:                                # %if.then67
	incl	EdgeProfCounters+4276(%rip)
	cmpb	$0, forceOverwrite(%rip)
	je	.LBB19_55
# BB#56:                                # %if.end72
	incl	EdgeProfCounters+4284(%rip)
	movl	$outName, %edi
	callq	remove
	incl	EdgeProfCounters+4292(%rip)
	incl	EdgeProfCounters+4300(%rip)
	jmp	.LBB19_57
.LBB19_43:                              # %if.end60.if.end73_crit_edge
	incl	EdgeProfCounters+4272(%rip)
	jmp	.LBB19_57
.LBB19_46:                              # %land.lhs.true51
	incl	EdgeProfCounters+4240(%rip)
	movl	$inName, %edi
	callq	notAStandardFile
	testb	%al, %al
	je	.LBB19_47
# BB#48:                                # %if.then55
	incl	EdgeProfCounters+4244(%rip)
	cmpb	$0, noisy(%rip)
	je	.LBB19_49
# BB#50:                                # %if.then57
	incl	EdgeProfCounters+4252(%rip)
	movq	progName(%rip), %rdx
	movq	stderr(%rip), %rdi
	movl	$.L.str74, %esi
	movl	$inName, %ecx
	xorb	%al, %al
	callq	fprintf
	incl	EdgeProfCounters+4260(%rip)
	jmp	.LBB19_51
.LBB19_53:                              # %land.lhs.true63.if.end73_crit_edge
	incl	EdgeProfCounters+4280(%rip)
.LBB19_57:                              # %if.end73
	cmpl	$3, srcMode(%rip)
	jne	.LBB19_58
# BB#61:                                # %land.lhs.true76
	incl	EdgeProfCounters+4304(%rip)
	cmpb	$0, forceOverwrite(%rip)
	je	.LBB19_63
# BB#62:                                # %land.lhs.true76.if.end86_crit_edge
	incl	EdgeProfCounters+4312(%rip)
	jmp	.LBB19_59
.LBB19_58:                              # %if.end73.if.end86_crit_edge
	incl	EdgeProfCounters+4308(%rip)
.LBB19_59:                              # %if.end86
	cmpl	$3, srcMode(%rip)
	jne	.LBB19_60
# BB#68:                                # %if.then89
	incl	EdgeProfCounters+4332(%rip)
	movl	$inName, %edi
	callq	saveInputFileMetaInfo
	incl	EdgeProfCounters+4340(%rip)
	jmp	.LBB19_69
.LBB19_60:                              # %if.end86.if.end90_crit_edge
	incl	EdgeProfCounters+4336(%rip)
.LBB19_69:                              # %if.end90
	movl	srcMode(%rip), %eax
	cmpl	$3, %eax
	je	.LBB19_83
# BB#70:                                # %if.end90
	cmpl	$2, %eax
	jne	.LBB19_71
# BB#75:                                # %sw.bb99
	incl	EdgeProfCounters+4352(%rip)
	movl	$inName, %edi
	movl	$.L.str43, %esi
	callq	fopen
	movq	%rax, 168(%rsp)
	movq	stdout(%rip), %rax
	movq	%rax, 160(%rsp)
	movq	stdout(%rip), %rdi
	callq	fileno
	movl	%eax, %edi
	callq	isatty
	testl	%eax, %eax
	je	.LBB19_80
# BB#76:                                # %if.then104
	incl	EdgeProfCounters+4376(%rip)
	movq	progName(%rip), %rdx
	movq	stderr(%rip), %rdi
	movl	$.L.str94, %esi
	xorb	%al, %al
	callq	fprintf
	movq	progName(%rip), %rdx
	movq	stderr(%rip), %rdi
	movl	$.L.str42, %esi
	movq	%rdx, %rcx
	xorb	%al, %al
	callq	fprintf
	cmpq	$0, 168(%rsp)
	je	.LBB19_77
# BB#78:                                # %if.then109
	incl	EdgeProfCounters+4384(%rip)
	movq	168(%rsp), %rdi
	callq	fclose
	incl	EdgeProfCounters+4392(%rip)
	jmp	.LBB19_79
.LBB19_83:                              # %sw.bb120
	incl	EdgeProfCounters+4356(%rip)
	movl	$inName, %edi
	movl	$.L.str43, %esi
	callq	fopen
	movq	%rax, 168(%rsp)
	movl	$outName, %edi
	movl	$.L.str79, %esi
	callq	fopen_output_safely
	movq	%rax, 160(%rsp)
	testq	%rax, %rax
	je	.LBB19_84
# BB#88:                                # %if.end134
	incl	EdgeProfCounters+4420(%rip)
	cmpq	$0, 168(%rsp)
	je	.LBB19_89
# BB#93:                                # %if.end146
	incl	EdgeProfCounters+4444(%rip)
	incl	EdgeProfCounters+4464(%rip)
	jmp	.LBB19_95
.LBB19_71:                              # %if.end90
	cmpl	$1, %eax
	jne	.LBB19_94
# BB#72:                                # %sw.bb91
	incl	EdgeProfCounters+4348(%rip)
	movq	stdin(%rip), %rax
	movq	%rax, 168(%rsp)
	movq	stdout(%rip), %rax
	movq	%rax, 160(%rsp)
	movq	stdout(%rip), %rdi
	callq	fileno
	movl	%eax, %edi
	callq	isatty
	testl	%eax, %eax
	je	.LBB19_74
# BB#73:                                # %if.then95
	incl	EdgeProfCounters+4360(%rip)
	movq	progName(%rip), %rdx
	movq	stderr(%rip), %rdi
	movl	$.L.str94, %esi
	xorb	%al, %al
	callq	fprintf
	movq	progName(%rip), %rdx
	movq	stderr(%rip), %rdi
	movl	$.L.str42, %esi
	movq	%rdx, %rcx
	xorb	%al, %al
	callq	fprintf
	movl	$1, %edi
	callq	setExit
	incl	EdgeProfCounters+4368(%rip)
	jmp	.LBB19_108
.LBB19_63:                              # %land.lhs.true78
	incl	EdgeProfCounters+4316(%rip)
	movl	$inName, %edi
	callq	countHardLinks
	movl	%eax, 156(%rsp)
	testl	%eax, %eax
	jle	.LBB19_64
# BB#65:                                # %if.then82
	incl	EdgeProfCounters+4320(%rip)
	movl	$.L.str78, %r9d
	movl	156(%rsp), %r8d
	movq	progName(%rip), %rdx
	movq	stderr(%rip), %rdi
	cmpl	$1, %r8d
	jg	.LBB19_67
# BB#66:                                # %select.mid
	movl	$.L.str413, %r9d
.LBB19_67:                              # %select.end
	movl	$.L.str77, %esi
	movl	$inName, %ecx
	xorb	%al, %al
	callq	fprintf
	movl	$1, %edi
	callq	setExit
	incl	EdgeProfCounters+4328(%rip)
	jmp	.LBB19_108
.LBB19_94:                              # %sw.default
	incl	EdgeProfCounters+4344(%rip)
	movl	$.L.str95, %edi
	callq	panic
	incl	EdgeProfCounters+4468(%rip)
	jmp	.LBB19_95
.LBB19_55:                              # %if.else
	incl	EdgeProfCounters+4288(%rip)
	movq	progName(%rip), %rdx
	movq	stderr(%rip), %rdi
	movl	$.L.str76, %esi
	movl	$outName, %ecx
	xorb	%al, %al
	callq	fprintf
	movl	$1, %edi
	callq	setExit
	incl	EdgeProfCounters+4296(%rip)
	jmp	.LBB19_108
.LBB19_80:                              # %if.end112
	incl	EdgeProfCounters+4380(%rip)
	cmpq	$0, 168(%rsp)
	je	.LBB19_81
# BB#82:                                # %if.end119
	incl	EdgeProfCounters+4404(%rip)
	incl	EdgeProfCounters+4412(%rip)
	jmp	.LBB19_95
.LBB19_84:                              # %if.then125
	incl	EdgeProfCounters+4416(%rip)
	movq	progName(%rip), %r14
	movq	stderr(%rip), %rbx
	callq	__errno_location
	movl	(%rax), %edi
	callq	strerror
	movq	%rbx, %rdi
	movl	$.L.str80, %esi
	movq	%r14, %rdx
	movl	$outName, %ecx
	movq	%rax, %r8
	xorb	%al, %al
	callq	fprintf
	cmpq	$0, 168(%rsp)
	je	.LBB19_85
# BB#86:                                # %if.then131
	incl	EdgeProfCounters+4424(%rip)
	movq	168(%rsp), %rdi
	callq	fclose
	incl	EdgeProfCounters+4432(%rip)
	jmp	.LBB19_87
.LBB19_47:                              # %land.lhs.true51.if.end60_crit_edge
	incl	EdgeProfCounters+4248(%rip)
	jmp	.LBB19_42
.LBB19_77:                              # %if.then104.if.end111_crit_edge
	incl	EdgeProfCounters+4388(%rip)
.LBB19_79:                              # %if.end111
	movl	$1, %edi
	callq	setExit
	incl	EdgeProfCounters+4396(%rip)
	jmp	.LBB19_108
.LBB19_89:                              # %if.then137
	incl	EdgeProfCounters+4440(%rip)
	movq	progName(%rip), %r14
	movq	stderr(%rip), %rbx
	callq	__errno_location
	movl	(%rax), %edi
	callq	strerror
	movq	%rbx, %rdi
	movl	$.L.str73, %esi
	movq	%r14, %rdx
	movl	$inName, %ecx
	movq	%rax, %r8
	xorb	%al, %al
	callq	fprintf
	cmpq	$0, 160(%rsp)
	je	.LBB19_90
# BB#91:                                # %if.then143
	incl	EdgeProfCounters+4448(%rip)
	movq	160(%rsp), %rdi
	callq	fclose
	incl	EdgeProfCounters+4456(%rip)
	jmp	.LBB19_92
.LBB19_64:                              # %land.lhs.true78.if.end86_crit_edge
	incl	EdgeProfCounters+4324(%rip)
	jmp	.LBB19_59
.LBB19_49:                              # %if.then55.if.end59_crit_edge
	incl	EdgeProfCounters+4256(%rip)
.LBB19_51:                              # %if.end59
	movl	$1, %edi
	callq	setExit
	incl	EdgeProfCounters+4264(%rip)
	jmp	.LBB19_108
.LBB19_74:                              # %if.end98
	incl	EdgeProfCounters+4364(%rip)
	incl	EdgeProfCounters+4372(%rip)
.LBB19_95:                              # %sw.epilog147
	cmpl	$0, verbosity(%rip)
	jle	.LBB19_96
# BB#97:                                # %if.then150
	incl	EdgeProfCounters+4472(%rip)
	movq	stderr(%rip), %rdi
	movl	$.L.str46, %esi
	movl	$inName, %edx
	xorb	%al, %al
	callq	fprintf
	movl	$inName, %edi
	callq	pad
	movq	stderr(%rip), %rdi
	callq	fflush
	incl	EdgeProfCounters+4480(%rip)
	jmp	.LBB19_98
.LBB19_96:                              # %sw.epilog147.if.end153_crit_edge
	incl	EdgeProfCounters+4476(%rip)
.LBB19_98:                              # %if.end153
	movq	160(%rsp), %rax
	movq	%rax, outputHandleJustInCase(%rip)
	movb	$1, deleteOutputOnInterrupt(%rip)
	movq	160(%rsp), %rsi
	movq	168(%rsp), %rdi
	callq	compressStream
	movq	$0, outputHandleJustInCase(%rip)
	cmpl	$3, srcMode(%rip)
	jne	.LBB19_99
# BB#100:                               # %if.then156
	incl	EdgeProfCounters+4484(%rip)
	movl	$outName, %edi
	callq	applySavedMetaInfoToOutputFile
	movb	$0, deleteOutputOnInterrupt(%rip)
	cmpb	$0, keepInputFiles(%rip)
	je	.LBB19_102
# BB#101:                               # %if.then156.if.end164_crit_edge
	incl	EdgeProfCounters+4492(%rip)
	jmp	.LBB19_106
.LBB19_99:                              # %if.end153.if.end165_crit_edge
	incl	EdgeProfCounters+4488(%rip)
	jmp	.LBB19_107
.LBB19_102:                             # %if.then158
	incl	EdgeProfCounters+4496(%rip)
	movl	$inName, %edi
	callq	remove
	movl	%eax, 4(%rsp)
	testl	%eax, %eax
	je	.LBB19_103
# BB#104:                               # %if.then162
	incl	EdgeProfCounters+4500(%rip)
	callq	ioError
	incl	EdgeProfCounters+4508(%rip)
	jmp	.LBB19_105
.LBB19_81:                              # %if.then115
	incl	EdgeProfCounters+4400(%rip)
	movq	progName(%rip), %r14
	movq	stderr(%rip), %rbx
	callq	__errno_location
	movl	(%rax), %edi
	callq	strerror
	movq	%rbx, %rdi
	movl	$.L.str73, %esi
	movq	%r14, %rdx
	movl	$inName, %ecx
	movq	%rax, %r8
	xorb	%al, %al
	callq	fprintf
	movl	$1, %edi
	callq	setExit
	incl	EdgeProfCounters+4408(%rip)
	jmp	.LBB19_108
.LBB19_85:                              # %if.then125.if.end133_crit_edge
	incl	EdgeProfCounters+4428(%rip)
.LBB19_87:                              # %if.end133
	movl	$1, %edi
	callq	setExit
	incl	EdgeProfCounters+4436(%rip)
	jmp	.LBB19_108
.LBB19_90:                              # %if.then137.if.end145_crit_edge
	incl	EdgeProfCounters+4452(%rip)
.LBB19_92:                              # %if.end145
	movl	$1, %edi
	callq	setExit
	incl	EdgeProfCounters+4460(%rip)
	jmp	.LBB19_108
.LBB19_103:                             # %if.then158.if.end163_crit_edge
	incl	EdgeProfCounters+4504(%rip)
.LBB19_105:                             # %if.end163
	incl	EdgeProfCounters+4512(%rip)
.LBB19_106:                             # %if.end164
	incl	EdgeProfCounters+4516(%rip)
.LBB19_107:                             # %if.end165
	movb	$0, deleteOutputOnInterrupt(%rip)
	incl	EdgeProfCounters+4520(%rip)
	jmp	.LBB19_108
.Ltmp79:
	.size	compress, .Ltmp79-compress
	.cfi_endproc

	.align	16, 0x90
	.type	uncompress,@function
uncompress:                             # @uncompress
	.cfi_startproc
# BB#0:                                 # %entry
	pushq	%r14
.Ltmp83:
	.cfi_def_cfa_offset 16
	pushq	%rbx
.Ltmp84:
	.cfi_def_cfa_offset 24
	subq	$200, %rsp
.Ltmp85:
	.cfi_def_cfa_offset 224
.Ltmp86:
	.cfi_offset %rbx, -24
.Ltmp87:
	.cfi_offset %r14, -16
	incl	EdgeProfCounters+4524(%rip)
	movq	%rdi, 192(%rsp)
	movb	$0, deleteOutputOnInterrupt(%rip)
	cmpq	$0, 192(%rsp)
	je	.LBB20_2
# BB#1:                                 # %entry.if.end_crit_edge
	incl	EdgeProfCounters+4532(%rip)
	jmp	.LBB20_5
.LBB20_2:                               # %land.lhs.true
	incl	EdgeProfCounters+4528(%rip)
	cmpl	$1, srcMode(%rip)
	je	.LBB20_3
# BB#4:                                 # %if.then
	incl	EdgeProfCounters+4536(%rip)
	movl	$.L.str70, %edi
	callq	panic
	incl	EdgeProfCounters+4544(%rip)
	jmp	.LBB20_5
.LBB20_3:                               # %land.lhs.true.if.end_crit_edge
	incl	EdgeProfCounters+4540(%rip)
.LBB20_5:                               # %if.end
	movb	$0, 166(%rsp)
	movl	srcMode(%rip), %eax
	cmpl	$1, %eax
	je	.LBB20_9
# BB#6:                                 # %if.end
	cmpl	$2, %eax
	jne	.LBB20_7
# BB#16:                                # %sw.bb9
	incl	EdgeProfCounters+4560(%rip)
	movq	192(%rsp), %rsi
	movl	$inName, %edi
	callq	copyFileName
	movl	$outName, %edi
	movl	$.L.str71, %esi
	callq	copyFileName
	incl	EdgeProfCounters+4604(%rip)
	jmp	.LBB20_17
.LBB20_9:                               # %sw.bb
	incl	EdgeProfCounters+4552(%rip)
	movl	$inName, %edi
	movl	$.L.str37, %esi
	callq	copyFileName
	movl	$outName, %edi
	movl	$.L.str71, %esi
	callq	copyFileName
	incl	EdgeProfCounters+4564(%rip)
	jmp	.LBB20_17
.LBB20_7:                               # %if.end
	cmpl	$3, %eax
	jne	.LBB20_8
# BB#10:                                # %sw.bb2
	incl	EdgeProfCounters+4556(%rip)
	movq	192(%rsp), %rsi
	movl	$inName, %edi
	callq	copyFileName
	movq	192(%rsp), %rsi
	movl	$outName, %edi
	callq	copyFileName
	movl	$0, 168(%rsp)
	incl	EdgeProfCounters+4568(%rip)
	jmp	.LBB20_11
	.align	16, 0x90
.LBB20_14:                              # %for.inc
                                        #   in Loop: Header=BB20_11 Depth=1
	incl	EdgeProfCounters+4584(%rip)
	incl	EdgeProfCounters+4592(%rip)
	incl	168(%rsp)
	incl	EdgeProfCounters+4596(%rip)
.LBB20_11:                              # %for.cond
                                        # =>This Inner Loop Header: Depth=1
	cmpl	$3, 168(%rsp)
	jg	.LBB20_15
# BB#12:                                # %for.body
                                        #   in Loop: Header=BB20_11 Depth=1
	incl	EdgeProfCounters+4572(%rip)
	movslq	168(%rsp), %rax
	movq	unzSuffix(,%rax,8), %rdx
	movq	zSuffix(,%rax,8), %rsi
	movl	$outName, %edi
	callq	mapSuffix
	testb	%al, %al
	je	.LBB20_14
# BB#13:                                # %if.then6
	incl	EdgeProfCounters+4580(%rip)
	incl	EdgeProfCounters+4588(%rip)
	jmp	.LBB20_18
.LBB20_8:                               # %if.end.sw.epilog_crit_edge
	incl	EdgeProfCounters+4548(%rip)
	jmp	.LBB20_17
.LBB20_15:                              # %for.end
	incl	EdgeProfCounters+4576(%rip)
	movb	$1, 166(%rsp)
	movl	$outName, %edi
	movl	$.L.str72, %esi
	callq	strcat
	incl	EdgeProfCounters+4600(%rip)
.LBB20_17:                              # %sw.epilog
	incl	EdgeProfCounters+4608(%rip)
.LBB20_18:                              # %zzz
	cmpl	$1, srcMode(%rip)
	je	.LBB20_19
# BB#22:                                # %land.lhs.true11
	incl	EdgeProfCounters+4612(%rip)
	movl	$inName, %edi
	callq	containsDubiousChars
	testb	%al, %al
	je	.LBB20_23
# BB#24:                                # %if.then14
	incl	EdgeProfCounters+4620(%rip)
	cmpb	$0, noisy(%rip)
	je	.LBB20_25
# BB#26:                                # %if.then16
	incl	EdgeProfCounters+4628(%rip)
	movq	progName(%rip), %rdx
	movq	stderr(%rip), %rdi
	movl	$.L.str38, %esi
	movl	$inName, %ecx
	xorb	%al, %al
	callq	fprintf
	incl	EdgeProfCounters+4636(%rip)
	jmp	.LBB20_27
.LBB20_19:                              # %zzz.if.end19_crit_edge
	incl	EdgeProfCounters+4616(%rip)
	jmp	.LBB20_20
.LBB20_23:                              # %land.lhs.true11.if.end19_crit_edge
	incl	EdgeProfCounters+4624(%rip)
.LBB20_20:                              # %if.end19
	cmpl	$1, srcMode(%rip)
	je	.LBB20_21
# BB#28:                                # %land.lhs.true22
	incl	EdgeProfCounters+4644(%rip)
	movl	$inName, %edi
	callq	fileExists
	testb	%al, %al
	je	.LBB20_126
# BB#29:                                # %land.lhs.true22.if.end29_crit_edge
	incl	EdgeProfCounters+4652(%rip)
	jmp	.LBB20_30
.LBB20_21:                              # %if.end19.if.end29_crit_edge
	incl	EdgeProfCounters+4648(%rip)
.LBB20_30:                              # %if.end29
	cmpl	$3, srcMode(%rip)
	jne	.LBB20_32
# BB#31:                                # %if.end29.if.then34_crit_edge
	incl	EdgeProfCounters+4664(%rip)
	jmp	.LBB20_35
.LBB20_32:                              # %lor.lhs.false
	incl	EdgeProfCounters+4668(%rip)
	cmpl	$2, srcMode(%rip)
	jne	.LBB20_33
# BB#34:                                # %lor.lhs.false.if.then34_crit_edge
	incl	EdgeProfCounters+4672(%rip)
.LBB20_35:                              # %if.then34
	leaq	16(%rsp), %rsi
	movl	$inName, %edi
	callq	stat
	movl	$61440, %eax            # imm = 0xF000
	andl	40(%rsp), %eax
	cmpl	$16384, %eax            # imm = 0x4000
	jne	.LBB20_37
# BB#36:                                # %if.then38
	incl	EdgeProfCounters+4680(%rip)
	movq	progName(%rip), %rdx
	movq	stderr(%rip), %rdi
	movl	$.L.str40, %esi
	movl	$inName, %ecx
	xorb	%al, %al
	callq	fprintf
	movl	$1, %edi
	callq	setExit
	incl	EdgeProfCounters+4688(%rip)
	jmp	.LBB20_125
.LBB20_37:                              # %if.end40
	incl	EdgeProfCounters+4684(%rip)
	incl	EdgeProfCounters+4692(%rip)
	jmp	.LBB20_38
.LBB20_33:                              # %lor.lhs.false.if.end41_crit_edge
	incl	EdgeProfCounters+4676(%rip)
.LBB20_38:                              # %if.end41
	cmpl	$3, srcMode(%rip)
	jne	.LBB20_39
# BB#42:                                # %land.lhs.true44
	incl	EdgeProfCounters+4696(%rip)
	cmpb	$0, forceOverwrite(%rip)
	je	.LBB20_44
# BB#43:                                # %land.lhs.true44.if.end55_crit_edge
	incl	EdgeProfCounters+4704(%rip)
	jmp	.LBB20_40
.LBB20_39:                              # %if.end41.if.end55_crit_edge
	incl	EdgeProfCounters+4700(%rip)
.LBB20_40:                              # %if.end55
	cmpb	$0, 166(%rsp)
	je	.LBB20_41
# BB#50:                                # %if.then57
	incl	EdgeProfCounters+4736(%rip)
	cmpb	$0, noisy(%rip)
	je	.LBB20_51
# BB#52:                                # %if.then59
	incl	EdgeProfCounters+4744(%rip)
	movq	progName(%rip), %rdx
	movq	stderr(%rip), %rdi
	movl	$.L.str75, %esi
	movl	$inName, %ecx
	movl	$outName, %r8d
	xorb	%al, %al
	callq	fprintf
	incl	EdgeProfCounters+4752(%rip)
	jmp	.LBB20_53
.LBB20_126:                             # %if.then25
	incl	EdgeProfCounters+4656(%rip)
	movq	progName(%rip), %r14
	movq	stderr(%rip), %rbx
	callq	__errno_location
	movl	(%rax), %edi
	callq	strerror
	movq	%rbx, %rdi
	movl	$.L.str73, %esi
	movq	%r14, %rdx
	movl	$inName, %ecx
	movq	%rax, %r8
	xorb	%al, %al
	callq	fprintf
	movl	$1, %edi
	callq	setExit
	incl	EdgeProfCounters+4660(%rip)
	jmp	.LBB20_125
.LBB20_25:                              # %if.then14.if.end18_crit_edge
	incl	EdgeProfCounters+4632(%rip)
.LBB20_27:                              # %if.end18
	movl	$1, %edi
	callq	setExit
	incl	EdgeProfCounters+4640(%rip)
.LBB20_125:                             # %if.end191
	addq	$200, %rsp
	popq	%rbx
	popq	%r14
	ret
.LBB20_41:                              # %if.end55.if.end62_crit_edge
	incl	EdgeProfCounters+4740(%rip)
	jmp	.LBB20_54
.LBB20_51:                              # %if.then57.if.end61_crit_edge
	incl	EdgeProfCounters+4748(%rip)
.LBB20_53:                              # %if.end61
	incl	EdgeProfCounters+4756(%rip)
.LBB20_54:                              # %if.end62
	cmpl	$3, srcMode(%rip)
	jne	.LBB20_55
# BB#56:                                # %land.lhs.true65
	incl	EdgeProfCounters+4760(%rip)
	movl	$outName, %edi
	callq	fileExists
	testb	%al, %al
	je	.LBB20_57
# BB#58:                                # %if.then69
	incl	EdgeProfCounters+4768(%rip)
	cmpb	$0, forceOverwrite(%rip)
	je	.LBB20_59
# BB#60:                                # %if.end74
	incl	EdgeProfCounters+4776(%rip)
	movl	$outName, %edi
	callq	remove
	incl	EdgeProfCounters+4784(%rip)
	incl	EdgeProfCounters+4792(%rip)
	jmp	.LBB20_61
.LBB20_55:                              # %if.end62.if.end75_crit_edge
	incl	EdgeProfCounters+4764(%rip)
	jmp	.LBB20_61
.LBB20_44:                              # %land.lhs.true46
	incl	EdgeProfCounters+4708(%rip)
	movl	$inName, %edi
	callq	notAStandardFile
	testb	%al, %al
	je	.LBB20_45
# BB#46:                                # %if.then50
	incl	EdgeProfCounters+4712(%rip)
	cmpb	$0, noisy(%rip)
	je	.LBB20_47
# BB#48:                                # %if.then52
	incl	EdgeProfCounters+4720(%rip)
	movq	progName(%rip), %rdx
	movq	stderr(%rip), %rdi
	movl	$.L.str74, %esi
	movl	$inName, %ecx
	xorb	%al, %al
	callq	fprintf
	incl	EdgeProfCounters+4728(%rip)
	jmp	.LBB20_49
.LBB20_57:                              # %land.lhs.true65.if.end75_crit_edge
	incl	EdgeProfCounters+4772(%rip)
.LBB20_61:                              # %if.end75
	cmpl	$3, srcMode(%rip)
	jne	.LBB20_62
# BB#65:                                # %land.lhs.true78
	incl	EdgeProfCounters+4796(%rip)
	cmpb	$0, forceOverwrite(%rip)
	je	.LBB20_67
# BB#66:                                # %land.lhs.true78.if.end88_crit_edge
	incl	EdgeProfCounters+4804(%rip)
	jmp	.LBB20_63
.LBB20_62:                              # %if.end75.if.end88_crit_edge
	incl	EdgeProfCounters+4800(%rip)
.LBB20_63:                              # %if.end88
	cmpl	$3, srcMode(%rip)
	jne	.LBB20_64
# BB#72:                                # %if.then91
	incl	EdgeProfCounters+4824(%rip)
	movl	$inName, %edi
	callq	saveInputFileMetaInfo
	incl	EdgeProfCounters+4832(%rip)
	jmp	.LBB20_73
.LBB20_64:                              # %if.end88.if.end92_crit_edge
	incl	EdgeProfCounters+4828(%rip)
.LBB20_73:                              # %if.end92
	movl	srcMode(%rip), %eax
	cmpl	$3, %eax
	je	.LBB20_85
# BB#74:                                # %if.end92
	cmpl	$2, %eax
	jne	.LBB20_75
# BB#79:                                # %sw.bb101
	incl	EdgeProfCounters+4844(%rip)
	movl	$inName, %edi
	movl	$.L.str43, %esi
	callq	fopen
	movq	%rax, 184(%rsp)
	movq	stdout(%rip), %rax
	movq	%rax, 176(%rsp)
	cmpq	$0, 184(%rsp)
	je	.LBB20_80
# BB#84:                                # %if.end114
	incl	EdgeProfCounters+4872(%rip)
	incl	EdgeProfCounters+4892(%rip)
	jmp	.LBB20_97
.LBB20_85:                              # %sw.bb115
	incl	EdgeProfCounters+4848(%rip)
	movl	$inName, %edi
	movl	$.L.str43, %esi
	callq	fopen
	movq	%rax, 184(%rsp)
	movl	$outName, %edi
	movl	$.L.str79, %esi
	callq	fopen_output_safely
	movq	%rax, 176(%rsp)
	testq	%rax, %rax
	je	.LBB20_86
# BB#90:                                # %if.end129
	incl	EdgeProfCounters+4900(%rip)
	cmpq	$0, 184(%rsp)
	je	.LBB20_91
# BB#95:                                # %if.end141
	incl	EdgeProfCounters+4924(%rip)
	incl	EdgeProfCounters+4944(%rip)
	jmp	.LBB20_97
.LBB20_75:                              # %if.end92
	cmpl	$1, %eax
	jne	.LBB20_96
# BB#76:                                # %sw.bb93
	incl	EdgeProfCounters+4840(%rip)
	movq	stdin(%rip), %rax
	movq	%rax, 184(%rsp)
	movq	stdout(%rip), %rax
	movq	%rax, 176(%rsp)
	movq	stdin(%rip), %rdi
	callq	fileno
	movl	%eax, %edi
	callq	isatty
	testl	%eax, %eax
	je	.LBB20_78
# BB#77:                                # %if.then97
	incl	EdgeProfCounters+4852(%rip)
	movq	progName(%rip), %rdx
	movq	stderr(%rip), %rdi
	movl	$.L.str41, %esi
	xorb	%al, %al
	callq	fprintf
	movq	progName(%rip), %rdx
	movq	stderr(%rip), %rdi
	movl	$.L.str42, %esi
	movq	%rdx, %rcx
	xorb	%al, %al
	callq	fprintf
	movl	$1, %edi
	callq	setExit
	incl	EdgeProfCounters+4860(%rip)
	jmp	.LBB20_125
.LBB20_67:                              # %land.lhs.true80
	incl	EdgeProfCounters+4808(%rip)
	movl	$inName, %edi
	callq	countHardLinks
	movl	%eax, 172(%rsp)
	testl	%eax, %eax
	jle	.LBB20_68
# BB#69:                                # %if.then84
	incl	EdgeProfCounters+4812(%rip)
	movl	$.L.str78, %r9d
	movl	172(%rsp), %r8d
	movq	progName(%rip), %rdx
	movq	stderr(%rip), %rdi
	cmpl	$1, %r8d
	jg	.LBB20_71
# BB#70:                                # %select.mid
	movl	$.L.str413, %r9d
.LBB20_71:                              # %select.end
	movl	$.L.str77, %esi
	movl	$inName, %ecx
	xorb	%al, %al
	callq	fprintf
	movl	$1, %edi
	callq	setExit
	incl	EdgeProfCounters+4820(%rip)
	jmp	.LBB20_125
.LBB20_96:                              # %sw.default
	incl	EdgeProfCounters+4836(%rip)
	movl	$.L.str81, %edi
	callq	panic
	incl	EdgeProfCounters+4948(%rip)
	jmp	.LBB20_97
.LBB20_59:                              # %if.else
	incl	EdgeProfCounters+4780(%rip)
	movq	progName(%rip), %rdx
	movq	stderr(%rip), %rdi
	movl	$.L.str76, %esi
	movl	$outName, %ecx
	xorb	%al, %al
	callq	fprintf
	movl	$1, %edi
	callq	setExit
	incl	EdgeProfCounters+4788(%rip)
	jmp	.LBB20_125
.LBB20_80:                              # %if.then105
	incl	EdgeProfCounters+4868(%rip)
	movq	progName(%rip), %r14
	movq	stderr(%rip), %rbx
	callq	__errno_location
	movl	(%rax), %edi
	callq	strerror
	movq	%rbx, %rdi
	movl	$.L.str44, %esi
	movq	%r14, %rdx
	movl	$inName, %ecx
	movq	%rax, %r8
	xorb	%al, %al
	callq	fprintf
	cmpq	$0, 184(%rsp)
	je	.LBB20_81
# BB#82:                                # %if.then111
	incl	EdgeProfCounters+4876(%rip)
	movq	184(%rsp), %rdi
	callq	fclose
	incl	EdgeProfCounters+4884(%rip)
	jmp	.LBB20_83
.LBB20_86:                              # %if.then120
	incl	EdgeProfCounters+4896(%rip)
	movq	progName(%rip), %r14
	movq	stderr(%rip), %rbx
	callq	__errno_location
	movl	(%rax), %edi
	callq	strerror
	movq	%rbx, %rdi
	movl	$.L.str80, %esi
	movq	%r14, %rdx
	movl	$outName, %ecx
	movq	%rax, %r8
	xorb	%al, %al
	callq	fprintf
	cmpq	$0, 184(%rsp)
	je	.LBB20_87
# BB#88:                                # %if.then126
	incl	EdgeProfCounters+4904(%rip)
	movq	184(%rsp), %rdi
	callq	fclose
	incl	EdgeProfCounters+4912(%rip)
	jmp	.LBB20_89
.LBB20_45:                              # %land.lhs.true46.if.end55_crit_edge
	incl	EdgeProfCounters+4716(%rip)
	jmp	.LBB20_40
.LBB20_91:                              # %if.then132
	incl	EdgeProfCounters+4920(%rip)
	movq	progName(%rip), %r14
	movq	stderr(%rip), %rbx
	callq	__errno_location
	movl	(%rax), %edi
	callq	strerror
	movq	%rbx, %rdi
	movl	$.L.str73, %esi
	movq	%r14, %rdx
	movl	$inName, %ecx
	movq	%rax, %r8
	xorb	%al, %al
	callq	fprintf
	cmpq	$0, 176(%rsp)
	je	.LBB20_92
# BB#93:                                # %if.then138
	incl	EdgeProfCounters+4928(%rip)
	movq	176(%rsp), %rdi
	callq	fclose
	incl	EdgeProfCounters+4936(%rip)
	jmp	.LBB20_94
.LBB20_68:                              # %land.lhs.true80.if.end88_crit_edge
	incl	EdgeProfCounters+4816(%rip)
	jmp	.LBB20_63
.LBB20_47:                              # %if.then50.if.end54_crit_edge
	incl	EdgeProfCounters+4724(%rip)
.LBB20_49:                              # %if.end54
	movl	$1, %edi
	callq	setExit
	incl	EdgeProfCounters+4732(%rip)
	jmp	.LBB20_125
.LBB20_78:                              # %if.end100
	incl	EdgeProfCounters+4856(%rip)
	incl	EdgeProfCounters+4864(%rip)
.LBB20_97:                              # %sw.epilog142
	cmpl	$0, verbosity(%rip)
	jle	.LBB20_98
# BB#99:                                # %if.then145
	incl	EdgeProfCounters+4952(%rip)
	movq	stderr(%rip), %rdi
	movl	$.L.str46, %esi
	movl	$inName, %edx
	xorb	%al, %al
	callq	fprintf
	movl	$inName, %edi
	callq	pad
	movq	stderr(%rip), %rdi
	callq	fflush
	incl	EdgeProfCounters+4960(%rip)
	jmp	.LBB20_100
.LBB20_98:                              # %sw.epilog142.if.end148_crit_edge
	incl	EdgeProfCounters+4956(%rip)
.LBB20_100:                             # %if.end148
	movq	176(%rsp), %rax
	movq	%rax, outputHandleJustInCase(%rip)
	movb	$1, deleteOutputOnInterrupt(%rip)
	movq	176(%rsp), %rsi
	movq	184(%rsp), %rdi
	callq	uncompressStream
	movb	%al, 167(%rsp)
	movq	$0, outputHandleJustInCase(%rip)
	cmpb	$0, 167(%rsp)
	je	.LBB20_110
# BB#101:                               # %if.then151
	incl	EdgeProfCounters+4964(%rip)
	cmpl	$3, srcMode(%rip)
	jne	.LBB20_102
# BB#103:                               # %if.then154
	incl	EdgeProfCounters+4972(%rip)
	movl	$outName, %edi
	callq	applySavedMetaInfoToOutputFile
	movb	$0, deleteOutputOnInterrupt(%rip)
	cmpb	$0, keepInputFiles(%rip)
	je	.LBB20_105
# BB#104:                               # %if.then154.if.end162_crit_edge
	incl	EdgeProfCounters+4980(%rip)
	jmp	.LBB20_109
.LBB20_110:                             # %if.else164
	incl	EdgeProfCounters+4968(%rip)
	movb	$1, unzFailsExist(%rip)
	movb	$0, deleteOutputOnInterrupt(%rip)
	cmpl	$3, srcMode(%rip)
	jne	.LBB20_111
# BB#112:                               # %if.then167
	incl	EdgeProfCounters+5012(%rip)
	movl	$outName, %edi
	callq	remove
	movl	%eax, 8(%rsp)
	testl	%eax, %eax
	je	.LBB20_113
# BB#114:                               # %if.then172
	incl	EdgeProfCounters+5020(%rip)
	callq	ioError
	incl	EdgeProfCounters+5028(%rip)
	jmp	.LBB20_115
.LBB20_102:                             # %if.then151.if.end163_crit_edge
	incl	EdgeProfCounters+4976(%rip)
	incl	EdgeProfCounters+5008(%rip)
	jmp	.LBB20_117
.LBB20_111:                             # %if.else164.if.end174_crit_edge
	incl	EdgeProfCounters+5016(%rip)
	jmp	.LBB20_116
.LBB20_105:                             # %if.then156
	incl	EdgeProfCounters+4984(%rip)
	movl	$inName, %edi
	callq	remove
	movl	%eax, 12(%rsp)
	testl	%eax, %eax
	je	.LBB20_106
# BB#107:                               # %if.then160
	incl	EdgeProfCounters+4988(%rip)
	callq	ioError
	incl	EdgeProfCounters+4996(%rip)
	jmp	.LBB20_108
.LBB20_81:                              # %if.then105.if.end113_crit_edge
	incl	EdgeProfCounters+4880(%rip)
.LBB20_83:                              # %if.end113
	movl	$1, %edi
	callq	setExit
	incl	EdgeProfCounters+4888(%rip)
	jmp	.LBB20_125
.LBB20_87:                              # %if.then120.if.end128_crit_edge
	incl	EdgeProfCounters+4908(%rip)
.LBB20_89:                              # %if.end128
	movl	$1, %edi
	callq	setExit
	incl	EdgeProfCounters+4916(%rip)
	jmp	.LBB20_125
.LBB20_113:                             # %if.then167.if.end173_crit_edge
	incl	EdgeProfCounters+5024(%rip)
.LBB20_115:                             # %if.end173
	incl	EdgeProfCounters+5032(%rip)
.LBB20_116:                             # %if.end174
	incl	EdgeProfCounters+5036(%rip)
	jmp	.LBB20_117
.LBB20_92:                              # %if.then132.if.end140_crit_edge
	incl	EdgeProfCounters+4932(%rip)
.LBB20_94:                              # %if.end140
	movl	$1, %edi
	callq	setExit
	incl	EdgeProfCounters+4940(%rip)
	jmp	.LBB20_125
.LBB20_106:                             # %if.then156.if.end161_crit_edge
	incl	EdgeProfCounters+4992(%rip)
.LBB20_108:                             # %if.end161
	incl	EdgeProfCounters+5000(%rip)
.LBB20_109:                             # %if.end162
	incl	EdgeProfCounters+5004(%rip)
	incl	EdgeProfCounters+5008(%rip)
.LBB20_117:                             # %if.end175
	movb	$0, deleteOutputOnInterrupt(%rip)
	cmpb	$0, 167(%rsp)
	je	.LBB20_121
# BB#118:                               # %if.then177
	incl	EdgeProfCounters+5040(%rip)
	cmpl	$0, verbosity(%rip)
	jle	.LBB20_119
# BB#120:                               # %if.then180
	incl	EdgeProfCounters+5048(%rip)
	movq	stderr(%rip), %rdi
	movl	$.L.str82, %esi
	xorb	%al, %al
	callq	fprintf
	incl	EdgeProfCounters+5056(%rip)
	incl	EdgeProfCounters+5060(%rip)
	jmp	.LBB20_125
.LBB20_121:                             # %if.else183
	incl	EdgeProfCounters+5044(%rip)
	movl	$2, %edi
	callq	setExit
	cmpl	$0, verbosity(%rip)
	jle	.LBB20_123
# BB#122:                               # %if.then186
	incl	EdgeProfCounters+5064(%rip)
	movq	stderr(%rip), %rdi
	movl	$.L.str83, %esi
	xorb	%al, %al
	callq	fprintf
	incl	EdgeProfCounters+5072(%rip)
	jmp	.LBB20_124
.LBB20_119:                             # %if.then177.if.end182_crit_edge
	incl	EdgeProfCounters+5052(%rip)
	incl	EdgeProfCounters+5060(%rip)
	jmp	.LBB20_125
.LBB20_123:                             # %if.else188
	incl	EdgeProfCounters+5068(%rip)
	movq	progName(%rip), %rdx
	movq	stderr(%rip), %rdi
	movl	$.L.str84, %esi
	movl	$inName, %ecx
	xorb	%al, %al
	callq	fprintf
	incl	EdgeProfCounters+5076(%rip)
.LBB20_124:                             # %if.end190
	incl	EdgeProfCounters+5080(%rip)
	jmp	.LBB20_125
.Ltmp88:
	.size	uncompress, .Ltmp88-uncompress
	.cfi_endproc

	.align	16, 0x90
	.type	setExit,@function
setExit:                                # @setExit
	.cfi_startproc
# BB#0:                                 # %entry
	incl	EdgeProfCounters+5084(%rip)
	movl	%edi, -4(%rsp)
	cmpl	exitValue(%rip), %edi
	jle	.LBB21_1
# BB#2:                                 # %if.then
	incl	EdgeProfCounters+5088(%rip)
	movl	-4(%rsp), %eax
	movl	%eax, exitValue(%rip)
	incl	EdgeProfCounters+5096(%rip)
	ret
.LBB21_1:                               # %entry.if.end_crit_edge
	incl	EdgeProfCounters+5092(%rip)
	ret
.Ltmp89:
	.size	setExit, .Ltmp89-setExit
	.cfi_endproc

	.align	16, 0x90
	.type	testf,@function
testf:                                  # @testf
	.cfi_startproc
# BB#0:                                 # %entry
	pushq	%r14
.Ltmp93:
	.cfi_def_cfa_offset 16
	pushq	%rbx
.Ltmp94:
	.cfi_def_cfa_offset 24
	subq	$168, %rsp
.Ltmp95:
	.cfi_def_cfa_offset 192
.Ltmp96:
	.cfi_offset %rbx, -24
.Ltmp97:
	.cfi_offset %r14, -16
	incl	EdgeProfCounters+5100(%rip)
	movq	%rdi, 160(%rsp)
	movb	$0, deleteOutputOnInterrupt(%rip)
	cmpq	$0, 160(%rsp)
	je	.LBB22_2
# BB#1:                                 # %entry.if.end_crit_edge
	incl	EdgeProfCounters+5108(%rip)
	jmp	.LBB22_5
.LBB22_2:                               # %land.lhs.true
	incl	EdgeProfCounters+5104(%rip)
	cmpl	$1, srcMode(%rip)
	je	.LBB22_3
# BB#4:                                 # %if.then
	incl	EdgeProfCounters+5112(%rip)
	movl	$.L.str36, %edi
	callq	panic
	incl	EdgeProfCounters+5120(%rip)
	jmp	.LBB22_5
.LBB22_3:                               # %land.lhs.true.if.end_crit_edge
	incl	EdgeProfCounters+5116(%rip)
.LBB22_5:                               # %if.end
	movl	$outName, %edi
	movl	$.L.str615, %esi
	callq	copyFileName
	movl	srcMode(%rip), %eax
	cmpl	$1, %eax
	je	.LBB22_9
# BB#6:                                 # %if.end
	cmpl	$2, %eax
	jne	.LBB22_7
# BB#11:                                # %sw.bb3
	incl	EdgeProfCounters+5136(%rip)
	movq	160(%rsp), %rsi
	movl	$inName, %edi
	callq	copyFileName
	incl	EdgeProfCounters+5148(%rip)
	jmp	.LBB22_12
.LBB22_9:                               # %sw.bb
	incl	EdgeProfCounters+5128(%rip)
	movl	$inName, %edi
	movl	$.L.str37, %esi
	callq	copyFileName
	incl	EdgeProfCounters+5140(%rip)
	jmp	.LBB22_12
.LBB22_7:                               # %if.end
	cmpl	$3, %eax
	jne	.LBB22_8
# BB#10:                                # %sw.bb2
	incl	EdgeProfCounters+5132(%rip)
	movq	160(%rsp), %rsi
	movl	$inName, %edi
	callq	copyFileName
	incl	EdgeProfCounters+5144(%rip)
	jmp	.LBB22_12
.LBB22_8:                               # %if.end.sw.epilog_crit_edge
	incl	EdgeProfCounters+5124(%rip)
.LBB22_12:                              # %sw.epilog
	cmpl	$1, srcMode(%rip)
	je	.LBB22_13
# BB#16:                                # %land.lhs.true5
	incl	EdgeProfCounters+5152(%rip)
	movl	$inName, %edi
	callq	containsDubiousChars
	testb	%al, %al
	je	.LBB22_17
# BB#18:                                # %if.then6
	incl	EdgeProfCounters+5160(%rip)
	cmpb	$0, noisy(%rip)
	je	.LBB22_19
# BB#20:                                # %if.then8
	incl	EdgeProfCounters+5168(%rip)
	movq	progName(%rip), %rdx
	movq	stderr(%rip), %rdi
	movl	$.L.str38, %esi
	movl	$inName, %ecx
	xorb	%al, %al
	callq	fprintf
	incl	EdgeProfCounters+5176(%rip)
	jmp	.LBB22_21
