	.file	"mainnew.bc"
	.text
	.globl	BZ2_blockSort
	.align	16, 0x90
	.type	BZ2_blockSort,@function
BZ2_blockSort:                          # @BZ2_blockSort
	.cfi_startproc
# BB#0:                                 # %entry
	subq	$88, %rsp
.Ltmp1:
	.cfi_def_cfa_offset 96
	movq	%rdi, 80(%rsp)
	movq	56(%rdi), %rax
	movq	%rax, 72(%rsp)
	movq	80(%rsp), %rax
	movq	64(%rax), %rax
	movq	%rax, 64(%rsp)
	movq	80(%rsp), %rax
	movq	40(%rax), %rax
	movq	%rax, 56(%rsp)
	movq	80(%rsp), %rax
	movl	108(%rax), %eax
	movl	%eax, 52(%rsp)
	movq	80(%rsp), %rax
	movl	656(%rax), %eax
	movl	%eax, 48(%rsp)
	movq	80(%rsp), %rax
	movl	88(%rax), %eax
	movl	%eax, 44(%rsp)
	cmpl	$9999, 52(%rsp)         # imm = 0x270F
	jle	.LBB0_14
# BB#1:                                 # %if.else
	movl	52(%rsp), %eax
	addl	$34, %eax
	movl	%eax, 20(%rsp)
	testb	$1, 20(%rsp)
	je	.LBB0_3
# BB#2:                                 # %if.then5
	incl	20(%rsp)
.LBB0_3:                                # %if.end
	movslq	20(%rsp), %rax
	addq	64(%rsp), %rax
	movq	%rax, 32(%rsp)
	cmpl	$0, 44(%rsp)
	jg	.LBB0_5
# BB#4:                                 # %if.then7
	movl	$1, 44(%rsp)
.LBB0_5:                                # %if.end8
	cmpl	$101, 44(%rsp)
	jl	.LBB0_7
# BB#6:                                 # %if.then10
	movl	$100, 44(%rsp)
.LBB0_7:                                # %if.end11
	movl	44(%rsp), %eax
	decl	%eax
	movslq	%eax, %rax
	imulq	$1431655766, %rax, %rax # imm = 0x55555556
	movq	%rax, %rcx
	shrq	$63, %rcx
	shrq	$32, %rax
	addl	%ecx, %eax
	leaq	28(%rsp), %r10
	imull	52(%rsp), %eax
	movl	%eax, 24(%rsp)
	movl	%eax, 28(%rsp)
	movl	48(%rsp), %r9d
	movl	52(%rsp), %r8d
	movq	56(%rsp), %rcx
	movq	32(%rsp), %rdx
	movq	64(%rsp), %rsi
	movq	72(%rsp), %rdi
	movq	%r10, (%rsp)
	callq	mainSort
	cmpl	$3, 48(%rsp)
	jl	.LBB0_11
# BB#8:                                 # %if.then13
	movl	24(%rsp), %edx
	subl	28(%rsp), %edx
	cvtsi2ss	%edx, %xmm0
	movl	$1, %eax
	movl	52(%rsp), %ecx
	movq	stderr(%rip), %rdi
	testl	%ecx, %ecx
	je	.LBB0_10
# BB#9:                                 # %cond.false
	movl	52(%rsp), %eax
.LBB0_10:                               # %cond.end
	cvtsi2ss	%eax, %xmm1
	divss	%xmm1, %xmm0
	cvtss2sd	%xmm0, %xmm0
	movl	$.L.str, %esi
	movb	$1, %al
	callq	fprintf
.LBB0_11:                               # %if.end21
	cmpl	$0, 28(%rsp)
	jns	.LBB0_15
# BB#12:                                # %if.then24
	cmpl	$2, 48(%rsp)
	jl	.LBB0_14
# BB#13:                                # %if.then27
	movq	stderr(%rip), %rdi
	movl	$.L.str1, %esi
	xorb	%al, %al
	callq	fprintf
.LBB0_14:                               # %if.end29
	movq	80(%rsp), %rax
	movq	24(%rax), %rdi
	movq	32(%rax), %rsi
	movl	48(%rsp), %r8d
	movl	52(%rsp), %ecx
	movq	56(%rsp), %rdx
	callq	fallbackSort
.LBB0_15:                               # %if.end33
	movq	80(%rsp), %rax
	movl	$-1, 48(%rax)
	movl	$0, 20(%rsp)
	jmp	.LBB0_16
	.align	16, 0x90
.LBB0_22:                               # %for.inc
                                        #   in Loop: Header=BB0_16 Depth=1
	incl	20(%rsp)
.LBB0_16:                               # %for.cond
                                        # =>This Inner Loop Header: Depth=1
	movq	80(%rsp), %rax
	movl	20(%rsp), %ecx
	cmpl	108(%rax), %ecx
	jge	.LBB0_19
# BB#17:                                # %for.body
                                        #   in Loop: Header=BB0_16 Depth=1
	movslq	20(%rsp), %rax
	movq	72(%rsp), %rcx
	cmpl	$0, (%rcx,%rax,4)
	jne	.LBB0_22
# BB#18:                                # %if.then41
	movq	80(%rsp), %rax
	movl	20(%rsp), %ecx
	movl	%ecx, 48(%rax)
.LBB0_19:                               # %for.end
	movq	80(%rsp), %rax
	cmpl	$-1, 48(%rax)
	jne	.LBB0_21
# BB#20:                                # %if.then48
	movl	$1003, %edi             # imm = 0x3EB
	callq	BZ2_bz__AssertH__fail
.LBB0_21:                               # %if.end49
	addq	$88, %rsp
	ret
.Ltmp2:
	.size	BZ2_blockSort, .Ltmp2-BZ2_blockSort
	.cfi_endproc

	.align	16, 0x90
	.type	fallbackSort,@function
fallbackSort:                           # @fallbackSort
	.cfi_startproc
# BB#0:                                 # %entry
	subq	$2136, %rsp             # imm = 0x858
.Ltmp4:
	.cfi_def_cfa_offset 2144
	movq	%rdi, 2128(%rsp)
	movq	%rsi, 2120(%rsp)
	movq	%rdx, 2112(%rsp)
	movl	%ecx, 2108(%rsp)
	movl	%r8d, 2104(%rsp)
	movq	2120(%rsp), %rax
	movq	%rax, (%rsp)
	cmpl	$4, 2104(%rsp)
	jl	.LBB1_2
# BB#1:                                 # %if.then
	movq	stderr(%rip), %rdi
	movl	$.L.str3, %esi
	xorb	%al, %al
	callq	fprintf
.LBB1_2:                                # %if.end
	movl	$0, 40(%rsp)
	jmp	.LBB1_3
	.align	16, 0x90
.LBB1_4:                                # %for.inc
                                        #   in Loop: Header=BB1_3 Depth=1
	movslq	40(%rsp), %rax
	movl	$0, 1072(%rsp,%rax,4)
	incl	40(%rsp)
.LBB1_3:                                # %for.cond
                                        # =>This Inner Loop Header: Depth=1
	cmpl	$256, 40(%rsp)          # imm = 0x100
	jle	.LBB1_4
# BB#5:                                 # %for.end
	movl	$0, 40(%rsp)
	jmp	.LBB1_6
	.align	16, 0x90
.LBB1_7:                                # %for.inc10
                                        #   in Loop: Header=BB1_6 Depth=1
	movslq	40(%rsp), %rax
	movq	(%rsp), %rcx
	movzbl	(%rcx,%rax), %eax
	incl	1072(%rsp,%rax,4)
	incl	40(%rsp)
.LBB1_6:                                # %for.cond2
                                        # =>This Inner Loop Header: Depth=1
	movl	40(%rsp), %eax
	cmpl	2108(%rsp), %eax
	jl	.LBB1_7
# BB#8:                                 # %for.end12
	movl	$0, 40(%rsp)
	jmp	.LBB1_9
	.align	16, 0x90
.LBB1_10:                               # %for.inc20
                                        #   in Loop: Header=BB1_9 Depth=1
	movslq	40(%rsp), %rax
	movl	1072(%rsp,%rax,4), %ecx
	movl	%ecx, 48(%rsp,%rax,4)
	incl	40(%rsp)
.LBB1_9:                                # %for.cond13
                                        # =>This Inner Loop Header: Depth=1
	cmpl	$255, 40(%rsp)
	jle	.LBB1_10
# BB#11:                                # %for.end22
	movl	$1, 40(%rsp)
	jmp	.LBB1_12
	.align	16, 0x90
.LBB1_13:                               # %for.inc30
                                        #   in Loop: Header=BB1_12 Depth=1
	movslq	40(%rsp), %rax
	leal	-1(%rax), %ecx
	movslq	%ecx, %rcx
	movl	1072(%rsp,%rcx,4), %ecx
	addl	%ecx, 1072(%rsp,%rax,4)
	incl	40(%rsp)
.LBB1_12:                               # %for.cond23
                                        # =>This Inner Loop Header: Depth=1
	cmpl	$256, 40(%rsp)          # imm = 0x100
	jle	.LBB1_13
# BB#14:                                # %for.end32
	movl	$0, 40(%rsp)
	jmp	.LBB1_15
	.align	16, 0x90
.LBB1_16:                               # %for.inc45
                                        #   in Loop: Header=BB1_15 Depth=1
	movslq	40(%rsp), %rax
	movq	(%rsp), %rcx
	movzbl	(%rcx,%rax), %eax
	movl	%eax, 36(%rsp)
	movslq	36(%rsp), %rax
	movl	1072(%rsp,%rax,4), %eax
	decl	%eax
	movl	%eax, 32(%rsp)
	movslq	36(%rsp), %rcx
	movl	%eax, 1072(%rsp,%rcx,4)
	movq	2128(%rsp), %rax
	movslq	32(%rsp), %rcx
	movl	40(%rsp), %edx
	movl	%edx, (%rax,%rcx,4)
	incl	40(%rsp)
.LBB1_15:                               # %for.cond33
                                        # =>This Inner Loop Header: Depth=1
	movl	40(%rsp), %eax
	cmpl	2108(%rsp), %eax
	jl	.LBB1_16
# BB#17:                                # %for.end47
	movl	2108(%rsp), %ecx
	movl	%ecx, %eax
	sarl	$31, %eax
	shrl	$27, %eax
	addl	%ecx, %eax
	sarl	$5, %eax
	addl	$2, %eax
	movl	%eax, 8(%rsp)
	movl	$0, 40(%rsp)
	jmp	.LBB1_18
	.align	16, 0x90
.LBB1_19:                               # %for.inc55
                                        #   in Loop: Header=BB1_18 Depth=1
	movq	2112(%rsp), %rax
	movslq	40(%rsp), %rcx
	movl	$0, (%rax,%rcx,4)
	incl	40(%rsp)
.LBB1_18:                               # %for.cond49
                                        # =>This Inner Loop Header: Depth=1
	movl	40(%rsp), %eax
	cmpl	8(%rsp), %eax
	jl	.LBB1_19
# BB#20:                                # %for.end57
	movl	$0, 40(%rsp)
	jmp	.LBB1_21
	.align	16, 0x90
.LBB1_22:                               # %for.inc68
                                        #   in Loop: Header=BB1_21 Depth=1
	movslq	40(%rsp), %rax
	movl	1072(%rsp,%rax,4), %ecx
	movl	$1, %eax
	shll	%cl, %eax
	sarl	$5, %ecx
	movslq	%ecx, %rcx
	movq	2112(%rsp), %rdx
	orl	%eax, (%rdx,%rcx,4)
	incl	40(%rsp)
.LBB1_21:                               # %for.cond58
                                        # =>This Inner Loop Header: Depth=1
	cmpl	$255, 40(%rsp)
	jle	.LBB1_22
# BB#23:                                # %for.end70
	movl	$0, 40(%rsp)
	jmp	.LBB1_24
	.align	16, 0x90
.LBB1_25:                               # %for.inc96
                                        #   in Loop: Header=BB1_24 Depth=1
	movl	40(%rsp), %ecx
	addl	%ecx, %ecx
	addl	2108(%rsp), %ecx
	movl	$1, %eax
	shll	%cl, %eax
	sarl	$5, %ecx
	movslq	%ecx, %rcx
	movq	2112(%rsp), %rdx
	orl	%eax, (%rdx,%rcx,4)
	movl	40(%rsp), %eax
	movl	2108(%rsp), %ecx
	leal	1(%rcx,%rax,2), %ecx
	movl	%ecx, %eax
	sarl	$5, %eax
	movslq	%eax, %rax
                                        # kill: CL<def> CL<kill> ECX<kill>
	movl	$1, %edx
	shll	%cl, %edx
	notl	%edx
	movq	2112(%rsp), %rcx
	andl	%edx, (%rcx,%rax,4)
	incl	40(%rsp)
.LBB1_24:                               # %for.cond71
                                        # =>This Inner Loop Header: Depth=1
	cmpl	$31, 40(%rsp)
	jle	.LBB1_25
# BB#26:                                # %for.end98
	movl	$1, 44(%rsp)
	.align	16, 0x90
.LBB1_27:                               # %while.body
                                        # =>This Loop Header: Depth=1
                                        #     Child Loop BB1_30 Depth 2
                                        #     Child Loop BB1_37 Depth 2
                                        #       Child Loop BB1_38 Depth 3
                                        #       Child Loop BB1_43 Depth 3
                                        #       Child Loop BB1_45 Depth 3
                                        #       Child Loop BB1_48 Depth 3
                                        #       Child Loop BB1_53 Depth 3
                                        #       Child Loop BB1_55 Depth 3
                                        #       Child Loop BB1_60 Depth 3
	cmpl	$4, 2104(%rsp)
	jl	.LBB1_29
# BB#28:                                # %if.then101
                                        #   in Loop: Header=BB1_27 Depth=1
	movl	44(%rsp), %edx
	movq	stderr(%rip), %rdi
	movl	$.L.str6, %esi
	xorb	%al, %al
	callq	fprintf
.LBB1_29:                               # %if.end103
                                        #   in Loop: Header=BB1_27 Depth=1
	movl	$0, 36(%rsp)
	movl	$0, 40(%rsp)
	jmp	.LBB1_30
	.align	16, 0x90
.LBB1_35:                               # %for.inc126
                                        #   in Loop: Header=BB1_30 Depth=2
	movq	2120(%rsp), %rax
	movslq	32(%rsp), %rcx
	movl	36(%rsp), %edx
	movl	%edx, (%rax,%rcx,4)
	incl	40(%rsp)
.LBB1_30:                               # %for.cond104
                                        #   Parent Loop BB1_27 Depth=1
                                        # =>  This Inner Loop Header: Depth=2
	movl	40(%rsp), %eax
	cmpl	2108(%rsp), %eax
	jge	.LBB1_36
# BB#31:                                # %for.body107
                                        #   in Loop: Header=BB1_30 Depth=2
	movl	40(%rsp), %eax
	movl	%eax, %ecx
	sarl	$5, %ecx
	movslq	%ecx, %rcx
	movq	2112(%rsp), %rdx
	movl	(%rdx,%rcx,4), %ecx
	btl	%eax, %ecx
	jae	.LBB1_33
# BB#32:                                # %if.then114
                                        #   in Loop: Header=BB1_30 Depth=2
	movl	40(%rsp), %eax
	movl	%eax, 36(%rsp)
.LBB1_33:                               # %if.end115
                                        #   in Loop: Header=BB1_30 Depth=2
	movslq	40(%rsp), %rax
	movq	2128(%rsp), %rcx
	movl	(%rcx,%rax,4), %eax
	subl	44(%rsp), %eax
	movl	%eax, 32(%rsp)
	jns	.LBB1_35
# BB#34:                                # %if.then121
                                        #   in Loop: Header=BB1_30 Depth=2
	movl	2108(%rsp), %eax
	addl	%eax, 32(%rsp)
	jmp	.LBB1_35
	.align	16, 0x90
.LBB1_36:                               # %for.end128
                                        #   in Loop: Header=BB1_27 Depth=1
	movl	$0, 12(%rsp)
	movl	$-1, 24(%rsp)
	jmp	.LBB1_37
	.align	16, 0x90
.LBB1_58:                               # %if.end226
                                        #   in Loop: Header=BB1_37 Depth=2
	movl	24(%rsp), %eax
	cmpl	28(%rsp), %eax
	jle	.LBB1_37
# BB#59:                                # %if.then229
                                        #   in Loop: Header=BB1_37 Depth=2
	movl	24(%rsp), %eax
	subl	28(%rsp), %eax
	movl	12(%rsp), %ecx
	leal	1(%rax,%rcx), %eax
	movl	%eax, 12(%rsp)
	movl	24(%rsp), %ecx
	movl	28(%rsp), %edx
	movq	2120(%rsp), %rsi
	movq	2128(%rsp), %rdi
	callq	fallbackQSort3
	movl	$-1, 20(%rsp)
	movl	28(%rsp), %eax
	movl	%eax, 40(%rsp)
	jmp	.LBB1_60
	.align	16, 0x90
.LBB1_63:                               # %for.inc251
                                        #   in Loop: Header=BB1_60 Depth=3
	incl	40(%rsp)
.LBB1_60:                               # %for.cond233
                                        #   Parent Loop BB1_27 Depth=1
                                        #     Parent Loop BB1_37 Depth=2
                                        # =>    This Inner Loop Header: Depth=3
	movl	40(%rsp), %eax
	cmpl	24(%rsp), %eax
	jg	.LBB1_37
# BB#61:                                # %for.body236
                                        #   in Loop: Header=BB1_60 Depth=3
	movslq	40(%rsp), %rax
	movq	2128(%rsp), %rcx
	movl	(%rcx,%rax,4), %eax
	movq	2120(%rsp), %rcx
	movl	(%rcx,%rax,4), %eax
	movl	%eax, 16(%rsp)
	cmpl	%eax, 20(%rsp)
	je	.LBB1_63
# BB#62:                                # %if.then243
                                        #   in Loop: Header=BB1_60 Depth=3
	movl	40(%rsp), %ecx
	movl	$1, %eax
	shll	%cl, %eax
	sarl	$5, %ecx
	movslq	%ecx, %rcx
	movq	2112(%rsp), %rdx
	orl	%eax, (%rdx,%rcx,4)
	movl	16(%rsp), %eax
	movl	%eax, 20(%rsp)
	jmp	.LBB1_63
	.align	16, 0x90
.LBB1_37:                               # %while.body130
                                        #   Parent Loop BB1_27 Depth=1
                                        # =>  This Loop Header: Depth=2
                                        #       Child Loop BB1_38 Depth 3
                                        #       Child Loop BB1_43 Depth 3
                                        #       Child Loop BB1_45 Depth 3
                                        #       Child Loop BB1_48 Depth 3
                                        #       Child Loop BB1_53 Depth 3
                                        #       Child Loop BB1_55 Depth 3
                                        #       Child Loop BB1_60 Depth 3
	movl	24(%rsp), %eax
	incl	%eax
	movl	%eax, 32(%rsp)
	jmp	.LBB1_38
	.align	16, 0x90
.LBB1_41:                               # %while.body142
                                        #   in Loop: Header=BB1_38 Depth=3
	incl	32(%rsp)
.LBB1_38:                               # %while.cond132
                                        #   Parent Loop BB1_27 Depth=1
                                        #     Parent Loop BB1_37 Depth=2
                                        # =>    This Inner Loop Header: Depth=3
	movl	32(%rsp), %ecx
	movl	%ecx, %eax
	sarl	$5, %eax
	movslq	%eax, %rax
	movq	2112(%rsp), %rdx
	movl	(%rdx,%rax,4), %edx
	xorb	%al, %al
	btl	%ecx, %edx
	jae	.LBB1_40
# BB#39:                                # %land.rhs
                                        #   in Loop: Header=BB1_38 Depth=3
	testb	$31, 32(%rsp)
	setne	%al
.LBB1_40:                               # %land.end
                                        #   in Loop: Header=BB1_38 Depth=3
	cmpb	$1, %al
	je	.LBB1_41
# BB#42:                                # %while.end
                                        #   in Loop: Header=BB1_37 Depth=2
	movl	32(%rsp), %eax
	movl	%eax, %ecx
	sarl	$5, %ecx
	movslq	%ecx, %rcx
	movq	2112(%rsp), %rdx
	movl	(%rdx,%rcx,4), %ecx
	btl	%eax, %ecx
	jae	.LBB1_47
	jmp	.LBB1_43
	.align	16, 0x90
.LBB1_44:                               # %while.body158
                                        #   in Loop: Header=BB1_43 Depth=3
	addl	$32, 32(%rsp)
.LBB1_43:                               # %while.cond152
                                        #   Parent Loop BB1_27 Depth=1
                                        #     Parent Loop BB1_37 Depth=2
                                        # =>    This Inner Loop Header: Depth=3
	movl	32(%rsp), %eax
	sarl	$5, %eax
	movslq	%eax, %rax
	movq	2112(%rsp), %rcx
	cmpl	$-1, (%rcx,%rax,4)
	jne	.LBB1_45
	jmp	.LBB1_44
	.align	16, 0x90
.LBB1_46:                               # %while.body169
                                        #   in Loop: Header=BB1_45 Depth=3
	incl	32(%rsp)
.LBB1_45:                               # %while.cond161
                                        #   Parent Loop BB1_27 Depth=1
                                        #     Parent Loop BB1_37 Depth=2
                                        # =>    This Inner Loop Header: Depth=3
	movl	32(%rsp), %eax
	movl	%eax, %ecx
	sarl	$5, %ecx
	movslq	%ecx, %rcx
	movq	2112(%rsp), %rdx
	movl	(%rdx,%rcx,4), %ecx
	btl	%eax, %ecx
	jb	.LBB1_46
.LBB1_47:                               # %if.end172
                                        #   in Loop: Header=BB1_37 Depth=2
	movl	32(%rsp), %eax
	decl	%eax
	movl	%eax, 28(%rsp)
	cmpl	2108(%rsp), %eax
	jge	.LBB1_64
	jmp	.LBB1_48
	.align	16, 0x90
.LBB1_51:                               # %while.body190
                                        #   in Loop: Header=BB1_48 Depth=3
	incl	32(%rsp)
.LBB1_48:                               # %while.cond178
                                        #   Parent Loop BB1_27 Depth=1
                                        #     Parent Loop BB1_37 Depth=2
                                        # =>    This Inner Loop Header: Depth=3
	movl	32(%rsp), %ecx
	movl	%ecx, %eax
	sarl	$5, %eax
	movslq	%eax, %rax
	movq	2112(%rsp), %rdx
	movl	(%rdx,%rax,4), %edx
	xorb	%al, %al
	btl	%ecx, %edx
	jb	.LBB1_50
# BB#49:                                # %land.rhs186
                                        #   in Loop: Header=BB1_48 Depth=3
	testb	$31, 32(%rsp)
	setne	%al
.LBB1_50:                               # %land.end189
                                        #   in Loop: Header=BB1_48 Depth=3
	cmpb	$1, %al
	je	.LBB1_51
# BB#52:                                # %while.end192
                                        #   in Loop: Header=BB1_37 Depth=2
	movl	32(%rsp), %eax
	movl	%eax, %ecx
	sarl	$5, %ecx
	movslq	%ecx, %rcx
	movq	2112(%rsp), %rdx
	movl	(%rdx,%rcx,4), %ecx
	btl	%eax, %ecx
	jb	.LBB1_57
	jmp	.LBB1_53
	.align	16, 0x90
.LBB1_54:                               # %while.body207
                                        #   in Loop: Header=BB1_53 Depth=3
	addl	$32, 32(%rsp)
.LBB1_53:                               # %while.cond201
                                        #   Parent Loop BB1_27 Depth=1
                                        #     Parent Loop BB1_37 Depth=2
                                        # =>    This Inner Loop Header: Depth=3
	movl	32(%rsp), %eax
	sarl	$5, %eax
	movslq	%eax, %rax
	movq	2112(%rsp), %rcx
	cmpl	$0, (%rcx,%rax,4)
	jne	.LBB1_55
	jmp	.LBB1_54
	.align	16, 0x90
.LBB1_56:                               # %while.body218
                                        #   in Loop: Header=BB1_55 Depth=3
	incl	32(%rsp)
.LBB1_55:                               # %while.cond210
                                        #   Parent Loop BB1_27 Depth=1
                                        #     Parent Loop BB1_37 Depth=2
                                        # =>    This Inner Loop Header: Depth=3
	movl	32(%rsp), %eax
	movl	%eax, %ecx
	sarl	$5, %ecx
	movslq	%ecx, %rcx
	movq	2112(%rsp), %rdx
	movl	(%rdx,%rcx,4), %ecx
	btl	%eax, %ecx
	jae	.LBB1_56
.LBB1_57:                               # %if.end221
                                        #   in Loop: Header=BB1_37 Depth=2
	movl	32(%rsp), %eax
	decl	%eax
	movl	%eax, 24(%rsp)
	cmpl	2108(%rsp), %eax
	jl	.LBB1_58
.LBB1_64:                               # %while.end255
                                        #   in Loop: Header=BB1_27 Depth=1
	cmpl	$4, 2104(%rsp)
	jl	.LBB1_66
# BB#65:                                # %if.then258
                                        #   in Loop: Header=BB1_27 Depth=1
	movl	12(%rsp), %edx
	movq	stderr(%rip), %rdi
	movl	$.L.str7, %esi
	xorb	%al, %al
	callq	fprintf
.LBB1_66:                               # %if.end260
                                        #   in Loop: Header=BB1_27 Depth=1
	movl	44(%rsp), %eax
	addl	%eax, %eax
	movl	%eax, 44(%rsp)
	cmpl	2108(%rsp), %eax
	jg	.LBB1_68
# BB#67:                                # %lor.lhs.false
                                        #   in Loop: Header=BB1_27 Depth=1
	cmpl	$0, 12(%rsp)
	jne	.LBB1_27
.LBB1_68:                               # %while.end268
	cmpl	$4, 2104(%rsp)
	jl	.LBB1_70
# BB#69:                                # %if.then271
	movq	stderr(%rip), %rdi
	movl	$.L.str8, %esi
	xorb	%al, %al
	callq	fprintf
.LBB1_70:                               # %if.end273
	movl	$0, 36(%rsp)
	movl	$0, 40(%rsp)
	jmp	.LBB1_71
	.align	16, 0x90
.LBB1_74:                               # %for.inc292
                                        #   in Loop: Header=BB1_71 Depth=1
	movslq	36(%rsp), %rax
	decl	48(%rsp,%rax,4)
	movslq	40(%rsp), %rax
	movq	2128(%rsp), %rcx
	movl	(%rcx,%rax,4), %eax
	movq	(%rsp), %rcx
	movb	36(%rsp), %dl
	movb	%dl, (%rcx,%rax)
	incl	40(%rsp)
.LBB1_71:                               # %for.cond274
                                        # =>This Loop Header: Depth=1
                                        #     Child Loop BB1_72 Depth 2
	movl	40(%rsp), %eax
	cmpl	2108(%rsp), %eax
	jge	.LBB1_75
	jmp	.LBB1_72
	.align	16, 0x90
.LBB1_73:                               # %while.body282
                                        #   in Loop: Header=BB1_72 Depth=2
	incl	36(%rsp)
.LBB1_72:                               # %while.cond
                                        #   Parent Loop BB1_71 Depth=1
                                        # =>  This Inner Loop Header: Depth=2
	movslq	36(%rsp), %rax
	cmpl	$0, 48(%rsp,%rax,4)
	jne	.LBB1_74
	jmp	.LBB1_73
.LBB1_75:                               # %for.end294
	cmpl	$256, 36(%rsp)          # imm = 0x100
	jl	.LBB1_77
# BB#76:                                # %if.then297
	movl	$1005, %edi             # imm = 0x3ED
	callq	BZ2_bz__AssertH__fail
.LBB1_77:                               # %if.end298
	addq	$2136, %rsp             # imm = 0x858
	ret
.Ltmp5:
	.size	fallbackSort, .Ltmp5-fallbackSort
	.cfi_endproc

	.align	16, 0x90
	.type	mainSort,@function
mainSort:                               # @mainSort
	.cfi_startproc
# BB#0:                                 # %entry
	pushq	%rbx
.Ltmp8:
	.cfi_def_cfa_offset 16
	subq	$3472, %rsp             # imm = 0xD90
.Ltmp9:
	.cfi_def_cfa_offset 3488
.Ltmp10:
	.cfi_offset %rbx, -16
	movq	%rdi, 3464(%rsp)
	movq	%rsi, 3456(%rsp)
	movq	%rdx, 3448(%rsp)
	movq	%rcx, 3440(%rsp)
	movl	%r8d, 3436(%rsp)
	movl	%r9d, 3432(%rsp)
	movq	3488(%rsp), %rax
	movq	%rax, 3424(%rsp)
	cmpl	$4, 3432(%rsp)
	jl	.LBB2_2
# BB#1:                                 # %if.then
	movq	stderr(%rip), %rdi
	movl	$.L.str2, %esi
	xorb	%al, %al
	callq	fprintf
.LBB2_2:                                # %if.end
	movl	$65536, 3420(%rsp)      # imm = 0x10000
	jmp	.LBB2_3
	.align	16, 0x90
.LBB2_4:                                # %for.inc
                                        #   in Loop: Header=BB2_3 Depth=1
	movq	3440(%rsp), %rax
	movslq	3420(%rsp), %rcx
	movl	$0, (%rax,%rcx,4)
	decl	3420(%rsp)
.LBB2_3:                                # %for.cond
                                        # =>This Inner Loop Header: Depth=1
	cmpl	$0, 3420(%rsp)
	jns	.LBB2_4
# BB#5:                                 # %for.end
	movq	3456(%rsp), %rax
	movzbl	(%rax), %eax
	shll	$8, %eax
	movl	%eax, 3416(%rsp)
	movl	3436(%rsp), %eax
	decl	%eax
	movl	%eax, 3420(%rsp)
	jmp	.LBB2_6
	.align	16, 0x90
.LBB2_7:                                # %for.inc58
                                        #   in Loop: Header=BB2_6 Depth=1
	movq	3448(%rsp), %rax
	movslq	3420(%rsp), %rcx
	movw	$0, (%rax,%rcx,2)
	movslq	3420(%rsp), %rax
	movq	3456(%rsp), %rcx
	movzbl	(%rcx,%rax), %eax
	shll	$8, %eax
	movl	3416(%rsp), %ecx
	sarl	$8, %ecx
	orl	%eax, %ecx
	movl	%ecx, 3416(%rsp)
	movq	3440(%rsp), %rax
	movslq	3416(%rsp), %rcx
	incl	(%rax,%rcx,4)
	movl	3420(%rsp), %eax
	decl	%eax
	movslq	%eax, %rax
	movq	3448(%rsp), %rcx
	movw	$0, (%rcx,%rax,2)
	movl	3420(%rsp), %eax
	decl	%eax
	movslq	%eax, %rax
	movq	3456(%rsp), %rcx
	movzbl	(%rcx,%rax), %eax
	shll	$8, %eax
	movl	3416(%rsp), %ecx
	sarl	$8, %ecx
	orl	%eax, %ecx
	movl	%ecx, 3416(%rsp)
	movq	3440(%rsp), %rax
	movslq	3416(%rsp), %rcx
	incl	(%rax,%rcx,4)
	movl	3420(%rsp), %eax
	addl	$-2, %eax
	movslq	%eax, %rax
	movq	3448(%rsp), %rcx
	movw	$0, (%rcx,%rax,2)
	movl	3420(%rsp), %eax
	addl	$-2, %eax
	movslq	%eax, %rax
	movq	3456(%rsp), %rcx
	movzbl	(%rcx,%rax), %eax
	shll	$8, %eax
	movl	3416(%rsp), %ecx
	sarl	$8, %ecx
	orl	%eax, %ecx
	movl	%ecx, 3416(%rsp)
	movq	3440(%rsp), %rax
	movslq	3416(%rsp), %rcx
	incl	(%rax,%rcx,4)
	movl	3420(%rsp), %eax
	addl	$-3, %eax
	movslq	%eax, %rax
	movq	3448(%rsp), %rcx
	movw	$0, (%rcx,%rax,2)
	movl	3420(%rsp), %eax
	addl	$-3, %eax
	movslq	%eax, %rax
	movq	3456(%rsp), %rcx
	movzbl	(%rcx,%rax), %eax
	shll	$8, %eax
	movl	3416(%rsp), %ecx
	sarl	$8, %ecx
	orl	%eax, %ecx
	movl	%ecx, 3416(%rsp)
	movq	3440(%rsp), %rax
	movslq	3416(%rsp), %rcx
	incl	(%rax,%rcx,4)
	addl	$-4, 3420(%rsp)
.LBB2_6:                                # %for.cond3
                                        # =>This Inner Loop Header: Depth=1
	cmpl	$3, 3420(%rsp)
	jl	.LBB2_8
	jmp	.LBB2_7
	.align	16, 0x90
.LBB2_9:                                # %for.inc77
                                        #   in Loop: Header=BB2_8 Depth=1
	movq	3448(%rsp), %rax
	movslq	3420(%rsp), %rcx
	movw	$0, (%rax,%rcx,2)
	movslq	3420(%rsp), %rax
	movq	3456(%rsp), %rcx
	movzbl	(%rcx,%rax), %eax
	shll	$8, %eax
	movl	3416(%rsp), %ecx
	sarl	$8, %ecx
	orl	%eax, %ecx
	movl	%ecx, 3416(%rsp)
	movq	3440(%rsp), %rax
	movslq	3416(%rsp), %rcx
	incl	(%rax,%rcx,4)
	decl	3420(%rsp)
.LBB2_8:                                # %for.cond61
                                        # =>This Inner Loop Header: Depth=1
	cmpl	$0, 3420(%rsp)
	jns	.LBB2_9
# BB#10:                                # %for.end79
	movl	$0, 3420(%rsp)
	jmp	.LBB2_11
	.align	16, 0x90
.LBB2_12:                               # %for.inc91
                                        #   in Loop: Header=BB2_11 Depth=1
	movslq	3420(%rsp), %rax
	movq	3456(%rsp), %rcx
	movb	(%rcx,%rax), %dl
	addl	3436(%rsp), %eax
	movslq	%eax, %rax
	movb	%dl, (%rcx,%rax)
	movl	3436(%rsp), %eax
	addl	3420(%rsp), %eax
	movslq	%eax, %rax
	movq	3448(%rsp), %rcx
	movw	$0, (%rcx,%rax,2)
	incl	3420(%rsp)
.LBB2_11:                               # %for.cond80
                                        # =>This Inner Loop Header: Depth=1
	cmpl	$33, 3420(%rsp)
	jle	.LBB2_12
# BB#13:                                # %for.end93
	cmpl	$4, 3432(%rsp)
	jl	.LBB2_15
# BB#14:                                # %if.then96
	movq	stderr(%rip), %rdi
	movl	$.L.str3, %esi
	xorb	%al, %al
	callq	fprintf
.LBB2_15:                               # %if.end98
	movl	$1, 3420(%rsp)
	jmp	.LBB2_16
	.align	16, 0x90
.LBB2_17:                               # %for.inc109
                                        #   in Loop: Header=BB2_16 Depth=1
	movslq	3420(%rsp), %rax
	leal	-1(%rax), %ecx
	movslq	%ecx, %rcx
	movq	3440(%rsp), %rdx
	movl	(%rdx,%rcx,4), %ecx
	addl	%ecx, (%rdx,%rax,4)
	incl	3420(%rsp)
.LBB2_16:                               # %for.cond99
                                        # =>This Inner Loop Header: Depth=1
	cmpl	$65536, 3420(%rsp)      # imm = 0x10000
	jle	.LBB2_17
# BB#18:                                # %for.end111
	movq	3456(%rsp), %rax
	movzbl	(%rax), %eax
	shll	$8, %eax
	movw	%ax, 54(%rsp)
	movl	3436(%rsp), %eax
	decl	%eax
	movl	%eax, 3420(%rsp)
	jmp	.LBB2_19
	.align	16, 0x90
.LBB2_20:                               # %for.inc187
                                        #   in Loop: Header=BB2_19 Depth=1
	movslq	3420(%rsp), %rax
	movq	3456(%rsp), %rcx
	movzbl	(%rcx,%rax), %eax
	shll	$8, %eax
	movzwl	54(%rsp), %ecx
	shrl	$8, %ecx
	orl	%eax, %ecx
	movw	%cx, 54(%rsp)
	movzwl	54(%rsp), %eax
	movq	3440(%rsp), %rcx
	movl	(%rcx,%rax,4), %eax
	decl	%eax
	movl	%eax, 3416(%rsp)
	movq	3440(%rsp), %rcx
	movzwl	54(%rsp), %edx
	movl	%eax, (%rcx,%rdx,4)
	movq	3464(%rsp), %rax
	movslq	3416(%rsp), %rcx
	movl	3420(%rsp), %edx
	movl	%edx, (%rax,%rcx,4)
	movl	3420(%rsp), %eax
	decl	%eax
	movslq	%eax, %rax
	movq	3456(%rsp), %rcx
	movzbl	(%rcx,%rax), %eax
	shll	$8, %eax
	movzwl	54(%rsp), %ecx
	shrl	$8, %ecx
	orl	%eax, %ecx
	movw	%cx, 54(%rsp)
	movzwl	54(%rsp), %eax
	movq	3440(%rsp), %rcx
	movl	(%rcx,%rax,4), %eax
	decl	%eax
	movl	%eax, 3416(%rsp)
	movq	3440(%rsp), %rcx
	movzwl	54(%rsp), %edx
	movl	%eax, (%rcx,%rdx,4)
	movl	3420(%rsp), %eax
	decl	%eax
	movq	3464(%rsp), %rcx
	movslq	3416(%rsp), %rdx
	movl	%eax, (%rcx,%rdx,4)
	movl	3420(%rsp), %eax
	addl	$-2, %eax
	movslq	%eax, %rax
	movq	3456(%rsp), %rcx
	movzbl	(%rcx,%rax), %eax
	shll	$8, %eax
	movzwl	54(%rsp), %ecx
	shrl	$8, %ecx
	orl	%eax, %ecx
	movw	%cx, 54(%rsp)
	movzwl	54(%rsp), %eax
	movq	3440(%rsp), %rcx
	movl	(%rcx,%rax,4), %eax
	decl	%eax
	movl	%eax, 3416(%rsp)
	movq	3440(%rsp), %rcx
	movzwl	54(%rsp), %edx
	movl	%eax, (%rcx,%rdx,4)
	movl	3420(%rsp), %eax
	addl	$-2, %eax
	movq	3464(%rsp), %rcx
	movslq	3416(%rsp), %rdx
	movl	%eax, (%rcx,%rdx,4)
	movl	3420(%rsp), %eax
	addl	$-3, %eax
	movslq	%eax, %rax
	movq	3456(%rsp), %rcx
	movzbl	(%rcx,%rax), %eax
	shll	$8, %eax
	movzwl	54(%rsp), %ecx
	shrl	$8, %ecx
	orl	%eax, %ecx
	movw	%cx, 54(%rsp)
	movzwl	54(%rsp), %eax
	movq	3440(%rsp), %rcx
	movl	(%rcx,%rax,4), %eax
	decl	%eax
	movl	%eax, 3416(%rsp)
	movq	3440(%rsp), %rcx
	movzwl	54(%rsp), %edx
	movl	%eax, (%rcx,%rdx,4)
	movl	3420(%rsp), %eax
	addl	$-3, %eax
	movq	3464(%rsp), %rcx
	movslq	3416(%rsp), %rdx
	movl	%eax, (%rcx,%rdx,4)
	addl	$-4, 3420(%rsp)
.LBB2_19:                               # %for.cond117
                                        # =>This Inner Loop Header: Depth=1
	cmpl	$3, 3420(%rsp)
	jl	.LBB2_21
	jmp	.LBB2_20
	.align	16, 0x90
.LBB2_22:                               # %for.inc209
                                        #   in Loop: Header=BB2_21 Depth=1
	movslq	3420(%rsp), %rax
	movq	3456(%rsp), %rcx
	movzbl	(%rcx,%rax), %eax
	shll	$8, %eax
	movzwl	54(%rsp), %ecx
	shrl	$8, %ecx
	orl	%eax, %ecx
	movw	%cx, 54(%rsp)
	movzwl	54(%rsp), %eax
	movq	3440(%rsp), %rcx
	movl	(%rcx,%rax,4), %eax
	decl	%eax
	movl	%eax, 3416(%rsp)
	movq	3440(%rsp), %rcx
	movzwl	54(%rsp), %edx
	movl	%eax, (%rcx,%rdx,4)
	movq	3464(%rsp), %rax
	movslq	3416(%rsp), %rcx
	movl	3420(%rsp), %edx
	movl	%edx, (%rax,%rcx,4)
	decl	3420(%rsp)
.LBB2_21:                               # %for.cond190
                                        # =>This Inner Loop Header: Depth=1
	cmpl	$0, 3420(%rsp)
	jns	.LBB2_22
# BB#23:                                # %for.end211
	movl	$0, 3420(%rsp)
	jmp	.LBB2_24
	.align	16, 0x90
.LBB2_25:                               # %for.inc220
                                        #   in Loop: Header=BB2_24 Depth=1
	movslq	3420(%rsp), %rax
	movb	$0, 2112(%rsp,%rax)
	movslq	3420(%rsp), %rax
	movl	%eax, 2368(%rsp,%rax,4)
	incl	3420(%rsp)
.LBB2_24:                               # %for.cond212
                                        # =>This Inner Loop Header: Depth=1
	cmpl	$255, 3420(%rsp)
	jle	.LBB2_25
# BB#26:                                # %for.end222
	movl	$1, 44(%rsp)
	.align	16, 0x90
.LBB2_27:                               # %do.cond
                                        # =>This Inner Loop Header: Depth=1
	movl	44(%rsp), %eax
	leal	1(%rax,%rax,2), %eax
	movl	%eax, 44(%rsp)
	cmpl	$257, %eax              # imm = 0x101
	jl	.LBB2_27
	.align	16, 0x90
.LBB2_28:                               # %do.body226
                                        # =>This Loop Header: Depth=1
                                        #     Child Loop BB2_29 Depth 2
                                        #       Child Loop BB2_31 Depth 3
	movslq	44(%rsp), %rax
	imulq	$1431655766, %rax, %rax # imm = 0x55555556
	movq	%rax, %rcx
	shrq	$63, %rcx
	shrq	$32, %rax
	addl	%ecx, %eax
	movl	%eax, 44(%rsp)
	movl	%eax, 3420(%rsp)
	jmp	.LBB2_29
	.align	16, 0x90
.LBB2_33:                               # %for.inc270
                                        #   in Loop: Header=BB2_29 Depth=2
	movslq	3416(%rsp), %rax
	movl	48(%rsp), %ecx
	movl	%ecx, 2368(%rsp,%rax,4)
	incl	3420(%rsp)
.LBB2_29:                               # %for.cond227
                                        #   Parent Loop BB2_28 Depth=1
                                        # =>  This Loop Header: Depth=2
                                        #       Child Loop BB2_31 Depth 3
	cmpl	$255, 3420(%rsp)
	jg	.LBB2_34
# BB#30:                                # %for.body230
                                        #   in Loop: Header=BB2_29 Depth=2
	movslq	3420(%rsp), %rax
	movl	2368(%rsp,%rax,4), %eax
	movl	%eax, 48(%rsp)
	movl	3420(%rsp), %eax
	movl	%eax, 3416(%rsp)
	.align	16, 0x90
.LBB2_31:                               # %while.cond
                                        #   Parent Loop BB2_28 Depth=1
                                        #     Parent Loop BB2_29 Depth=2
                                        # =>    This Inner Loop Header: Depth=3
	movl	48(%rsp), %edx
	leal	1(%rdx), %eax
	shll	$8, %eax
	movslq	%eax, %rcx
	movq	3440(%rsp), %rax
	movl	(%rax,%rcx,4), %ecx
	movl	3416(%rsp), %esi
	subl	44(%rsp), %esi
	movslq	%esi, %rsi
	movl	2368(%rsp,%rsi,4), %esi
	shll	$8, %edx
	movslq	%edx, %rdx
	subl	(%rax,%rdx,4), %ecx
	leal	1(%rsi), %edx
	shll	$8, %edx
	movslq	%edx, %rdx
	movl	(%rax,%rdx,4), %edx
	shll	$8, %esi
	movslq	%esi, %rsi
	subl	(%rax,%rsi,4), %edx
	cmpl	%ecx, %edx
	jbe	.LBB2_33
# BB#32:                                # %while.body
                                        #   in Loop: Header=BB2_31 Depth=3
	movslq	3416(%rsp), %rax
	movl	44(%rsp), %edx
	movl	%eax, %ecx
	subl	%edx, %ecx
	movslq	%ecx, %rcx
	movl	2368(%rsp,%rcx,4), %ecx
	movl	%ecx, 2368(%rsp,%rax,4)
	movl	3416(%rsp), %eax
	subl	44(%rsp), %eax
	movl	%eax, 3416(%rsp)
	movl	44(%rsp), %ecx
	decl	%ecx
	cmpl	%ecx, %eax
	jg	.LBB2_31
	jmp	.LBB2_33
	.align	16, 0x90
.LBB2_34:                               # %do.cond273
                                        #   in Loop: Header=BB2_28 Depth=1
	cmpl	$1, 44(%rsp)
	jne	.LBB2_28
# BB#35:                                # %do.end276
	movl	$0, 56(%rsp)
	movl	$0, 3420(%rsp)
	movl	$-2097153, %ebx         # imm = 0xFFFFFFFFFFDFFFFF
	jmp	.LBB2_36
	.align	16, 0x90
.LBB2_84:                               # %for.inc506
                                        #   in Loop: Header=BB2_36 Depth=1
	incl	3420(%rsp)
.LBB2_36:                               # %for.cond277
                                        # =>This Loop Header: Depth=1
                                        #     Child Loop BB2_38 Depth 2
                                        #     Child Loop BB2_50 Depth 2
                                        #     Child Loop BB2_53 Depth 2
                                        #     Child Loop BB2_60 Depth 2
                                        #     Child Loop BB2_71 Depth 2
                                        #     Child Loop BB2_75 Depth 2
                                        #     Child Loop BB2_78 Depth 2
	cmpl	$255, 3420(%rsp)
	jg	.LBB2_85
# BB#37:                                # %for.body280
                                        #   in Loop: Header=BB2_36 Depth=1
	movslq	3420(%rsp), %rax
	movl	2368(%rsp,%rax,4), %eax
	movl	%eax, 3408(%rsp)
	movl	$0, 3416(%rsp)
	jmp	.LBB2_38
	.align	16, 0x90
.LBB2_46:                               # %for.inc326
                                        #   in Loop: Header=BB2_38 Depth=2
	incl	3416(%rsp)
.LBB2_38:                               # %for.cond283
                                        #   Parent Loop BB2_36 Depth=1
                                        # =>  This Inner Loop Header: Depth=2
	cmpl	$255, 3416(%rsp)
	jg	.LBB2_47
# BB#39:                                # %for.body286
                                        #   in Loop: Header=BB2_38 Depth=2
	movl	3416(%rsp), %eax
	cmpl	3408(%rsp), %eax
	je	.LBB2_46
# BB#40:                                # %if.then289
                                        #   in Loop: Header=BB2_38 Depth=2
	movl	3408(%rsp), %eax
	shll	$8, %eax
	addl	3416(%rsp), %eax
	movl	%eax, 3404(%rsp)
	movslq	3404(%rsp), %rax
	movq	3440(%rsp), %rcx
	testb	$32, 2(%rcx,%rax,4)
	jne	.LBB2_45
# BB#41:                                # %if.then294
                                        #   in Loop: Header=BB2_38 Depth=2
	movslq	3404(%rsp), %rax
	movq	3440(%rsp), %rcx
	movl	(%rcx,%rax,4), %eax
	andl	%ebx, %eax
	movl	%eax, 40(%rsp)
	movl	3404(%rsp), %eax
	incl	%eax
	movslq	%eax, %rax
	movq	3440(%rsp), %rcx
	movl	(%rcx,%rax,4), %eax
	andl	%ebx, %eax
	decl	%eax
	movl	%eax, 36(%rsp)
	cmpl	40(%rsp), %eax
	jle	.LBB2_45
# BB#42:                                # %if.then305
                                        #   in Loop: Header=BB2_38 Depth=2
	cmpl	$4, 3432(%rsp)
	jl	.LBB2_44
# BB#43:                                # %if.then308
                                        #   in Loop: Header=BB2_38 Depth=2
	movl	36(%rsp), %r9d
	subl	40(%rsp), %r9d
	incl	%r9d
	movl	56(%rsp), %r8d
	movl	3416(%rsp), %ecx
	movl	3408(%rsp), %edx
	movq	stderr(%rip), %rdi
	movl	$.L.str4, %esi
	xorb	%al, %al
	callq	fprintf
.LBB2_44:                               # %if.end312
                                        #   in Loop: Header=BB2_38 Depth=2
	movl	36(%rsp), %r9d
	movl	40(%rsp), %r8d
	movl	3436(%rsp), %ecx
	movq	3448(%rsp), %rdx
	movq	3456(%rsp), %rsi
	movq	3464(%rsp), %rdi
	movq	3424(%rsp), %rax
	movq	%rax, 8(%rsp)
	movl	$2, (%rsp)
	callq	mainQSort3
	movl	36(%rsp), %eax
	subl	40(%rsp), %eax
	movl	56(%rsp), %ecx
	leal	1(%rax,%rcx), %eax
	movl	%eax, 56(%rsp)
	movq	3424(%rsp), %rax
	cmpl	$0, (%rax)
	js	.LBB2_87
.LBB2_45:                               # %if.end321
                                        #   in Loop: Header=BB2_38 Depth=2
	movq	3440(%rsp), %rax
	movslq	3404(%rsp), %rcx
	orl	$2097152, (%rax,%rcx,4) # imm = 0x200000
	jmp	.LBB2_46
	.align	16, 0x90
.LBB2_47:                               # %for.end328
                                        #   in Loop: Header=BB2_36 Depth=1
	movslq	3408(%rsp), %rax
	cmpb	$0, 2112(%rsp,%rax)
	je	.LBB2_49
# BB#48:                                # %if.then332
                                        #   in Loop: Header=BB2_36 Depth=1
	movl	$1006, %edi             # imm = 0x3EE
	callq	BZ2_bz__AssertH__fail
.LBB2_49:                               # %if.end333
                                        #   in Loop: Header=BB2_36 Depth=1
	movl	$0, 3416(%rsp)
	jmp	.LBB2_50
	.align	16, 0x90
.LBB2_51:                               # %for.inc354
                                        #   in Loop: Header=BB2_50 Depth=2
	movslq	3416(%rsp), %rax
	movl	%eax, %ecx
	shll	$8, %ecx
	addl	3408(%rsp), %ecx
	movslq	%ecx, %rcx
	movq	3440(%rsp), %rdx
	movl	(%rdx,%rcx,4), %ecx
	andl	%ebx, %ecx
	movl	%ecx, 1088(%rsp,%rax,4)
	movslq	3416(%rsp), %rax
	movl	%eax, %ecx
	shll	$8, %ecx
	movl	3408(%rsp), %edx
	leal	1(%rcx,%rdx), %ecx
	movslq	%ecx, %rcx
	movq	3440(%rsp), %rdx
	movl	(%rdx,%rcx,4), %ecx
	andl	%ebx, %ecx
	decl	%ecx
	movl	%ecx, 64(%rsp,%rax,4)
	incl	3416(%rsp)
.LBB2_50:                               # %for.cond334
                                        #   Parent Loop BB2_36 Depth=1
                                        # =>  This Inner Loop Header: Depth=2
	cmpl	$255, 3416(%rsp)
	jle	.LBB2_51
# BB#52:                                # %for.end356
                                        #   in Loop: Header=BB2_36 Depth=1
	movl	3408(%rsp), %eax
	shll	$8, %eax
	movslq	%eax, %rax
	movq	3440(%rsp), %rcx
	movl	(%rcx,%rax,4), %eax
	andl	%ebx, %eax
	movl	%eax, 3416(%rsp)
	jmp	.LBB2_53
	.align	16, 0x90
.LBB2_58:                               # %for.inc387
                                        #   in Loop: Header=BB2_53 Depth=2
	incl	3416(%rsp)
.LBB2_53:                               # %for.cond361
                                        #   Parent Loop BB2_36 Depth=1
                                        # =>  This Inner Loop Header: Depth=2
	movslq	3408(%rsp), %rax
	movl	3416(%rsp), %ecx
	cmpl	1088(%rsp,%rax,4), %ecx
	jge	.LBB2_59
# BB#54:                                # %for.body366
                                        #   in Loop: Header=BB2_53 Depth=2
	movslq	3416(%rsp), %rax
	movq	3464(%rsp), %rcx
	movl	(%rcx,%rax,4), %eax
	decl	%eax
	movl	%eax, 3412(%rsp)
	jns	.LBB2_56
# BB#55:                                # %if.then372
                                        #   in Loop: Header=BB2_53 Depth=2
	movl	3436(%rsp), %eax
	addl	%eax, 3412(%rsp)
.LBB2_56:                               # %if.end374
                                        #   in Loop: Header=BB2_53 Depth=2
	movslq	3412(%rsp), %rax
	movq	3456(%rsp), %rcx
	movb	(%rcx,%rax), %al
	movb	%al, 63(%rsp)
	movzbl	63(%rsp), %eax
	cmpb	$0, 2112(%rsp,%rax)
	jne	.LBB2_58
# BB#57:                                # %if.then380
                                        #   in Loop: Header=BB2_53 Depth=2
	movzbl	63(%rsp), %ecx
	movslq	1088(%rsp,%rcx,4), %rax
	leal	1(%rax), %esi
	movl	3412(%rsp), %edx
	movl	%esi, 1088(%rsp,%rcx,4)
	movq	3464(%rsp), %rcx
	movl	%edx, (%rcx,%rax,4)
	jmp	.LBB2_58
	.align	16, 0x90
.LBB2_59:                               # %for.end389
                                        #   in Loop: Header=BB2_36 Depth=1
	movl	3408(%rsp), %eax
	incl	%eax
	shll	$8, %eax
	movslq	%eax, %rax
	movq	3440(%rsp), %rcx
	movl	(%rcx,%rax,4), %eax
	andl	%ebx, %eax
	decl	%eax
	movl	%eax, 3416(%rsp)
	jmp	.LBB2_60
	.align	16, 0x90
.LBB2_65:                               # %for.inc422
                                        #   in Loop: Header=BB2_60 Depth=2
	decl	3416(%rsp)
.LBB2_60:                               # %for.cond396
                                        #   Parent Loop BB2_36 Depth=1
                                        # =>  This Inner Loop Header: Depth=2
	movslq	3408(%rsp), %rax
	movl	3416(%rsp), %ecx
	cmpl	64(%rsp,%rax,4), %ecx
	jle	.LBB2_66
# BB#61:                                # %for.body401
                                        #   in Loop: Header=BB2_60 Depth=2
	movslq	3416(%rsp), %rax
	movq	3464(%rsp), %rcx
	movl	(%rcx,%rax,4), %eax
	decl	%eax
	movl	%eax, 3412(%rsp)
	jns	.LBB2_63
# BB#62:                                # %if.then407
                                        #   in Loop: Header=BB2_60 Depth=2
	movl	3436(%rsp), %eax
	addl	%eax, 3412(%rsp)
.LBB2_63:                               # %if.end409
                                        #   in Loop: Header=BB2_60 Depth=2
	movslq	3412(%rsp), %rax
	movq	3456(%rsp), %rcx
	movb	(%rcx,%rax), %al
	movb	%al, 63(%rsp)
	movzbl	63(%rsp), %eax
	cmpb	$0, 2112(%rsp,%rax)
	jne	.LBB2_65
# BB#64:                                # %if.then415
                                        #   in Loop: Header=BB2_60 Depth=2
	movzbl	63(%rsp), %ecx
	movslq	64(%rsp,%rcx,4), %rax
	leal	-1(%rax), %esi
	movl	3412(%rsp), %edx
	movl	%esi, 64(%rsp,%rcx,4)
	movq	3464(%rsp), %rcx
	movl	%edx, (%rcx,%rax,4)
	jmp	.LBB2_65
	.align	16, 0x90
.LBB2_66:                               # %for.end424
                                        #   in Loop: Header=BB2_36 Depth=1
	movslq	3408(%rsp), %rax
	movl	1088(%rsp,%rax,4), %ecx
	decl	%ecx
	cmpl	64(%rsp,%rax,4), %ecx
	je	.LBB2_70
# BB#67:                                # %lor.lhs.false
                                        #   in Loop: Header=BB2_36 Depth=1
	movslq	3408(%rsp), %rax
	cmpl	$0, 1088(%rsp,%rax,4)
	jne	.LBB2_69
# BB#68:                                # %land.lhs.true
                                        #   in Loop: Header=BB2_36 Depth=1
	movl	3436(%rsp), %eax
	decl	%eax
	movslq	3408(%rsp), %rcx
	cmpl	%eax, 64(%rsp,%rcx,4)
	je	.LBB2_70
.LBB2_69:                               # %if.then441
                                        #   in Loop: Header=BB2_36 Depth=1
	movl	$1007, %edi             # imm = 0x3EF
	callq	BZ2_bz__AssertH__fail
.LBB2_70:                               # %if.end442
                                        #   in Loop: Header=BB2_36 Depth=1
	movl	$0, 3416(%rsp)
	jmp	.LBB2_71
	.align	16, 0x90
.LBB2_72:                               # %for.inc452
                                        #   in Loop: Header=BB2_71 Depth=2
	movl	3416(%rsp), %eax
	shll	$8, %eax
	addl	3408(%rsp), %eax
	movslq	%eax, %rax
	movq	3440(%rsp), %rcx
	orl	$2097152, (%rcx,%rax,4) # imm = 0x200000
	incl	3416(%rsp)
.LBB2_71:                               # %for.cond443
                                        #   Parent Loop BB2_36 Depth=1
                                        # =>  This Inner Loop Header: Depth=2
	cmpl	$255, 3416(%rsp)
	jle	.LBB2_72
# BB#73:                                # %for.end454
                                        #   in Loop: Header=BB2_36 Depth=1
	movslq	3408(%rsp), %rax
	movb	$1, 2112(%rsp,%rax)
	cmpl	$254, 3420(%rsp)
	jg	.LBB2_84
# BB#74:                                # %if.then459
                                        #   in Loop: Header=BB2_36 Depth=1
	movl	3408(%rsp), %eax
	shll	$8, %eax
	movslq	%eax, %rax
	movq	3440(%rsp), %rcx
	movl	(%rcx,%rax,4), %eax
	andl	%ebx, %eax
	movl	%eax, 32(%rsp)
	movl	3408(%rsp), %ecx
	incl	%ecx
	shll	$8, %ecx
	movslq	%ecx, %rcx
	movq	3440(%rsp), %rdx
	movl	(%rdx,%rcx,4), %ecx
	andl	%ebx, %ecx
	subl	%eax, %ecx
	movl	%ecx, 28(%rsp)
	movl	$0, 24(%rsp)
	jmp	.LBB2_75
	.align	16, 0x90
.LBB2_76:                               # %while.body474
                                        #   in Loop: Header=BB2_75 Depth=2
	incl	24(%rsp)
.LBB2_75:                               # %while.cond470
                                        #   Parent Loop BB2_36 Depth=1
                                        # =>  This Inner Loop Header: Depth=2
	movb	24(%rsp), %cl
	movl	28(%rsp), %eax
	sarl	%cl, %eax
	cmpl	$65535, %eax            # imm = 0xFFFF
	jge	.LBB2_76
# BB#77:                                # %while.end476
                                        #   in Loop: Header=BB2_36 Depth=1
	movl	28(%rsp), %eax
	decl	%eax
	movl	%eax, 3416(%rsp)
	jmp	.LBB2_78
	.align	16, 0x90
.LBB2_81:                               # %for.inc496
                                        #   in Loop: Header=BB2_78 Depth=2
	decl	3416(%rsp)
.LBB2_78:                               # %for.cond478
                                        #   Parent Loop BB2_36 Depth=1
                                        # =>  This Inner Loop Header: Depth=2
	cmpl	$0, 3416(%rsp)
	js	.LBB2_82
# BB#79:                                # %for.body481
                                        #   in Loop: Header=BB2_78 Depth=2
	movl	32(%rsp), %eax
	addl	3416(%rsp), %eax
	movslq	%eax, %rax
	movq	3464(%rsp), %rcx
	movl	(%rcx,%rax,4), %eax
	movl	%eax, 20(%rsp)
	movb	24(%rsp), %cl
	movl	3416(%rsp), %eax
	sarl	%cl, %eax
	movw	%ax, 18(%rsp)
	movq	3448(%rsp), %rcx
	movslq	20(%rsp), %rdx
	movw	%ax, (%rcx,%rdx,2)
	cmpl	$33, 20(%rsp)
	jg	.LBB2_81
# BB#80:                                # %if.then491
                                        #   in Loop: Header=BB2_78 Depth=2
	movl	20(%rsp), %eax
	addl	3436(%rsp), %eax
	movslq	%eax, %rax
	movq	3448(%rsp), %rcx
	movw	18(%rsp), %dx
	movw	%dx, (%rcx,%rax,2)
	jmp	.LBB2_81
	.align	16, 0x90
.LBB2_82:                               # %for.end498
                                        #   in Loop: Header=BB2_36 Depth=1
	movl	28(%rsp), %eax
	decl	%eax
	movb	24(%rsp), %cl
	sarl	%cl, %eax
	cmpl	$65536, %eax            # imm = 0x10000
	jl	.LBB2_84
# BB#83:                                # %if.then503
                                        #   in Loop: Header=BB2_36 Depth=1
	movl	$1002, %edi             # imm = 0x3EA
	callq	BZ2_bz__AssertH__fail
	jmp	.LBB2_84
.LBB2_85:                               # %for.end508
	cmpl	$4, 3432(%rsp)
	jl	.LBB2_87
# BB#86:                                # %if.then511
	movl	56(%rsp), %ecx
	movl	3436(%rsp), %edx
	movl	%edx, %r8d
	subl	%ecx, %r8d
	movq	stderr(%rip), %rdi
	movl	$.L.str5, %esi
	xorb	%al, %al
	callq	fprintf
.LBB2_87:                               # %if.end514
	addq	$3472, %rsp             # imm = 0xD90
	popq	%rbx
	ret
.Ltmp11:
	.size	mainSort, .Ltmp11-mainSort
	.cfi_endproc

	.align	16, 0x90
	.type	mainQSort3,@function
mainQSort3:                             # @mainQSort3
	.cfi_startproc
# BB#0:                                 # %entry
	subq	$1416, %rsp             # imm = 0x588
.Ltmp13:
	.cfi_def_cfa_offset 1424
	movq	%rdi, 1408(%rsp)
	movq	%rsi, 1400(%rsp)
	movq	%rdx, 1392(%rsp)
	movl	%ecx, 1388(%rsp)
	movl	%r8d, 1384(%rsp)
	movl	%r9d, 1380(%rsp)
	movq	1432(%rsp), %rax
	movl	1424(%rsp), %ecx
	movl	%ecx, 1376(%rsp)
	movq	%rax, 1368(%rsp)
	movl	$0, 1336(%rsp)
	movslq	1336(%rsp), %rax
	movl	1384(%rsp), %ecx
	movl	%ecx, 912(%rsp,%rax,4)
	movslq	1336(%rsp), %rax
	movl	1380(%rsp), %ecx
	movl	%ecx, 512(%rsp,%rax,4)
	movslq	1336(%rsp), %rax
	movl	1376(%rsp), %ecx
	jmp	.LBB3_1
	.align	16, 0x90
.LBB3_43:                               # %if.end271
                                        #   in Loop: Header=BB3_1 Depth=1
	movslq	1336(%rsp), %rax
	movl	100(%rsp), %ecx
	movl	%ecx, 912(%rsp,%rax,4)
	movslq	1336(%rsp), %rax
	movl	88(%rsp), %ecx
	movl	%ecx, 512(%rsp,%rax,4)
	movslq	1336(%rsp), %rax
	movl	76(%rsp), %ecx
	movl	%ecx, 112(%rsp,%rax,4)
	incl	1336(%rsp)
	movslq	1336(%rsp), %rax
	movl	104(%rsp), %ecx
	movl	%ecx, 912(%rsp,%rax,4)
	movslq	1336(%rsp), %rax
	movl	92(%rsp), %ecx
	movl	%ecx, 512(%rsp,%rax,4)
	movslq	1336(%rsp), %rax
	movl	80(%rsp), %ecx
	movl	%ecx, 112(%rsp,%rax,4)
	incl	1336(%rsp)
	movslq	1336(%rsp), %rax
	movl	108(%rsp), %ecx
	movl	%ecx, 912(%rsp,%rax,4)
	movslq	1336(%rsp), %rax
	movl	96(%rsp), %ecx
	movl	%ecx, 512(%rsp,%rax,4)
	movslq	1336(%rsp), %rax
	movl	84(%rsp), %ecx
.LBB3_1:                                # %entry
                                        # =>This Loop Header: Depth=1
                                        #     Child Loop BB3_2 Depth 2
                                        #       Child Loop BB3_3 Depth 3
                                        #       Child Loop BB3_11 Depth 3
                                        #         Child Loop BB3_16 Depth 4
                                        #     Child Loop BB3_29 Depth 2
                                        #     Child Loop BB3_35 Depth 2
	movl	%ecx, 112(%rsp,%rax,4)
	jmp	.LBB3_2
	.align	16, 0x90
.LBB3_24:                               # %if.then120
                                        #   in Loop: Header=BB3_2 Depth=2
	movslq	1336(%rsp), %rax
	movl	1332(%rsp), %ecx
	movl	%ecx, 912(%rsp,%rax,4)
	movslq	1336(%rsp), %rax
	movl	1328(%rsp), %ecx
	movl	%ecx, 512(%rsp,%rax,4)
	movl	1324(%rsp), %eax
	incl	%eax
	movslq	1336(%rsp), %rcx
	movl	%eax, 112(%rsp,%rcx,4)
.LBB3_2:                                # %entry
                                        #   Parent Loop BB3_1 Depth=1
                                        # =>  This Loop Header: Depth=2
                                        #       Child Loop BB3_3 Depth 3
                                        #       Child Loop BB3_11 Depth 3
                                        #         Child Loop BB3_16 Depth 4
	incl	1336(%rsp)
.LBB3_3:                                # %while.cond
                                        #   Parent Loop BB3_1 Depth=1
                                        #     Parent Loop BB3_2 Depth=2
                                        # =>    This Inner Loop Header: Depth=3
	cmpl	$0, 1336(%rsp)
	jle	.LBB3_9
# BB#4:                                 # %while.body
                                        #   in Loop: Header=BB3_3 Depth=3
	cmpl	$100, 1336(%rsp)
	jl	.LBB3_6
# BB#5:                                 # %if.then
                                        #   in Loop: Header=BB3_3 Depth=3
	movl	$1001, %edi             # imm = 0x3E9
	callq	BZ2_bz__AssertH__fail
.LBB3_6:                                # %if.end
                                        #   in Loop: Header=BB3_3 Depth=3
	decl	1336(%rsp)
	movslq	1336(%rsp), %rax
	movl	912(%rsp,%rax,4), %eax
	movl	%eax, 1332(%rsp)
	movslq	1336(%rsp), %rax
	movl	512(%rsp,%rax,4), %eax
	movl	%eax, 1328(%rsp)
	movslq	1336(%rsp), %rax
	movl	112(%rsp,%rax,4), %eax
	movl	%eax, 1324(%rsp)
	movl	1328(%rsp), %eax
	subl	1332(%rsp), %eax
	cmpl	$20, %eax
	jl	.LBB3_8
# BB#7:                                 # %lor.lhs.false
                                        #   in Loop: Header=BB3_3 Depth=3
	cmpl	$15, 1324(%rsp)
	jl	.LBB3_10
.LBB3_8:                                # %if.then14
                                        #   in Loop: Header=BB3_3 Depth=3
	movl	1328(%rsp), %r9d
	movl	1332(%rsp), %r8d
	movl	1388(%rsp), %ecx
	movq	1392(%rsp), %rdx
	movq	1400(%rsp), %rsi
	movq	1408(%rsp), %rdi
	movl	1324(%rsp), %r10d
	movq	1368(%rsp), %rax
	movq	%rax, 8(%rsp)
	movl	%r10d, (%rsp)
	callq	mainSimpleSort
	movq	1368(%rsp), %rax
	cmpl	$0, (%rax)
	jns	.LBB3_3
	jmp	.LBB3_9
	.align	16, 0x90
.LBB3_10:                               # %if.end18
                                        #   in Loop: Header=BB3_2 Depth=2
	movslq	1332(%rsp), %rdx
	movq	1408(%rsp), %r8
	movl	1324(%rsp), %eax
	movl	(%r8,%rdx,4), %edi
	addl	%eax, %edi
	movslq	1328(%rsp), %r9
	movl	(%r8,%r9,4), %esi
	addl	%eax, %esi
	movq	1400(%rsp), %rcx
	movzbl	(%rcx,%rsi), %esi
	movzbl	(%rcx,%rdi), %edi
	addl	%r9d, %edx
	sarl	%edx
	movslq	%edx, %rdx
	addl	(%r8,%rdx,4), %eax
	movzbl	(%rcx,%rax), %edx
	callq	mmed3
	movzbl	%al, %eax
	movl	%eax, 1340(%rsp)
	movl	1332(%rsp), %eax
	movl	%eax, 1356(%rsp)
	movl	%eax, 1364(%rsp)
	movl	1328(%rsp), %eax
	movl	%eax, 1352(%rsp)
	movl	%eax, 1360(%rsp)
	jmp	.LBB3_11
	.align	16, 0x90
.LBB3_22:                               # %if.end105
                                        #   in Loop: Header=BB3_11 Depth=3
	movslq	1364(%rsp), %rax
	movq	1408(%rsp), %rcx
	movl	(%rcx,%rax,4), %eax
	movl	%eax, 64(%rsp)
	movslq	1360(%rsp), %rcx
	movq	1408(%rsp), %rax
	movl	(%rax,%rcx,4), %ecx
	movslq	1364(%rsp), %rdx
	movl	%ecx, (%rax,%rdx,4)
	movq	1408(%rsp), %rax
	movslq	1360(%rsp), %rcx
	movl	64(%rsp), %edx
	movl	%edx, (%rax,%rcx,4)
	incl	1364(%rsp)
	decl	1360(%rsp)
.LBB3_11:                               # %while.body37
                                        #   Parent Loop BB3_1 Depth=1
                                        #     Parent Loop BB3_2 Depth=2
                                        # =>    This Loop Header: Depth=3
                                        #         Child Loop BB3_16 Depth 4
	movl	1364(%rsp), %eax
	cmpl	1360(%rsp), %eax
	jg	.LBB3_16
# BB#12:                                # %if.end41
                                        #   in Loop: Header=BB3_11 Depth=3
	movslq	1364(%rsp), %rax
	movq	1408(%rsp), %rcx
	movl	(%rcx,%rax,4), %eax
	addl	1324(%rsp), %eax
	movq	1400(%rsp), %rcx
	movzbl	(%rcx,%rax), %eax
	subl	1340(%rsp), %eax
	movl	%eax, 1348(%rsp)
	jne	.LBB3_14
# BB#13:                                # %if.then51
                                        #   in Loop: Header=BB3_11 Depth=3
	movslq	1364(%rsp), %rax
	movq	1408(%rsp), %rcx
	movl	(%rcx,%rax,4), %eax
	movl	%eax, 72(%rsp)
	movslq	1356(%rsp), %rcx
	movq	1408(%rsp), %rax
	movl	(%rax,%rcx,4), %ecx
	movslq	1364(%rsp), %rdx
	movl	%ecx, (%rax,%rdx,4)
	movq	1408(%rsp), %rax
	movslq	1356(%rsp), %rcx
	movl	72(%rsp), %edx
	movl	%edx, (%rax,%rcx,4)
	incl	1356(%rsp)
	incl	1364(%rsp)
	jmp	.LBB3_11
	.align	16, 0x90
.LBB3_14:                               # %if.end62
                                        #   in Loop: Header=BB3_11 Depth=3
	cmpl	$0, 1348(%rsp)
	jg	.LBB3_16
# BB#15:                                # %if.end66
                                        #   in Loop: Header=BB3_11 Depth=3
	incl	1364(%rsp)
	jmp	.LBB3_11
	.align	16, 0x90
.LBB3_18:                               # %if.then83
                                        #   in Loop: Header=BB3_16 Depth=4
	movslq	1360(%rsp), %rax
	movq	1408(%rsp), %rcx
	movl	(%rcx,%rax,4), %eax
	movl	%eax, 68(%rsp)
	movslq	1352(%rsp), %rcx
	movq	1408(%rsp), %rax
	movl	(%rax,%rcx,4), %ecx
	movslq	1360(%rsp), %rdx
	movl	%ecx, (%rax,%rdx,4)
	movq	1408(%rsp), %rax
	movslq	1352(%rsp), %rcx
	movl	68(%rsp), %edx
	movl	%edx, (%rax,%rcx,4)
	decl	1352(%rsp)
	decl	1360(%rsp)
.LBB3_16:                               # %while.body69
                                        #   Parent Loop BB3_1 Depth=1
                                        #     Parent Loop BB3_2 Depth=2
                                        #       Parent Loop BB3_11 Depth=3
                                        # =>      This Inner Loop Header: Depth=4
	movl	1364(%rsp), %eax
	cmpl	1360(%rsp), %eax
	jg	.LBB3_21
# BB#17:                                # %if.end73
                                        #   in Loop: Header=BB3_16 Depth=4
	movslq	1360(%rsp), %rax
	movq	1408(%rsp), %rcx
	movl	(%rcx,%rax,4), %eax
	addl	1324(%rsp), %eax
	movq	1400(%rsp), %rcx
	movzbl	(%rcx,%rax), %eax
	subl	1340(%rsp), %eax
	movl	%eax, 1348(%rsp)
	je	.LBB3_18
# BB#19:                                # %if.end95
                                        #   in Loop: Header=BB3_16 Depth=4
	cmpl	$0, 1348(%rsp)
	js	.LBB3_21
# BB#20:                                # %if.end99
                                        #   in Loop: Header=BB3_16 Depth=4
	decl	1360(%rsp)
	jmp	.LBB3_16
	.align	16, 0x90
.LBB3_21:                               # %while.end101
                                        #   in Loop: Header=BB3_11 Depth=3
	movl	1364(%rsp), %eax
	cmpl	1360(%rsp), %eax
	jle	.LBB3_22
# BB#23:                                # %while.end117
                                        #   in Loop: Header=BB3_2 Depth=2
	movl	1352(%rsp), %eax
	cmpl	1356(%rsp), %eax
	jl	.LBB3_24
# BB#25:                                # %if.end129
                                        #   in Loop: Header=BB3_1 Depth=1
	movl	1356(%rsp), %eax
	movl	1364(%rsp), %ecx
	subl	%eax, %ecx
	subl	1332(%rsp), %eax
	cmpl	%ecx, %eax
	jge	.LBB3_27
# BB#26:                                # %cond.true
                                        #   in Loop: Header=BB3_1 Depth=1
	movl	1356(%rsp), %eax
	subl	1332(%rsp), %eax
	jmp	.LBB3_28
	.align	16, 0x90
.LBB3_27:                               # %cond.false
                                        #   in Loop: Header=BB3_1 Depth=1
	movl	1364(%rsp), %eax
	subl	1356(%rsp), %eax
.LBB3_28:                               # %cond.end
                                        #   in Loop: Header=BB3_1 Depth=1
	movl	%eax, 1348(%rsp)
	movl	1332(%rsp), %eax
	movl	%eax, 60(%rsp)
	movl	1364(%rsp), %eax
	subl	1348(%rsp), %eax
	movl	%eax, 56(%rsp)
	movl	1348(%rsp), %eax
	movl	%eax, 52(%rsp)
	jmp	.LBB3_29
	.align	16, 0x90
.LBB3_30:                               # %while.body140
                                        #   in Loop: Header=BB3_29 Depth=2
	movslq	60(%rsp), %rax
	movq	1408(%rsp), %rcx
	movl	(%rcx,%rax,4), %eax
	movl	%eax, 48(%rsp)
	movslq	56(%rsp), %rcx
	movq	1408(%rsp), %rax
	movl	(%rax,%rcx,4), %ecx
	movslq	60(%rsp), %rdx
	movl	%ecx, (%rax,%rdx,4)
	movq	1408(%rsp), %rax
	movslq	56(%rsp), %rcx
	movl	48(%rsp), %edx
	movl	%edx, (%rax,%rcx,4)
	incl	60(%rsp)
	incl	56(%rsp)
	decl	52(%rsp)
.LBB3_29:                               # %while.cond137
                                        #   Parent Loop BB3_1 Depth=1
                                        # =>  This Inner Loop Header: Depth=2
	cmpl	$0, 52(%rsp)
	jg	.LBB3_30
# BB#31:                                # %while.end153
                                        #   in Loop: Header=BB3_1 Depth=1
	movl	1352(%rsp), %eax
	movl	1328(%rsp), %ecx
	subl	%eax, %ecx
	subl	1360(%rsp), %eax
	cmpl	%eax, %ecx
	jge	.LBB3_33
# BB#32:                                # %cond.true158
                                        #   in Loop: Header=BB3_1 Depth=1
	movl	1328(%rsp), %eax
	subl	1352(%rsp), %eax
	jmp	.LBB3_34
	.align	16, 0x90
.LBB3_33:                               # %cond.false160
                                        #   in Loop: Header=BB3_1 Depth=1
	movl	1352(%rsp), %eax
	subl	1360(%rsp), %eax
.LBB3_34:                               # %cond.end162
                                        #   in Loop: Header=BB3_1 Depth=1
	movl	%eax, 1344(%rsp)
	movl	1364(%rsp), %eax
	movl	%eax, 44(%rsp)
	movl	1328(%rsp), %eax
	subl	1344(%rsp), %eax
	incl	%eax
	movl	%eax, 40(%rsp)
	movl	1344(%rsp), %eax
	movl	%eax, 36(%rsp)
	jmp	.LBB3_35
	.align	16, 0x90
.LBB3_36:                               # %while.body172
                                        #   in Loop: Header=BB3_35 Depth=2
	movslq	44(%rsp), %rax
	movq	1408(%rsp), %rcx
	movl	(%rcx,%rax,4), %eax
	movl	%eax, 32(%rsp)
	movslq	40(%rsp), %rcx
	movq	1408(%rsp), %rax
	movl	(%rax,%rcx,4), %ecx
	movslq	44(%rsp), %rdx
	movl	%ecx, (%rax,%rdx,4)
	movq	1408(%rsp), %rax
	movslq	40(%rsp), %rcx
	movl	32(%rsp), %edx
	movl	%edx, (%rax,%rcx,4)
	incl	44(%rsp)
	incl	40(%rsp)
	decl	36(%rsp)
.LBB3_35:                               # %while.cond169
                                        #   Parent Loop BB3_1 Depth=1
                                        # =>  This Inner Loop Header: Depth=2
	cmpl	$0, 36(%rsp)
	jg	.LBB3_36
# BB#37:                                # %while.end185
                                        #   in Loop: Header=BB3_1 Depth=1
	movl	1332(%rsp), %eax
	addl	1364(%rsp), %eax
	subl	1356(%rsp), %eax
	decl	%eax
	movl	%eax, 1348(%rsp)
	movl	1352(%rsp), %eax
	subl	1360(%rsp), %eax
	negl	%eax
	movl	1328(%rsp), %ecx
	leal	1(%rcx,%rax), %eax
	movl	%eax, 1344(%rsp)
	movl	1332(%rsp), %eax
	movl	%eax, 100(%rsp)
	movl	1348(%rsp), %eax
	movl	%eax, 88(%rsp)
	movl	1324(%rsp), %eax
	movl	%eax, 76(%rsp)
	movl	1344(%rsp), %eax
	movl	%eax, 104(%rsp)
	movl	1328(%rsp), %eax
	movl	%eax, 92(%rsp)
	movl	1324(%rsp), %eax
	movl	%eax, 80(%rsp)
	movl	1348(%rsp), %eax
	incl	%eax
	movl	%eax, 108(%rsp)
	movl	1344(%rsp), %eax
	decl	%eax
	movl	%eax, 96(%rsp)
	movl	1324(%rsp), %eax
	incl	%eax
	movl	%eax, 84(%rsp)
	movl	88(%rsp), %eax
	movl	92(%rsp), %ecx
	subl	104(%rsp), %ecx
	subl	100(%rsp), %eax
	cmpl	%ecx, %eax
	jge	.LBB3_39
# BB#38:                                # %if.then212
                                        #   in Loop: Header=BB3_1 Depth=1
	movl	100(%rsp), %eax
	movl	%eax, 28(%rsp)
	movl	104(%rsp), %eax
	movl	%eax, 100(%rsp)
	movl	28(%rsp), %eax
	movl	%eax, 104(%rsp)
	movl	88(%rsp), %eax
	movl	%eax, 28(%rsp)
	movl	92(%rsp), %eax
	movl	%eax, 88(%rsp)
	movl	28(%rsp), %eax
	movl	%eax, 92(%rsp)
	movl	76(%rsp), %eax
	movl	%eax, 28(%rsp)
	movl	80(%rsp), %eax
	movl	%eax, 76(%rsp)
	movl	28(%rsp), %eax
	movl	%eax, 80(%rsp)
.LBB3_39:                               # %if.end225
                                        #   in Loop: Header=BB3_1 Depth=1
	movl	92(%rsp), %eax
	movl	96(%rsp), %ecx
	subl	108(%rsp), %ecx
	subl	104(%rsp), %eax
	cmpl	%ecx, %eax
	jge	.LBB3_41
# BB#40:                                # %if.then234
                                        #   in Loop: Header=BB3_1 Depth=1
	movl	104(%rsp), %eax
	movl	%eax, 24(%rsp)
	movl	108(%rsp), %eax
	movl	%eax, 104(%rsp)
	movl	24(%rsp), %eax
	movl	%eax, 108(%rsp)
	movl	92(%rsp), %eax
	movl	%eax, 24(%rsp)
	movl	96(%rsp), %eax
	movl	%eax, 92(%rsp)
	movl	24(%rsp), %eax
	movl	%eax, 96(%rsp)
	movl	80(%rsp), %eax
	movl	%eax, 24(%rsp)
	movl	84(%rsp), %eax
	movl	%eax, 80(%rsp)
	movl	24(%rsp), %eax
	movl	%eax, 84(%rsp)
.LBB3_41:                               # %if.end248
                                        #   in Loop: Header=BB3_1 Depth=1
	movl	88(%rsp), %eax
	movl	92(%rsp), %ecx
	subl	104(%rsp), %ecx
	subl	100(%rsp), %eax
	cmpl	%ecx, %eax
	jge	.LBB3_43
# BB#42:                                # %if.then257
                                        #   in Loop: Header=BB3_1 Depth=1
	movl	100(%rsp), %eax
	movl	%eax, 20(%rsp)
	movl	104(%rsp), %eax
	movl	%eax, 100(%rsp)
	movl	20(%rsp), %eax
	movl	%eax, 104(%rsp)
	movl	88(%rsp), %eax
	movl	%eax, 20(%rsp)
	movl	92(%rsp), %eax
	movl	%eax, 88(%rsp)
	movl	20(%rsp), %eax
	movl	%eax, 92(%rsp)
	movl	76(%rsp), %eax
	movl	%eax, 20(%rsp)
	movl	80(%rsp), %eax
	movl	%eax, 76(%rsp)
	movl	20(%rsp), %eax
	movl	%eax, 80(%rsp)
	jmp	.LBB3_43
.LBB3_9:                                # %while.end302
	addq	$1416, %rsp             # imm = 0x588
	ret
.Ltmp14:
	.size	mainQSort3, .Ltmp14-mainQSort3
	.cfi_endproc

	.align	16, 0x90
	.type	mainSimpleSort,@function
mainSimpleSort:                         # @mainSimpleSort
	.cfi_startproc
# BB#0:                                 # %entry
	subq	$72, %rsp
.Ltmp16:
	.cfi_def_cfa_offset 80
	movq	%rdi, 64(%rsp)
	movq	%rsi, 56(%rsp)
	movq	%rdx, 48(%rsp)
	movl	%ecx, 44(%rsp)
	movl	%r8d, 40(%rsp)
	movl	%r9d, 36(%rsp)
	movq	88(%rsp), %rax
	movl	80(%rsp), %ecx
	movl	%ecx, 32(%rsp)
	movq	%rax, 24(%rsp)
	movl	36(%rsp), %eax
	subl	40(%rsp), %eax
	incl	%eax
	movl	%eax, 8(%rsp)
	cmpl	$2, %eax
	jl	.LBB4_19
# BB#1:                                 # %if.end
	movl	$0, 4(%rsp)
	jmp	.LBB4_2
	.align	16, 0x90
.LBB4_3:                                # %while.body
                                        #   in Loop: Header=BB4_2 Depth=1
	incl	4(%rsp)
.LBB4_2:                                # %while.cond
                                        # =>This Inner Loop Header: Depth=1
	movslq	4(%rsp), %rax
	movl	incs(,%rax,4), %eax
	cmpl	8(%rsp), %eax
	jl	.LBB4_3
.LBB4_4:                                # %while.end
                                        # =>This Loop Header: Depth=1
                                        #     Child Loop BB4_6 Depth 2
                                        #       Child Loop BB4_8 Depth 3
                                        #       Child Loop BB4_12 Depth 3
                                        #       Child Loop BB4_16 Depth 3
	decl	4(%rsp)
	cmpl	$0, 4(%rsp)
	js	.LBB4_19
# BB#5:                                 # %for.body
                                        #   in Loop: Header=BB4_4 Depth=1
	movslq	4(%rsp), %rax
	movl	incs(,%rax,4), %eax
	movl	%eax, 12(%rsp)
	addl	40(%rsp), %eax
	movl	%eax, 20(%rsp)
	.align	16, 0x90
.LBB4_6:                                # %while.body7
                                        #   Parent Loop BB4_4 Depth=1
                                        # =>  This Loop Header: Depth=2
                                        #       Child Loop BB4_8 Depth 3
                                        #       Child Loop BB4_12 Depth 3
                                        #       Child Loop BB4_16 Depth 3
	movl	20(%rsp), %eax
	cmpl	36(%rsp), %eax
	jg	.LBB4_4
# BB#7:                                 # %if.end10
                                        #   in Loop: Header=BB4_6 Depth=2
	movslq	20(%rsp), %rax
	movq	64(%rsp), %rcx
	movl	(%rcx,%rax,4), %eax
	movl	%eax, (%rsp)
	movl	20(%rsp), %eax
	movl	%eax, 16(%rsp)
	.align	16, 0x90
.LBB4_8:                                # %while.cond13
                                        #   Parent Loop BB4_4 Depth=1
                                        #     Parent Loop BB4_6 Depth=2
                                        # =>    This Inner Loop Header: Depth=3
	movl	16(%rsp), %eax
	subl	12(%rsp), %eax
	movslq	%eax, %rax
	movq	64(%rsp), %rcx
	movl	32(%rsp), %esi
	movl	(%rcx,%rax,4), %edi
	addl	%esi, %edi
	addl	(%rsp), %esi
	movq	24(%rsp), %r9
	movl	44(%rsp), %r8d
	movq	48(%rsp), %rcx
	movq	56(%rsp), %rdx
	callq	mainGtU
	testb	%al, %al
	je	.LBB4_10
# BB#9:                                 # %while.body19
                                        #   in Loop: Header=BB4_8 Depth=3
	movslq	16(%rsp), %rax
	movl	12(%rsp), %edx
	movl	%eax, %ecx
	subl	%edx, %ecx
	movslq	%ecx, %rcx
	movq	64(%rsp), %rdx
	movl	(%rdx,%rcx,4), %ecx
	movl	%ecx, (%rdx,%rax,4)
	movl	16(%rsp), %eax
	subl	12(%rsp), %eax
	movl	%eax, 16(%rsp)
	movl	12(%rsp), %ecx
	movl	40(%rsp), %edx
	leal	-1(%rdx,%rcx), %ecx
	cmpl	%ecx, %eax
	jg	.LBB4_8
.LBB4_10:                               # %while.end31
                                        #   in Loop: Header=BB4_6 Depth=2
	movq	64(%rsp), %rax
	movslq	16(%rsp), %rcx
	movl	(%rsp), %edx
	movl	%edx, (%rax,%rcx,4)
	movl	20(%rsp), %eax
	incl	%eax
	movl	%eax, 20(%rsp)
	cmpl	36(%rsp), %eax
	jg	.LBB4_4
# BB#11:                                # %if.end37
                                        #   in Loop: Header=BB4_6 Depth=2
	movslq	20(%rsp), %rax
	movq	64(%rsp), %rcx
	movl	(%rcx,%rax,4), %eax
	movl	%eax, (%rsp)
	movl	20(%rsp), %eax
	movl	%eax, 16(%rsp)
	.align	16, 0x90
.LBB4_12:                               # %while.cond40
                                        #   Parent Loop BB4_4 Depth=1
                                        #     Parent Loop BB4_6 Depth=2
                                        # =>    This Inner Loop Header: Depth=3
	movl	16(%rsp), %eax
	subl	12(%rsp), %eax
	movslq	%eax, %rax
	movq	64(%rsp), %rcx
	movl	32(%rsp), %esi
	movl	(%rcx,%rax,4), %edi
	addl	%esi, %edi
	addl	(%rsp), %esi
	movq	24(%rsp), %r9
	movl	44(%rsp), %r8d
	movq	48(%rsp), %rcx
	movq	56(%rsp), %rdx
	callq	mainGtU
	testb	%al, %al
	je	.LBB4_14
# BB#13:                                # %while.body48
                                        #   in Loop: Header=BB4_12 Depth=3
	movslq	16(%rsp), %rax
	movl	12(%rsp), %edx
	movl	%eax, %ecx
	subl	%edx, %ecx
	movslq	%ecx, %rcx
	movq	64(%rsp), %rdx
	movl	(%rdx,%rcx,4), %ecx
	movl	%ecx, (%rdx,%rax,4)
	movl	16(%rsp), %eax
	subl	12(%rsp), %eax
	movl	%eax, 16(%rsp)
	movl	12(%rsp), %ecx
	movl	40(%rsp), %edx
	leal	-1(%rdx,%rcx), %ecx
	cmpl	%ecx, %eax
	jg	.LBB4_12
.LBB4_14:                               # %while.end60
                                        #   in Loop: Header=BB4_6 Depth=2
	movq	64(%rsp), %rax
	movslq	16(%rsp), %rcx
	movl	(%rsp), %edx
	movl	%edx, (%rax,%rcx,4)
	movl	20(%rsp), %eax
	incl	%eax
	movl	%eax, 20(%rsp)
	cmpl	36(%rsp), %eax
	jg	.LBB4_4
# BB#15:                                # %if.end66
                                        #   in Loop: Header=BB4_6 Depth=2
	movslq	20(%rsp), %rax
	movq	64(%rsp), %rcx
	movl	(%rcx,%rax,4), %eax
	movl	%eax, (%rsp)
	movl	20(%rsp), %eax
	movl	%eax, 16(%rsp)
	.align	16, 0x90
.LBB4_16:                               # %while.cond69
                                        #   Parent Loop BB4_4 Depth=1
                                        #     Parent Loop BB4_6 Depth=2
                                        # =>    This Inner Loop Header: Depth=3
	movl	16(%rsp), %eax
	subl	12(%rsp), %eax
	movslq	%eax, %rax
	movq	64(%rsp), %rcx
	movl	32(%rsp), %esi
	movl	(%rcx,%rax,4), %edi
	addl	%esi, %edi
	addl	(%rsp), %esi
	movq	24(%rsp), %r9
	movl	44(%rsp), %r8d
	movq	48(%rsp), %rcx
	movq	56(%rsp), %rdx
	callq	mainGtU
	testb	%al, %al
	je	.LBB4_18
# BB#17:                                # %while.body77
                                        #   in Loop: Header=BB4_16 Depth=3
	movslq	16(%rsp), %rax
	movl	12(%rsp), %edx
	movl	%eax, %ecx
	subl	%edx, %ecx
	movslq	%ecx, %rcx
	movq	64(%rsp), %rdx
	movl	(%rdx,%rcx,4), %ecx
	movl	%ecx, (%rdx,%rax,4)
	movl	16(%rsp), %eax
	subl	12(%rsp), %eax
	movl	%eax, 16(%rsp)
	movl	12(%rsp), %ecx
	movl	40(%rsp), %edx
	leal	-1(%rdx,%rcx), %ecx
	cmpl	%ecx, %eax
	jg	.LBB4_16
.LBB4_18:                               # %while.end89
                                        #   in Loop: Header=BB4_6 Depth=2
	movq	64(%rsp), %rax
	movslq	16(%rsp), %rcx
	movl	(%rsp), %edx
	movl	%edx, (%rax,%rcx,4)
	incl	20(%rsp)
	movq	24(%rsp), %rax
	cmpl	$0, (%rax)
	jns	.LBB4_6
.LBB4_19:                               # %for.end
	addq	$72, %rsp
	ret
.Ltmp17:
	.size	mainSimpleSort, .Ltmp17-mainSimpleSort
	.cfi_endproc

	.align	16, 0x90
	.type	mmed3,@function
mmed3:                                  # @mmed3
	.cfi_startproc
# BB#0:                                 # %entry
	movb	%dil, -1(%rsp)
	movb	%sil, -2(%rsp)
	movb	%dl, -3(%rsp)
	movzbl	-2(%rsp), %eax
	movzbl	-1(%rsp), %ecx
	cmpl	%eax, %ecx
	jle	.LBB5_2
# BB#1:                                 # %if.then
	movb	-1(%rsp), %al
	movb	%al, -4(%rsp)
	movb	-2(%rsp), %al
	movb	%al, -1(%rsp)
	movb	-4(%rsp), %al
	movb	%al, -2(%rsp)
.LBB5_2:                                # %if.end
	movzbl	-3(%rsp), %eax
	movzbl	-2(%rsp), %ecx
	cmpl	%eax, %ecx
	jle	.LBB5_5
# BB#3:                                 # %if.then7
	movb	-3(%rsp), %al
	movb	%al, -2(%rsp)
	movzbl	-2(%rsp), %eax
	movzbl	-1(%rsp), %ecx
	cmpl	%eax, %ecx
	jle	.LBB5_5
# BB#4:                                 # %if.then12
	movb	-1(%rsp), %al
	movb	%al, -2(%rsp)
.LBB5_5:                                # %if.end14
	movzbl	-2(%rsp), %eax
	ret
.Ltmp18:
	.size	mmed3, .Ltmp18-mmed3
	.cfi_endproc

	.align	16, 0x90
	.type	mainGtU,@function
mainGtU:                                # @mainGtU
	.cfi_startproc
# BB#0:                                 # %entry
	movl	%edi, -8(%rsp)
	movl	%esi, -12(%rsp)
	movq	%rdx, -24(%rsp)
	movq	%rcx, -32(%rsp)
	movl	%r8d, -36(%rsp)
	movq	%r9, -48(%rsp)
	movl	-8(%rsp), %eax
	movq	-24(%rsp), %rcx
	movb	(%rcx,%rax), %al
	movb	%al, -53(%rsp)
	movl	-12(%rsp), %eax
	movq	-24(%rsp), %rcx
	movb	(%rcx,%rax), %al
	movb	%al, -54(%rsp)
	movzbl	-54(%rsp), %eax
	movzbl	-53(%rsp), %ecx
	cmpl	%eax, %ecx
	jne	.LBB6_1
# BB#3:                                 # %if.end
	incl	-8(%rsp)
	incl	-12(%rsp)
	movl	-8(%rsp), %eax
	movq	-24(%rsp), %rcx
	movb	(%rcx,%rax), %al
	movb	%al, -53(%rsp)
	movl	-12(%rsp), %eax
	movq	-24(%rsp), %rcx
	movb	(%rcx,%rax), %al
	movb	%al, -54(%rsp)
	movzbl	-54(%rsp), %eax
	movzbl	-53(%rsp), %ecx
	cmpl	%eax, %ecx
	jne	.LBB6_1
# BB#4:                                 # %if.end25
	incl	-8(%rsp)
	incl	-12(%rsp)
	movl	-8(%rsp), %eax
	movq	-24(%rsp), %rcx
	movb	(%rcx,%rax), %al
	movb	%al, -53(%rsp)
	movl	-12(%rsp), %eax
	movq	-24(%rsp), %rcx
	movb	(%rcx,%rax), %al
	movb	%al, -54(%rsp)
	movzbl	-54(%rsp), %eax
	movzbl	-53(%rsp), %ecx
	cmpl	%eax, %ecx
	jne	.LBB6_1
# BB#5:                                 # %if.end42
	incl	-8(%rsp)
	incl	-12(%rsp)
	movl	-8(%rsp), %eax
	movq	-24(%rsp), %rcx
	movb	(%rcx,%rax), %al
	movb	%al, -53(%rsp)
	movl	-12(%rsp), %eax
	movq	-24(%rsp), %rcx
	movb	(%rcx,%rax), %al
	movb	%al, -54(%rsp)
	movzbl	-54(%rsp), %eax
	movzbl	-53(%rsp), %ecx
	cmpl	%eax, %ecx
	jne	.LBB6_1
# BB#6:                                 # %if.end59
	incl	-8(%rsp)
	incl	-12(%rsp)
	movl	-8(%rsp), %eax
	movq	-24(%rsp), %rcx
	movb	(%rcx,%rax), %al
	movb	%al, -53(%rsp)
	movl	-12(%rsp), %eax
	movq	-24(%rsp), %rcx
	movb	(%rcx,%rax), %al
	movb	%al, -54(%rsp)
	movzbl	-54(%rsp), %eax
	movzbl	-53(%rsp), %ecx
	cmpl	%eax, %ecx
	jne	.LBB6_1
# BB#7:                                 # %if.end76
	incl	-8(%rsp)
	incl	-12(%rsp)
	movl	-8(%rsp), %eax
	movq	-24(%rsp), %rcx
	movb	(%rcx,%rax), %al
	movb	%al, -53(%rsp)
	movl	-12(%rsp), %eax
	movq	-24(%rsp), %rcx
	movb	(%rcx,%rax), %al
	movb	%al, -54(%rsp)
	movzbl	-54(%rsp), %eax
	movzbl	-53(%rsp), %ecx
	cmpl	%eax, %ecx
	jne	.LBB6_1
# BB#8:                                 # %if.end93
	incl	-8(%rsp)
	incl	-12(%rsp)
	movl	-8(%rsp), %eax
	movq	-24(%rsp), %rcx
	movb	(%rcx,%rax), %al
	movb	%al, -53(%rsp)
	movl	-12(%rsp), %eax
	movq	-24(%rsp), %rcx
	movb	(%rcx,%rax), %al
	movb	%al, -54(%rsp)
	movzbl	-54(%rsp), %eax
	movzbl	-53(%rsp), %ecx
	cmpl	%eax, %ecx
	jne	.LBB6_1
# BB#9:                                 # %if.end110
	incl	-8(%rsp)
	incl	-12(%rsp)
	movl	-8(%rsp), %eax
	movq	-24(%rsp), %rcx
	movb	(%rcx,%rax), %al
	movb	%al, -53(%rsp)
	movl	-12(%rsp), %eax
	movq	-24(%rsp), %rcx
	movb	(%rcx,%rax), %al
	movb	%al, -54(%rsp)
	movzbl	-54(%rsp), %eax
	movzbl	-53(%rsp), %ecx
	cmpl	%eax, %ecx
	jne	.LBB6_1
# BB#10:                                # %if.end127
	incl	-8(%rsp)
	incl	-12(%rsp)
	movl	-8(%rsp), %eax
	movq	-24(%rsp), %rcx
	movb	(%rcx,%rax), %al
	movb	%al, -53(%rsp)
	movl	-12(%rsp), %eax
	movq	-24(%rsp), %rcx
	movb	(%rcx,%rax), %al
	movb	%al, -54(%rsp)
	movzbl	-54(%rsp), %eax
	movzbl	-53(%rsp), %ecx
	cmpl	%eax, %ecx
	jne	.LBB6_1
# BB#11:                                # %if.end144
	incl	-8(%rsp)
	incl	-12(%rsp)
	movl	-8(%rsp), %eax
	movq	-24(%rsp), %rcx
	movb	(%rcx,%rax), %al
	movb	%al, -53(%rsp)
	movl	-12(%rsp), %eax
	movq	-24(%rsp), %rcx
	movb	(%rcx,%rax), %al
	movb	%al, -54(%rsp)
	movzbl	-54(%rsp), %eax
	movzbl	-53(%rsp), %ecx
	cmpl	%eax, %ecx
	jne	.LBB6_1
# BB#12:                                # %if.end161
	incl	-8(%rsp)
	incl	-12(%rsp)
	movl	-8(%rsp), %eax
	movq	-24(%rsp), %rcx
	movb	(%rcx,%rax), %al
	movb	%al, -53(%rsp)
	movl	-12(%rsp), %eax
	movq	-24(%rsp), %rcx
	movb	(%rcx,%rax), %al
	movb	%al, -54(%rsp)
	movzbl	-54(%rsp), %eax
	movzbl	-53(%rsp), %ecx
	cmpl	%eax, %ecx
	jne	.LBB6_1
# BB#13:                                # %if.end178
	incl	-8(%rsp)
	incl	-12(%rsp)
	movl	-8(%rsp), %eax
	movq	-24(%rsp), %rcx
	movb	(%rcx,%rax), %al
	movb	%al, -53(%rsp)
	movl	-12(%rsp), %eax
	movq	-24(%rsp), %rcx
	movb	(%rcx,%rax), %al
	movb	%al, -54(%rsp)
	movzbl	-54(%rsp), %eax
	movzbl	-53(%rsp), %ecx
	cmpl	%eax, %ecx
	jne	.LBB6_1
# BB#14:                                # %if.end195
	incl	-8(%rsp)
	incl	-12(%rsp)
	movl	-36(%rsp), %eax
	addl	$8, %eax
	movl	%eax, -52(%rsp)
.LBB6_15:                               # %do.body
                                        # =>This Inner Loop Header: Depth=1
	movl	-8(%rsp), %eax
	movq	-24(%rsp), %rcx
	movb	(%rcx,%rax), %al
	movb	%al, -53(%rsp)
	movl	-12(%rsp), %eax
	movq	-24(%rsp), %rcx
	movb	(%rcx,%rax), %al
	movb	%al, -54(%rsp)
	movzbl	-54(%rsp), %eax
	movzbl	-53(%rsp), %ecx
	cmpl	%eax, %ecx
	jne	.LBB6_1
# BB#16:                                # %if.end212
                                        #   in Loop: Header=BB6_15 Depth=1
	movl	-8(%rsp), %eax
	movq	-32(%rsp), %rcx
	movw	(%rcx,%rax,2), %ax
	movw	%ax, -56(%rsp)
	movl	-12(%rsp), %eax
	movq	-32(%rsp), %rcx
	movw	(%rcx,%rax,2), %ax
	movw	%ax, -58(%rsp)
	movzwl	-58(%rsp), %eax
	movzwl	-56(%rsp), %ecx
	cmpl	%eax, %ecx
	jne	.LBB6_17
# BB#18:                                # %if.end227
                                        #   in Loop: Header=BB6_15 Depth=1
	incl	-8(%rsp)
	incl	-12(%rsp)
	movl	-8(%rsp), %eax
	movq	-24(%rsp), %rcx
	movb	(%rcx,%rax), %al
	movb	%al, -53(%rsp)
	movl	-12(%rsp), %eax
	movq	-24(%rsp), %rcx
	movb	(%rcx,%rax), %al
	movb	%al, -54(%rsp)
	movzbl	-54(%rsp), %eax
	movzbl	-53(%rsp), %ecx
	cmpl	%eax, %ecx
	jne	.LBB6_1
# BB#19:                                # %if.end244
                                        #   in Loop: Header=BB6_15 Depth=1
	movl	-8(%rsp), %eax
	movq	-32(%rsp), %rcx
	movw	(%rcx,%rax,2), %ax
	movw	%ax, -56(%rsp)
	movl	-12(%rsp), %eax
	movq	-32(%rsp), %rcx
	movw	(%rcx,%rax,2), %ax
	movw	%ax, -58(%rsp)
	movzwl	-58(%rsp), %eax
	movzwl	-56(%rsp), %ecx
	cmpl	%eax, %ecx
	jne	.LBB6_17
# BB#20:                                # %if.end259
                                        #   in Loop: Header=BB6_15 Depth=1
	incl	-8(%rsp)
	incl	-12(%rsp)
	movl	-8(%rsp), %eax
	movq	-24(%rsp), %rcx
	movb	(%rcx,%rax), %al
	movb	%al, -53(%rsp)
	movl	-12(%rsp), %eax
	movq	-24(%rsp), %rcx
	movb	(%rcx,%rax), %al
	movb	%al, -54(%rsp)
	movzbl	-54(%rsp), %eax
	movzbl	-53(%rsp), %ecx
	cmpl	%eax, %ecx
	jne	.LBB6_1
# BB#21:                                # %if.end276
                                        #   in Loop: Header=BB6_15 Depth=1
	movl	-8(%rsp), %eax
	movq	-32(%rsp), %rcx
	movw	(%rcx,%rax,2), %ax
	movw	%ax, -56(%rsp)
	movl	-12(%rsp), %eax
	movq	-32(%rsp), %rcx
	movw	(%rcx,%rax,2), %ax
	movw	%ax, -58(%rsp)
	movzwl	-58(%rsp), %eax
	movzwl	-56(%rsp), %ecx
	cmpl	%eax, %ecx
	jne	.LBB6_17
# BB#22:                                # %if.end291
                                        #   in Loop: Header=BB6_15 Depth=1
	incl	-8(%rsp)
	incl	-12(%rsp)
	movl	-8(%rsp), %eax
	movq	-24(%rsp), %rcx
	movb	(%rcx,%rax), %al
	movb	%al, -53(%rsp)
	movl	-12(%rsp), %eax
	movq	-24(%rsp), %rcx
	movb	(%rcx,%rax), %al
	movb	%al, -54(%rsp)
	movzbl	-54(%rsp), %eax
	movzbl	-53(%rsp), %ecx
	cmpl	%eax, %ecx
	jne	.LBB6_1
# BB#23:                                # %if.end308
                                        #   in Loop: Header=BB6_15 Depth=1
	movl	-8(%rsp), %eax
	movq	-32(%rsp), %rcx
	movw	(%rcx,%rax,2), %ax
	movw	%ax, -56(%rsp)
	movl	-12(%rsp), %eax
	movq	-32(%rsp), %rcx
	movw	(%rcx,%rax,2), %ax
	movw	%ax, -58(%rsp)
	movzwl	-58(%rsp), %eax
	movzwl	-56(%rsp), %ecx
	cmpl	%eax, %ecx
	jne	.LBB6_17
# BB#24:                                # %if.end323
                                        #   in Loop: Header=BB6_15 Depth=1
	incl	-8(%rsp)
	incl	-12(%rsp)
	movl	-8(%rsp), %eax
	movq	-24(%rsp), %rcx
	movb	(%rcx,%rax), %al
	movb	%al, -53(%rsp)
	movl	-12(%rsp), %eax
	movq	-24(%rsp), %rcx
	movb	(%rcx,%rax), %al
	movb	%al, -54(%rsp)
	movzbl	-54(%rsp), %eax
	movzbl	-53(%rsp), %ecx
	cmpl	%eax, %ecx
	jne	.LBB6_1
# BB#25:                                # %if.end340
                                        #   in Loop: Header=BB6_15 Depth=1
	movl	-8(%rsp), %eax
	movq	-32(%rsp), %rcx
	movw	(%rcx,%rax,2), %ax
	movw	%ax, -56(%rsp)
	movl	-12(%rsp), %eax
	movq	-32(%rsp), %rcx
	movw	(%rcx,%rax,2), %ax
	movw	%ax, -58(%rsp)
	movzwl	-58(%rsp), %eax
	movzwl	-56(%rsp), %ecx
	cmpl	%eax, %ecx
	jne	.LBB6_17
# BB#26:                                # %if.end355
                                        #   in Loop: Header=BB6_15 Depth=1
	incl	-8(%rsp)
	incl	-12(%rsp)
	movl	-8(%rsp), %eax
	movq	-24(%rsp), %rcx
	movb	(%rcx,%rax), %al
	movb	%al, -53(%rsp)
	movl	-12(%rsp), %eax
	movq	-24(%rsp), %rcx
	movb	(%rcx,%rax), %al
	movb	%al, -54(%rsp)
	movzbl	-54(%rsp), %eax
	movzbl	-53(%rsp), %ecx
	cmpl	%eax, %ecx
	jne	.LBB6_1
# BB#27:                                # %if.end372
                                        #   in Loop: Header=BB6_15 Depth=1
	movl	-8(%rsp), %eax
	movq	-32(%rsp), %rcx
	movw	(%rcx,%rax,2), %ax
	movw	%ax, -56(%rsp)
	movl	-12(%rsp), %eax
	movq	-32(%rsp), %rcx
	movw	(%rcx,%rax,2), %ax
	movw	%ax, -58(%rsp)
	movzwl	-58(%rsp), %eax
	movzwl	-56(%rsp), %ecx
	cmpl	%eax, %ecx
	jne	.LBB6_17
# BB#28:                                # %if.end387
                                        #   in Loop: Header=BB6_15 Depth=1
	incl	-8(%rsp)
	incl	-12(%rsp)
	movl	-8(%rsp), %eax
	movq	-24(%rsp), %rcx
	movb	(%rcx,%rax), %al
	movb	%al, -53(%rsp)
	movl	-12(%rsp), %eax
	movq	-24(%rsp), %rcx
	movb	(%rcx,%rax), %al
	movb	%al, -54(%rsp)
	movzbl	-54(%rsp), %eax
	movzbl	-53(%rsp), %ecx
	cmpl	%eax, %ecx
	jne	.LBB6_1
# BB#29:                                # %if.end404
                                        #   in Loop: Header=BB6_15 Depth=1
	movl	-8(%rsp), %eax
	movq	-32(%rsp), %rcx
	movw	(%rcx,%rax,2), %ax
	movw	%ax, -56(%rsp)
	movl	-12(%rsp), %eax
	movq	-32(%rsp), %rcx
	movw	(%rcx,%rax,2), %ax
	movw	%ax, -58(%rsp)
	movzwl	-58(%rsp), %eax
	movzwl	-56(%rsp), %ecx
	cmpl	%eax, %ecx
	jne	.LBB6_17
# BB#30:                                # %if.end419
                                        #   in Loop: Header=BB6_15 Depth=1
	incl	-8(%rsp)
	incl	-12(%rsp)
	movl	-8(%rsp), %eax
	movq	-24(%rsp), %rcx
	movb	(%rcx,%rax), %al
	movb	%al, -53(%rsp)
	movl	-12(%rsp), %eax
	movq	-24(%rsp), %rcx
	movb	(%rcx,%rax), %al
	movb	%al, -54(%rsp)
	movzbl	-54(%rsp), %eax
	movzbl	-53(%rsp), %ecx
	cmpl	%eax, %ecx
	jne	.LBB6_1
# BB#31:                                # %if.end436
                                        #   in Loop: Header=BB6_15 Depth=1
	movl	-8(%rsp), %eax
	movq	-32(%rsp), %rcx
	movw	(%rcx,%rax,2), %ax
	movw	%ax, -56(%rsp)
	movl	-12(%rsp), %eax
	movq	-32(%rsp), %rcx
	movw	(%rcx,%rax,2), %ax
	movw	%ax, -58(%rsp)
	movzwl	-58(%rsp), %eax
	movzwl	-56(%rsp), %ecx
	cmpl	%eax, %ecx
	jne	.LBB6_17
# BB#32:                                # %if.end451
                                        #   in Loop: Header=BB6_15 Depth=1
	incl	-8(%rsp)
	incl	-12(%rsp)
	movl	-8(%rsp), %eax
	cmpl	-36(%rsp), %eax
	jb	.LBB6_34
# BB#33:                                # %if.then456
                                        #   in Loop: Header=BB6_15 Depth=1
	movl	-36(%rsp), %eax
	subl	%eax, -8(%rsp)
.LBB6_34:                               # %if.end457
                                        #   in Loop: Header=BB6_15 Depth=1
	movl	-12(%rsp), %eax
	cmpl	-36(%rsp), %eax
	jb	.LBB6_36
# BB#35:                                # %if.then460
                                        #   in Loop: Header=BB6_15 Depth=1
	movl	-36(%rsp), %eax
	subl	%eax, -12(%rsp)
.LBB6_36:                               # %if.end462
                                        #   in Loop: Header=BB6_15 Depth=1
	addl	$-8, -52(%rsp)
	movq	-48(%rsp), %rax
	decl	(%rax)
	cmpl	$0, -52(%rsp)
	jns	.LBB6_15
# BB#37:                                # %do.end
	movb	$0, -1(%rsp)
	movzbl	-1(%rsp), %eax
	ret
.LBB6_1:                                # %if.then
	movzbl	-54(%rsp), %eax
	movzbl	-53(%rsp), %ecx
.LBB6_2:                                # %if.then
	cmpl	%eax, %ecx
	setg	-1(%rsp)
	movzbl	-1(%rsp), %eax
	ret
.LBB6_17:                               # %if.then221
	movzwl	-58(%rsp), %eax
	movzwl	-56(%rsp), %ecx
	jmp	.LBB6_2
.Ltmp19:
	.size	mainGtU, .Ltmp19-mainGtU
	.cfi_endproc

	.align	16, 0x90
	.type	fallbackQSort3,@function
fallbackQSort3:                         # @fallbackQSort3
	.cfi_startproc
# BB#0:                                 # %entry
	pushq	%rbx
.Ltmp22:
	.cfi_def_cfa_offset 16
	subq	$928, %rsp              # imm = 0x3A0
.Ltmp23:
	.cfi_def_cfa_offset 944
.Ltmp24:
	.cfi_offset %rbx, -16
	movq	%rdi, 920(%rsp)
	movq	%rsi, 912(%rsp)
	movl	%edx, 908(%rsp)
	movl	%ecx, 904(%rsp)
	movl	$0, 860(%rsp)
	movl	$0, 876(%rsp)
	movslq	876(%rsp), %rax
	movl	908(%rsp), %ecx
	movl	%ecx, 448(%rsp,%rax,4)
	movslq	876(%rsp), %rax
	movl	904(%rsp), %ecx
	movl	%ecx, 48(%rsp,%rax,4)
	incl	876(%rsp)
	movl	$2863311531, %ebx       # imm = 0xAAAAAAAB
	jmp	.LBB7_1
	.align	16, 0x90
.LBB7_5:                                # %if.then9
                                        #   in Loop: Header=BB7_1 Depth=1
	movl	868(%rsp), %ecx
	movl	872(%rsp), %edx
	movq	912(%rsp), %rsi
	movq	920(%rsp), %rdi
	callq	fallbackSimpleSort
.LBB7_1:                                # %while.cond
                                        # =>This Loop Header: Depth=1
                                        #     Child Loop BB7_12 Depth 2
                                        #       Child Loop BB7_17 Depth 3
                                        #     Child Loop BB7_29 Depth 2
                                        #     Child Loop BB7_35 Depth 2
	cmpl	$0, 876(%rsp)
	jle	.LBB7_41
# BB#2:                                 # %while.body
                                        #   in Loop: Header=BB7_1 Depth=1
	cmpl	$100, 876(%rsp)
	jl	.LBB7_4
# BB#3:                                 # %if.then
                                        #   in Loop: Header=BB7_1 Depth=1
	movl	$1004, %edi             # imm = 0x3EC
	callq	BZ2_bz__AssertH__fail
.LBB7_4:                                # %if.end
                                        #   in Loop: Header=BB7_1 Depth=1
	decl	876(%rsp)
	movslq	876(%rsp), %rax
	movl	448(%rsp,%rax,4), %eax
	movl	%eax, 872(%rsp)
	movslq	876(%rsp), %rax
	movl	48(%rsp,%rax,4), %eax
	movl	%eax, 868(%rsp)
	subl	872(%rsp), %eax
	cmpl	$9, %eax
	jle	.LBB7_5
# BB#6:                                 # %if.end10
                                        #   in Loop: Header=BB7_1 Depth=1
	imull	$7621, 860(%rsp), %eax  # imm = 0x1DC5
	incl	%eax
	andl	$32767, %eax            # imm = 0x7FFF
	movl	%eax, 860(%rsp)
	movq	%rax, %rcx
	imulq	%rbx, %rcx
	shrq	$33, %rcx
	leal	(%rcx,%rcx,2), %ecx
	subl	%ecx, %eax
	movl	%eax, 856(%rsp)
	jne	.LBB7_8
# BB#7:                                 # %if.then13
                                        #   in Loop: Header=BB7_1 Depth=1
	movslq	872(%rsp), %rax
	jmp	.LBB7_11
	.align	16, 0x90
.LBB7_8:                                # %if.else
                                        #   in Loop: Header=BB7_1 Depth=1
	cmpl	$1, 856(%rsp)
	jne	.LBB7_10
# BB#9:                                 # %if.then19
                                        #   in Loop: Header=BB7_1 Depth=1
	movl	872(%rsp), %eax
	addl	868(%rsp), %eax
	sarl	%eax
	movslq	%eax, %rax
	jmp	.LBB7_11
.LBB7_10:                               # %if.else25
                                        #   in Loop: Header=BB7_1 Depth=1
	movslq	868(%rsp), %rax
.LBB7_11:                               # %if.else25
                                        #   in Loop: Header=BB7_1 Depth=1
	movq	920(%rsp), %rcx
	movl	(%rcx,%rax,4), %eax
	movq	912(%rsp), %rcx
	movl	(%rcx,%rax,4), %eax
	movl	%eax, 864(%rsp)
	movl	872(%rsp), %eax
	movl	%eax, 892(%rsp)
	movl	%eax, 900(%rsp)
	movl	868(%rsp), %eax
	movl	%eax, 888(%rsp)
	movl	%eax, 896(%rsp)
	jmp	.LBB7_12
	.align	16, 0x90
.LBB7_23:                               # %if.end92
                                        #   in Loop: Header=BB7_12 Depth=2
	movslq	900(%rsp), %rax
	movq	920(%rsp), %rcx
	movl	(%rcx,%rax,4), %eax
	movl	%eax, 36(%rsp)
	movslq	896(%rsp), %rcx
	movq	920(%rsp), %rax
	movl	(%rax,%rcx,4), %ecx
	movslq	900(%rsp), %rdx
	movl	%ecx, (%rax,%rdx,4)
	movq	920(%rsp), %rax
	movslq	896(%rsp), %rcx
	movl	36(%rsp), %edx
	movl	%edx, (%rax,%rcx,4)
	incl	900(%rsp)
	decl	896(%rsp)
.LBB7_12:                               # %while.body35
                                        #   Parent Loop BB7_1 Depth=1
                                        # =>  This Loop Header: Depth=2
                                        #       Child Loop BB7_17 Depth 3
	movl	900(%rsp), %eax
	cmpl	896(%rsp), %eax
	jg	.LBB7_17
# BB#13:                                # %if.end38
                                        #   in Loop: Header=BB7_12 Depth=2
	movslq	900(%rsp), %rax
	movq	920(%rsp), %rcx
	movl	(%rcx,%rax,4), %eax
	movq	912(%rsp), %rcx
	movl	(%rcx,%rax,4), %eax
	subl	864(%rsp), %eax
	movl	%eax, 884(%rsp)
	jne	.LBB7_15
# BB#14:                                # %if.then45
                                        #   in Loop: Header=BB7_12 Depth=2
	movslq	900(%rsp), %rax
	movq	920(%rsp), %rcx
	movl	(%rcx,%rax,4), %eax
	movl	%eax, 44(%rsp)
	movslq	892(%rsp), %rcx
	movq	920(%rsp), %rax
	movl	(%rax,%rcx,4), %ecx
	movslq	900(%rsp), %rdx
	movl	%ecx, (%rax,%rdx,4)
	movq	920(%rsp), %rax
	movslq	892(%rsp), %rcx
	movl	44(%rsp), %edx
	movl	%edx, (%rax,%rcx,4)
	incl	892(%rsp)
	incl	900(%rsp)
	jmp	.LBB7_12
	.align	16, 0x90
.LBB7_15:                               # %if.end56
                                        #   in Loop: Header=BB7_12 Depth=2
	cmpl	$0, 884(%rsp)
	jg	.LBB7_17
# BB#16:                                # %if.end59
                                        #   in Loop: Header=BB7_12 Depth=2
	incl	900(%rsp)
	jmp	.LBB7_12
	.align	16, 0x90
.LBB7_19:                               # %if.then72
                                        #   in Loop: Header=BB7_17 Depth=3
	movslq	896(%rsp), %rax
	movq	920(%rsp), %rcx
	movl	(%rcx,%rax,4), %eax
	movl	%eax, 40(%rsp)
	movslq	888(%rsp), %rcx
	movq	920(%rsp), %rax
	movl	(%rax,%rcx,4), %ecx
	movslq	896(%rsp), %rdx
	movl	%ecx, (%rax,%rdx,4)
	movq	920(%rsp), %rax
	movslq	888(%rsp), %rcx
	movl	40(%rsp), %edx
	movl	%edx, (%rax,%rcx,4)
	decl	888(%rsp)
	decl	896(%rsp)
.LBB7_17:                               # %while.body62
                                        #   Parent Loop BB7_1 Depth=1
                                        #     Parent Loop BB7_12 Depth=2
                                        # =>    This Inner Loop Header: Depth=3
	movl	900(%rsp), %eax
	cmpl	896(%rsp), %eax
	jg	.LBB7_22
# BB#18:                                # %if.end65
                                        #   in Loop: Header=BB7_17 Depth=3
	movslq	896(%rsp), %rax
	movq	920(%rsp), %rcx
	movl	(%rcx,%rax,4), %eax
	movq	912(%rsp), %rcx
	movl	(%rcx,%rax,4), %eax
	subl	864(%rsp), %eax
	movl	%eax, 884(%rsp)
	je	.LBB7_19
# BB#20:                                # %if.end84
                                        #   in Loop: Header=BB7_17 Depth=3
	cmpl	$0, 884(%rsp)
	js	.LBB7_22
# BB#21:                                # %if.end87
                                        #   in Loop: Header=BB7_17 Depth=3
	decl	896(%rsp)
	jmp	.LBB7_17
	.align	16, 0x90
.LBB7_22:                               # %while.end89
                                        #   in Loop: Header=BB7_12 Depth=2
	movl	900(%rsp), %eax
	cmpl	896(%rsp), %eax
	jle	.LBB7_23
# BB#24:                                # %while.end104
                                        #   in Loop: Header=BB7_1 Depth=1
	movl	888(%rsp), %eax
	cmpl	892(%rsp), %eax
	jl	.LBB7_1
# BB#25:                                # %if.end107
                                        #   in Loop: Header=BB7_1 Depth=1
	movl	892(%rsp), %eax
	movl	900(%rsp), %ecx
	subl	%eax, %ecx
	subl	872(%rsp), %eax
	cmpl	%ecx, %eax
	jge	.LBB7_27
# BB#26:                                # %cond.true
                                        #   in Loop: Header=BB7_1 Depth=1
	movl	892(%rsp), %eax
	subl	872(%rsp), %eax
	jmp	.LBB7_28
.LBB7_27:                               # %cond.false
                                        #   in Loop: Header=BB7_1 Depth=1
	movl	900(%rsp), %eax
	subl	892(%rsp), %eax
.LBB7_28:                               # %cond.end
                                        #   in Loop: Header=BB7_1 Depth=1
	movl	%eax, 884(%rsp)
	movl	872(%rsp), %eax
	movl	%eax, 32(%rsp)
	movl	900(%rsp), %eax
	subl	884(%rsp), %eax
	movl	%eax, 28(%rsp)
	movl	884(%rsp), %eax
	movl	%eax, 24(%rsp)
	jmp	.LBB7_29
	.align	16, 0x90
.LBB7_30:                               # %while.body116
                                        #   in Loop: Header=BB7_29 Depth=2
	movslq	32(%rsp), %rax
	movq	920(%rsp), %rcx
	movl	(%rcx,%rax,4), %eax
	movl	%eax, 20(%rsp)
	movslq	28(%rsp), %rcx
	movq	920(%rsp), %rax
	movl	(%rax,%rcx,4), %ecx
	movslq	32(%rsp), %rdx
	movl	%ecx, (%rax,%rdx,4)
	movq	920(%rsp), %rax
	movslq	28(%rsp), %rcx
	movl	20(%rsp), %edx
	movl	%edx, (%rax,%rcx,4)
	incl	32(%rsp)
	incl	28(%rsp)
	decl	24(%rsp)
.LBB7_29:                               # %while.cond114
                                        #   Parent Loop BB7_1 Depth=1
                                        # =>  This Inner Loop Header: Depth=2
	cmpl	$0, 24(%rsp)
	jg	.LBB7_30
# BB#31:                                # %while.end129
                                        #   in Loop: Header=BB7_1 Depth=1
	movl	888(%rsp), %eax
	movl	868(%rsp), %ecx
	subl	%eax, %ecx
	subl	896(%rsp), %eax
	cmpl	%eax, %ecx
	jge	.LBB7_33
# BB#32:                                # %cond.true133
                                        #   in Loop: Header=BB7_1 Depth=1
	movl	868(%rsp), %eax
	subl	888(%rsp), %eax
	jmp	.LBB7_34
.LBB7_33:                               # %cond.false135
                                        #   in Loop: Header=BB7_1 Depth=1
	movl	888(%rsp), %eax
	subl	896(%rsp), %eax
.LBB7_34:                               # %cond.end137
                                        #   in Loop: Header=BB7_1 Depth=1
	movl	%eax, 880(%rsp)
	movl	900(%rsp), %eax
	movl	%eax, 16(%rsp)
	movl	868(%rsp), %eax
	subl	880(%rsp), %eax
	incl	%eax
	movl	%eax, 12(%rsp)
	movl	880(%rsp), %eax
	movl	%eax, 8(%rsp)
	jmp	.LBB7_35
	.align	16, 0x90
.LBB7_36:                               # %while.body146
                                        #   in Loop: Header=BB7_35 Depth=2
	movslq	16(%rsp), %rax
	movq	920(%rsp), %rcx
	movl	(%rcx,%rax,4), %eax
	movl	%eax, 4(%rsp)
	movslq	12(%rsp), %rcx
	movq	920(%rsp), %rax
	movl	(%rax,%rcx,4), %ecx
	movslq	16(%rsp), %rdx
	movl	%ecx, (%rax,%rdx,4)
	movq	920(%rsp), %rax
	movslq	12(%rsp), %rcx
	movl	4(%rsp), %edx
	movl	%edx, (%rax,%rcx,4)
	incl	16(%rsp)
	incl	12(%rsp)
	decl	8(%rsp)
.LBB7_35:                               # %while.cond144
                                        #   Parent Loop BB7_1 Depth=1
                                        # =>  This Inner Loop Header: Depth=2
	cmpl	$0, 8(%rsp)
	jg	.LBB7_36
# BB#37:                                # %while.end159
                                        #   in Loop: Header=BB7_1 Depth=1
	movl	872(%rsp), %eax
	addl	900(%rsp), %eax
	subl	892(%rsp), %eax
	decl	%eax
	movl	%eax, 884(%rsp)
	movl	888(%rsp), %eax
	subl	896(%rsp), %eax
	negl	%eax
	movl	868(%rsp), %ecx
	leal	1(%rcx,%rax), %ecx
	movl	%ecx, 880(%rsp)
	movl	868(%rsp), %eax
	subl	%ecx, %eax
	movl	884(%rsp), %ecx
	subl	872(%rsp), %ecx
	cmpl	%eax, %ecx
	jle	.LBB7_40
# BB#38:                                # %if.then169
                                        #   in Loop: Header=BB7_1 Depth=1
	movslq	876(%rsp), %rax
	movl	872(%rsp), %ecx
	movl	%ecx, 448(%rsp,%rax,4)
	movslq	876(%rsp), %rax
	movl	884(%rsp), %ecx
	movl	%ecx, 48(%rsp,%rax,4)
	incl	876(%rsp)
	movslq	876(%rsp), %rax
	movl	880(%rsp), %ecx
	movl	%ecx, 448(%rsp,%rax,4)
	movslq	876(%rsp), %rax
	movl	868(%rsp), %ecx
	jmp	.LBB7_39
.LBB7_40:                               # %if.else180
                                        #   in Loop: Header=BB7_1 Depth=1
	movslq	876(%rsp), %rax
	movl	880(%rsp), %ecx
	movl	%ecx, 448(%rsp,%rax,4)
	movslq	876(%rsp), %rax
	movl	868(%rsp), %ecx
	movl	%ecx, 48(%rsp,%rax,4)
	incl	876(%rsp)
	movslq	876(%rsp), %rax
	movl	872(%rsp), %ecx
	movl	%ecx, 448(%rsp,%rax,4)
	movslq	876(%rsp), %rax
	movl	884(%rsp), %ecx
.LBB7_39:                               # %if.then169
                                        #   in Loop: Header=BB7_1 Depth=1
	movl	%ecx, 48(%rsp,%rax,4)
	incl	876(%rsp)
	jmp	.LBB7_1
.LBB7_41:                               # %while.end192
	addq	$928, %rsp              # imm = 0x3A0
	popq	%rbx
	ret
.Ltmp25:
	.size	fallbackQSort3, .Ltmp25-fallbackQSort3
	.cfi_endproc

	.align	16, 0x90
	.type	fallbackSimpleSort,@function
fallbackSimpleSort:                     # @fallbackSimpleSort
	.cfi_startproc
# BB#0:                                 # %entry
	movq	%rdi, -8(%rsp)
	movq	%rsi, -16(%rsp)
	movl	%edx, -20(%rsp)
	movl	%ecx, -24(%rsp)
	cmpl	%ecx, -20(%rsp)
	je	.LBB8_18
# BB#1:                                 # %if.end
	movl	-24(%rsp), %eax
	subl	-20(%rsp), %eax
	cmpl	$4, %eax
	jl	.LBB8_10
# BB#2:                                 # %if.then3
	movl	-24(%rsp), %eax
	addl	$-4, %eax
	movl	%eax, -28(%rsp)
	jmp	.LBB8_3
	.align	16, 0x90
.LBB8_9:                                # %for.inc25
                                        #   in Loop: Header=BB8_3 Depth=1
	movl	-32(%rsp), %eax
	addl	$-4, %eax
	movslq	%eax, %rax
	movq	-8(%rsp), %rcx
	movl	-36(%rsp), %edx
	movl	%edx, (%rcx,%rax,4)
	decl	-28(%rsp)
.LBB8_3:                                # %for.cond
                                        # =>This Loop Header: Depth=1
                                        #     Child Loop BB8_5 Depth 2
	movl	-28(%rsp), %eax
	cmpl	-20(%rsp), %eax
	jl	.LBB8_10
# BB#4:                                 # %for.body
                                        #   in Loop: Header=BB8_3 Depth=1
	movslq	-28(%rsp), %rax
	movq	-8(%rsp), %rcx
	movl	(%rcx,%rax,4), %eax
	movl	%eax, -36(%rsp)
	movslq	-36(%rsp), %rax
	movq	-16(%rsp), %rcx
	movl	(%rcx,%rax,4), %eax
	movl	%eax, -40(%rsp)
	movl	-28(%rsp), %eax
	addl	$4, %eax
	movl	%eax, -32(%rsp)
	jmp	.LBB8_5
	.align	16, 0x90
.LBB8_8:                                # %for.inc
                                        #   in Loop: Header=BB8_5 Depth=2
	movslq	-32(%rsp), %rax
	movq	-8(%rsp), %rcx
	movl	(%rcx,%rax,4), %edx
	addl	$-4, %eax
	movslq	%eax, %rax
	movl	%edx, (%rcx,%rax,4)
	addl	$4, -32(%rsp)
.LBB8_5:                                # %for.cond8
                                        #   Parent Loop BB8_3 Depth=1
                                        # =>  This Inner Loop Header: Depth=2
	xorb	%al, %al
	movl	-32(%rsp), %ecx
	cmpl	-24(%rsp), %ecx
	jg	.LBB8_7
# BB#6:                                 # %land.rhs
                                        #   in Loop: Header=BB8_5 Depth=2
	movslq	-32(%rsp), %rax
	movq	-8(%rsp), %rcx
	movl	(%rcx,%rax,4), %eax
	movq	-16(%rsp), %rcx
	movl	-40(%rsp), %edx
	cmpl	(%rcx,%rax,4), %edx
	seta	%al
.LBB8_7:                                # %land.end
                                        #   in Loop: Header=BB8_5 Depth=2
	cmpb	$1, %al
	jne	.LBB8_9
	jmp	.LBB8_8
.LBB8_10:                               # %if.end27
	movl	-24(%rsp), %eax
	decl	%eax
	movl	%eax, -28(%rsp)
	jmp	.LBB8_11
	.align	16, 0x90
.LBB8_17:                               # %for.inc57
                                        #   in Loop: Header=BB8_11 Depth=1
	movl	-32(%rsp), %eax
	decl	%eax
	movslq	%eax, %rax
	movq	-8(%rsp), %rcx
	movl	-36(%rsp), %edx
	movl	%edx, (%rcx,%rax,4)
	decl	-28(%rsp)
.LBB8_11:                               # %for.cond29
                                        # =>This Loop Header: Depth=1
                                        #     Child Loop BB8_13 Depth 2
	movl	-28(%rsp), %eax
	cmpl	-20(%rsp), %eax
	jl	.LBB8_18
# BB#12:                                # %for.body31
                                        #   in Loop: Header=BB8_11 Depth=1
	movslq	-28(%rsp), %rax
	movq	-8(%rsp), %rcx
	movl	(%rcx,%rax,4), %eax
	movl	%eax, -36(%rsp)
	movslq	-36(%rsp), %rax
	movq	-16(%rsp), %rcx
	movl	(%rcx,%rax,4), %eax
	movl	%eax, -40(%rsp)
	movl	-28(%rsp), %eax
	incl	%eax
	movl	%eax, -32(%rsp)
	jmp	.LBB8_13
	.align	16, 0x90
.LBB8_16:                               # %for.inc52
                                        #   in Loop: Header=BB8_13 Depth=2
	movslq	-32(%rsp), %rax
	movq	-8(%rsp), %rcx
	movl	(%rcx,%rax,4), %edx
	decl	%eax
	movslq	%eax, %rax
	movl	%edx, (%rcx,%rax,4)
	incl	-32(%rsp)
.LBB8_13:                               # %for.cond37
                                        #   Parent Loop BB8_11 Depth=1
                                        # =>  This Inner Loop Header: Depth=2
	xorb	%al, %al
	movl	-32(%rsp), %ecx
	cmpl	-24(%rsp), %ecx
	jg	.LBB8_15
# BB#14:                                # %land.rhs39
                                        #   in Loop: Header=BB8_13 Depth=2
	movslq	-32(%rsp), %rax
	movq	-8(%rsp), %rcx
	movl	(%rcx,%rax,4), %eax
	movq	-16(%rsp), %rcx
	movl	-40(%rsp), %edx
	cmpl	(%rcx,%rax,4), %edx
	seta	%al
.LBB8_15:                               # %land.end45
                                        #   in Loop: Header=BB8_13 Depth=2
	cmpb	$1, %al
	jne	.LBB8_17
	jmp	.LBB8_16
.LBB8_18:                               # %for.end59
	ret
.Ltmp26:
	.size	fallbackSimpleSort, .Ltmp26-fallbackSimpleSort
	.cfi_endproc

	.globl	fopen_output_safely
	.align	16, 0x90
	.type	fopen_output_safely,@function
fopen_output_safely:                    # @fopen_output_safely
	.cfi_startproc
# BB#0:                                 # %entry
	subq	$40, %rsp
.Ltmp28:
	.cfi_def_cfa_offset 48
	movq	%rdi, 24(%rsp)
	movq	%rsi, 16(%rsp)
	movq	24(%rsp), %rdi
	movl	$193, %esi
	movl	$384, %edx              # imm = 0x180
	xorb	%al, %al
	callq	open
	movl	%eax, 4(%rsp)
	cmpl	$-1, %eax
	jne	.LBB9_2
# BB#1:                                 # %if.then
	movq	$0, 32(%rsp)
	jmp	.LBB9_5
.LBB9_2:                                # %if.end
	movq	16(%rsp), %rsi
	movl	4(%rsp), %edi
	callq	fdopen
	movq	%rax, 8(%rsp)
	testq	%rax, %rax
	jne	.LBB9_4
# BB#3:                                 # %if.then3
	movl	4(%rsp), %edi
	callq	close
.LBB9_4:                                # %if.end5
	movq	8(%rsp), %rax
	movq	%rax, 32(%rsp)
.LBB9_5:                                # %return
	movq	32(%rsp), %rax
	addq	$40, %rsp
	ret
.Ltmp29:
	.size	fopen_output_safely, .Ltmp29-fopen_output_safely
	.cfi_endproc

	.globl	main
	.align	16, 0x90
	.type	main,@function
main:                                   # @main
	.cfi_startproc
# BB#0:                                 # %entry
	pushq	%rbx
.Ltmp32:
	.cfi_def_cfa_offset 16
	subq	$64, %rsp
.Ltmp33:
	.cfi_def_cfa_offset 80
.Ltmp34:
	.cfi_offset %rbx, -16
	movl	$0, 60(%rsp)
	movl	%edi, 56(%rsp)
	movq	%rsi, 48(%rsp)
	movq	$0, outputHandleJustInCase(%rip)
	movb	$0, smallMode(%rip)
	movb	$0, keepInputFiles(%rip)
	movb	$0, forceOverwrite(%rip)
	movb	$1, noisy(%rip)
	movl	$0, verbosity(%rip)
	movl	$9, blockSize100k(%rip)
	movb	$0, testFailsExist(%rip)
	movb	$0, unzFailsExist(%rip)
	movl	$0, numFileNames(%rip)
	movl	$0, numFilesProcessed(%rip)
	movl	$30, workFactor(%rip)
	movb	$0, deleteOutputOnInterrupt(%rip)
	movl	$0, exitValue(%rip)
	movl	$0, 40(%rsp)
	movl	$0, 44(%rsp)
	movl	$11, %edi
	movl	$mySIGSEGVorSIGBUScatcher, %esi
	callq	signal
	movl	$7, %edi
	movl	$mySIGSEGVorSIGBUScatcher, %esi
	callq	signal
	movl	$inName, %edi
	movl	$.L.str615, %esi
	callq	copyFileName
	movl	$outName, %edi
	movl	$.L.str615, %esi
	callq	copyFileName
	movq	48(%rsp), %rax
	movq	(%rax), %rsi
	movl	$progNameReally, %edi
	callq	copyFileName
	movq	$progNameReally, progName(%rip)
	movq	$progNameReally, 32(%rsp)
	jmp	.LBB10_1
	.align	16, 0x90
.LBB10_4:                               # %for.inc
                                        #   in Loop: Header=BB10_1 Depth=1
	incq	32(%rsp)
.LBB10_1:                               # %for.cond
                                        # =>This Inner Loop Header: Depth=1
	movq	32(%rsp), %rax
	movsbl	(%rax), %eax
	testl	%eax, %eax
	je	.LBB10_5
# BB#2:                                 # %for.body
                                        #   in Loop: Header=BB10_1 Depth=1
	movq	32(%rsp), %rax
	movsbl	(%rax), %eax
	cmpl	$47, %eax
	jne	.LBB10_4
# BB#3:                                 # %if.then
                                        #   in Loop: Header=BB10_1 Depth=1
	movq	32(%rsp), %rax
	incq	%rax
	movq	%rax, progName(%rip)
	jmp	.LBB10_4
.LBB10_5:                               # %for.end
	movq	$0, 24(%rsp)
	leaq	24(%rsp), %rbx
	movq	%rbx, %rdi
	movl	$.L.str716, %esi
	callq	addFlagsFromEnvVar
	movq	%rbx, %rdi
	movl	$.L.str817, %esi
	callq	addFlagsFromEnvVar
	movl	$1, 44(%rsp)
	jmp	.LBB10_6
	.align	16, 0x90
.LBB10_7:                               # %for.inc15
                                        #   in Loop: Header=BB10_6 Depth=1
	movslq	44(%rsp), %rax
	movq	48(%rsp), %rcx
	movq	(%rcx,%rax,8), %rsi
	movq	24(%rsp), %rdi
	callq	snocString
	movq	%rax, 24(%rsp)
	incl	44(%rsp)
.LBB10_6:                               # %for.cond9
                                        # =>This Inner Loop Header: Depth=1
	movl	56(%rsp), %eax
	decl	%eax
	cmpl	%eax, 44(%rsp)
	jle	.LBB10_7
# BB#8:                                 # %for.end16
	movl	$7, longestFileName(%rip)
	movl	$0, numFileNames(%rip)
	movb	$1, 15(%rsp)
	movq	24(%rsp), %rax
	jmp	.LBB10_9
	.align	16, 0x90
.LBB10_16:                              # %for.inc45
                                        #   in Loop: Header=BB10_9 Depth=1
	movq	16(%rsp), %rax
	movq	8(%rax), %rax
.LBB10_9:                               # %for.end16
                                        # =>This Inner Loop Header: Depth=1
	movq	%rax, 16(%rsp)
	cmpq	$0, 16(%rsp)
	je	.LBB10_17
# BB#10:                                # %for.body20
                                        #   in Loop: Header=BB10_9 Depth=1
	movq	16(%rsp), %rax
	movq	(%rax), %rdi
	movl	$.L.str918, %esi
	callq	strcmp
	testl	%eax, %eax
	jne	.LBB10_12
# BB#11:                                # %if.then24
                                        #   in Loop: Header=BB10_9 Depth=1
	movb	$0, 15(%rsp)
	jmp	.LBB10_16
	.align	16, 0x90
.LBB10_12:                              # %if.end25
                                        #   in Loop: Header=BB10_9 Depth=1
	movq	16(%rsp), %rax
	movq	(%rax), %rax
	movsbl	(%rax), %eax
	cmpl	$45, %eax
	jne	.LBB10_14
# BB#13:                                # %land.lhs.true
                                        #   in Loop: Header=BB10_9 Depth=1
	cmpb	$0, 15(%rsp)
	jne	.LBB10_16
.LBB10_14:                              # %if.end33
                                        #   in Loop: Header=BB10_9 Depth=1
	incl	numFileNames(%rip)
	movq	16(%rsp), %rax
	movq	(%rax), %rdi
	movl	longestFileName(%rip), %ebx
	callq	strlen
	cmpl	%eax, %ebx
	jge	.LBB10_16
# BB#15:                                # %if.then40
                                        #   in Loop: Header=BB10_9 Depth=1
	movq	16(%rsp), %rax
	movq	(%rax), %rdi
	callq	strlen
	movl	%eax, longestFileName(%rip)
	jmp	.LBB10_16
.LBB10_17:                              # %for.end46
	cmpl	$0, numFileNames(%rip)
	je	.LBB10_18
# BB#19:                                # %if.else
	movl	$3, srcMode(%rip)
	jmp	.LBB10_20
.LBB10_18:                              # %if.then49
	movl	$1, srcMode(%rip)
.LBB10_20:                              # %if.end50
	movl	$1, opMode(%rip)
	movq	progName(%rip), %rdi
	movl	$.L.str10, %esi
	callq	strstr
	testq	%rax, %rax
	jne	.LBB10_22
# BB#21:                                # %lor.lhs.false
	movq	progName(%rip), %rdi
	movl	$.L.str11, %esi
	callq	strstr
	testq	%rax, %rax
	je	.LBB10_23
.LBB10_22:                              # %if.then57
	movl	$2, opMode(%rip)
.LBB10_23:                              # %if.end58
	movq	progName(%rip), %rdi
	movl	$.L.str12, %esi
	callq	strstr
	testq	%rax, %rax
	jne	.LBB10_27
# BB#24:                                # %lor.lhs.false62
	movq	progName(%rip), %rdi
	movl	$.L.str13, %esi
	callq	strstr
	testq	%rax, %rax
	jne	.LBB10_27
# BB#25:                                # %lor.lhs.false66
	movq	progName(%rip), %rdi
	movl	$.L.str14, %esi
	callq	strstr
	testq	%rax, %rax
	jne	.LBB10_27
# BB#26:                                # %lor.lhs.false70
	movq	progName(%rip), %rdi
	movl	$.L.str15, %esi
	callq	strstr
	testq	%rax, %rax
	je	.LBB10_30
.LBB10_27:                              # %if.then74
	movl	$2, opMode(%rip)
	movl	$1, %eax
	cmpl	$0, numFileNames(%rip)
	je	.LBB10_29
# BB#28:                                # %select.mid
	movl	$2, %eax
.LBB10_29:                              # %select.end
	movl	%eax, srcMode(%rip)
.LBB10_30:                              # %if.end77
	movq	24(%rsp), %rax
	jmp	.LBB10_31
	.align	16, 0x90
.LBB10_68:                              # %for.inc138
                                        #   in Loop: Header=BB10_31 Depth=1
	movq	16(%rsp), %rax
	movq	8(%rax), %rax
.LBB10_31:                              # %if.end77
                                        # =>This Loop Header: Depth=1
                                        #     Child Loop BB10_36 Depth 2
	movq	%rax, 16(%rsp)
	cmpq	$0, 16(%rsp)
	je	.LBB10_69
# BB#32:                                # %for.body81
                                        #   in Loop: Header=BB10_31 Depth=1
	movq	16(%rsp), %rax
	movq	(%rax), %rdi
	movl	$.L.str918, %esi
	callq	strcmp
	testl	%eax, %eax
	je	.LBB10_69
# BB#33:                                # %if.end87
                                        #   in Loop: Header=BB10_31 Depth=1
	movq	16(%rsp), %rax
	movq	(%rax), %rax
	movsbl	(%rax), %eax
	cmpl	$45, %eax
	jne	.LBB10_68
# BB#34:                                # %land.lhs.true93
                                        #   in Loop: Header=BB10_31 Depth=1
	movq	16(%rsp), %rax
	movq	(%rax), %rax
	movsbl	1(%rax), %eax
	cmpl	$45, %eax
	je	.LBB10_68
# BB#35:                                # %if.then99
                                        #   in Loop: Header=BB10_31 Depth=1
	movl	$1, 40(%rsp)
	jmp	.LBB10_36
	.align	16, 0x90
.LBB10_67:                              # %sw.bb131
                                        #   in Loop: Header=BB10_36 Depth=2
	callq	exit
	incl	40(%rsp)
.LBB10_36:                              # %for.cond100
                                        #   Parent Loop BB10_31 Depth=1
                                        # =>  This Inner Loop Header: Depth=2
	movq	16(%rsp), %rax
	movq	(%rax), %rax
	movslq	40(%rsp), %rcx
	movsbl	(%rax,%rcx), %eax
	testl	%eax, %eax
	je	.LBB10_68
# BB#37:                                # %for.body107
                                        #   in Loop: Header=BB10_36 Depth=2
	movq	16(%rsp), %rax
	movq	(%rax), %rax
	movslq	40(%rsp), %rcx
	movsbl	(%rax,%rcx), %eax
	cmpl	$75, %eax
	ja	.LBB10_40
# BB#38:                                # %for.body107
                                        #   in Loop: Header=BB10_36 Depth=2
	addl	$-49, %eax
	cmpl	$8, %eax
	ja	.LBB10_42
# BB#39:                                # %for.body107
                                        #   in Loop: Header=BB10_36 Depth=2
	jmpq	*.LJTI10_1(,%rax,8)
.LBB10_56:                              # %sw.bb119
                                        #   in Loop: Header=BB10_36 Depth=2
	movl	$1, blockSize100k(%rip)
	incl	40(%rsp)
	jmp	.LBB10_36
	.align	16, 0x90
.LBB10_40:                              # %for.body107
                                        #   in Loop: Header=BB10_36 Depth=2
	cmpl	$85, %eax
	ja	.LBB10_43
# BB#41:                                # %for.body107
                                        #   in Loop: Header=BB10_36 Depth=2
	cmpl	$76, %eax
	je	.LBB10_45
	jmp	.LBB10_42
	.align	16, 0x90
.LBB10_43:                              # %for.body107
                                        #   in Loop: Header=BB10_36 Depth=2
	cmpl	$98, %eax
	ja	.LBB10_46
# BB#44:                                # %for.body107
                                        #   in Loop: Header=BB10_36 Depth=2
	cmpl	$86, %eax
	jne	.LBB10_42
.LBB10_45:                              # %sw.bb128
                                        #   in Loop: Header=BB10_36 Depth=2
	callq	license
	incl	40(%rsp)
	jmp	.LBB10_36
.LBB10_46:                              # %for.body107
                                        #   in Loop: Header=BB10_36 Depth=2
	addl	$-99, %eax
	cmpl	$23, %eax
	ja	.LBB10_42
# BB#47:                                # %for.body107
                                        #   in Loop: Header=BB10_36 Depth=2
	jmpq	*.LJTI10_0(,%rax,8)
.LBB10_48:                              # %sw.bb
                                        #   in Loop: Header=BB10_36 Depth=2
	movl	$2, srcMode(%rip)
	incl	40(%rsp)
	jmp	.LBB10_36
	.align	16, 0x90
.LBB10_42:                              # %sw.default
                                        #   in Loop: Header=BB10_36 Depth=2
	movq	16(%rsp), %rax
	movq	(%rax), %rcx
	movq	progName(%rip), %rdx
	movq	stderr(%rip), %rdi
	movl	$.L.str16, %esi
	xorb	%al, %al
	callq	fprintf
	movq	progName(%rip), %rdi
	callq	usage
	movl	$1, %edi
	jmp	.LBB10_67
.LBB10_57:                              # %sw.bb120
                                        #   in Loop: Header=BB10_36 Depth=2
	movl	$2, blockSize100k(%rip)
	incl	40(%rsp)
	jmp	.LBB10_36
.LBB10_58:                              # %sw.bb121
                                        #   in Loop: Header=BB10_36 Depth=2
	movl	$3, blockSize100k(%rip)
	incl	40(%rsp)
	jmp	.LBB10_36
.LBB10_59:                              # %sw.bb122
                                        #   in Loop: Header=BB10_36 Depth=2
	movl	$4, blockSize100k(%rip)
	incl	40(%rsp)
	jmp	.LBB10_36
.LBB10_60:                              # %sw.bb123
                                        #   in Loop: Header=BB10_36 Depth=2
	movl	$5, blockSize100k(%rip)
	incl	40(%rsp)
	jmp	.LBB10_36
.LBB10_61:                              # %sw.bb124
                                        #   in Loop: Header=BB10_36 Depth=2
	movl	$6, blockSize100k(%rip)
	incl	40(%rsp)
	jmp	.LBB10_36
.LBB10_62:                              # %sw.bb125
                                        #   in Loop: Header=BB10_36 Depth=2
	movl	$7, blockSize100k(%rip)
	incl	40(%rsp)
	jmp	.LBB10_36
.LBB10_63:                              # %sw.bb126
                                        #   in Loop: Header=BB10_36 Depth=2
	movl	$8, blockSize100k(%rip)
	incl	40(%rsp)
	jmp	.LBB10_36
.LBB10_64:                              # %sw.bb127
                                        #   in Loop: Header=BB10_36 Depth=2
	movl	$9, blockSize100k(%rip)
	incl	40(%rsp)
	jmp	.LBB10_36
.LBB10_49:                              # %sw.bb112
                                        #   in Loop: Header=BB10_36 Depth=2
	movl	$2, opMode(%rip)
	incl	40(%rsp)
	jmp	.LBB10_36
.LBB10_51:                              # %sw.bb114
                                        #   in Loop: Header=BB10_36 Depth=2
	movb	$1, forceOverwrite(%rip)
	incl	40(%rsp)
	jmp	.LBB10_36
.LBB10_66:                              # %sw.bb131
                                        #   in Loop: Header=BB10_36 Depth=2
	movq	progName(%rip), %rdi
	callq	usage
	xorl	%edi, %edi
	jmp	.LBB10_67
.LBB10_53:                              # %sw.bb116
                                        #   in Loop: Header=BB10_36 Depth=2
	movb	$1, keepInputFiles(%rip)
	incl	40(%rsp)
	jmp	.LBB10_36
.LBB10_55:                              # %sw.bb118
                                        #   in Loop: Header=BB10_36 Depth=2
	movb	$0, noisy(%rip)
	incl	40(%rsp)
	jmp	.LBB10_36
.LBB10_54:                              # %sw.bb117
                                        #   in Loop: Header=BB10_36 Depth=2
	movb	$1, smallMode(%rip)
	incl	40(%rsp)
	jmp	.LBB10_36
.LBB10_52:                              # %sw.bb115
                                        #   in Loop: Header=BB10_36 Depth=2
	movl	$3, opMode(%rip)
	incl	40(%rsp)
	jmp	.LBB10_36
.LBB10_65:                              # %sw.bb129
                                        #   in Loop: Header=BB10_36 Depth=2
	incl	verbosity(%rip)
	incl	40(%rsp)
	jmp	.LBB10_36
.LBB10_50:                              # %sw.bb113
                                        #   in Loop: Header=BB10_36 Depth=2
	movl	$1, opMode(%rip)
	incl	40(%rsp)
	jmp	.LBB10_36
.LBB10_69:                              # %for.end140
	movq	24(%rsp), %rax
	jmp	.LBB10_70
	.align	16, 0x90
.LBB10_108:                             # %for.inc281
                                        #   in Loop: Header=BB10_70 Depth=1
	movq	16(%rsp), %rax
	movq	8(%rax), %rax
.LBB10_70:                              # %for.end140
                                        # =>This Inner Loop Header: Depth=1
	movq	%rax, 16(%rsp)
	cmpq	$0, 16(%rsp)
	je	.LBB10_109
# BB#71:                                # %for.body144
                                        #   in Loop: Header=BB10_70 Depth=1
	movq	16(%rsp), %rax
	movq	(%rax), %rdi
	movl	$.L.str918, %esi
	callq	strcmp
	testl	%eax, %eax
	je	.LBB10_109
# BB#72:                                # %if.end150
                                        #   in Loop: Header=BB10_70 Depth=1
	movq	16(%rsp), %rax
	movq	(%rax), %rdi
	movl	$.L.str17, %esi
	callq	strcmp
	testl	%eax, %eax
	jne	.LBB10_74
# BB#73:                                # %if.then155
                                        #   in Loop: Header=BB10_70 Depth=1
	movl	$2, srcMode(%rip)
	jmp	.LBB10_108
	.align	16, 0x90
.LBB10_74:                              # %if.else156
                                        #   in Loop: Header=BB10_70 Depth=1
	movq	16(%rsp), %rax
	movq	(%rax), %rdi
	movl	$.L.str18, %esi
	callq	strcmp
	testl	%eax, %eax
	jne	.LBB10_76
# BB#75:                                # %if.then161
                                        #   in Loop: Header=BB10_70 Depth=1
	movl	$2, opMode(%rip)
	jmp	.LBB10_108
	.align	16, 0x90
.LBB10_76:                              # %if.else162
                                        #   in Loop: Header=BB10_70 Depth=1
	movq	16(%rsp), %rax
	movq	(%rax), %rdi
	movl	$.L.str19, %esi
	callq	strcmp
	testl	%eax, %eax
	jne	.LBB10_78
# BB#77:                                # %if.then167
                                        #   in Loop: Header=BB10_70 Depth=1
	movl	$1, opMode(%rip)
	jmp	.LBB10_108
.LBB10_78:                              # %if.else168
                                        #   in Loop: Header=BB10_70 Depth=1
	movq	16(%rsp), %rax
	movq	(%rax), %rdi
	movl	$.L.str20, %esi
	callq	strcmp
	testl	%eax, %eax
	jne	.LBB10_80
# BB#79:                                # %if.then173
                                        #   in Loop: Header=BB10_70 Depth=1
	movb	$1, forceOverwrite(%rip)
	jmp	.LBB10_108
.LBB10_80:                              # %if.else174
                                        #   in Loop: Header=BB10_70 Depth=1
	movq	16(%rsp), %rax
	movq	(%rax), %rdi
	movl	$.L.str21, %esi
	callq	strcmp
	testl	%eax, %eax
	jne	.LBB10_82
# BB#81:                                # %if.then179
                                        #   in Loop: Header=BB10_70 Depth=1
	movl	$3, opMode(%rip)
	jmp	.LBB10_108
.LBB10_82:                              # %if.else180
                                        #   in Loop: Header=BB10_70 Depth=1
	movq	16(%rsp), %rax
	movq	(%rax), %rdi
	movl	$.L.str22, %esi
	callq	strcmp
	testl	%eax, %eax
	jne	.LBB10_84
# BB#83:                                # %if.then185
                                        #   in Loop: Header=BB10_70 Depth=1
	movb	$1, keepInputFiles(%rip)
	jmp	.LBB10_108
.LBB10_84:                              # %if.else186
                                        #   in Loop: Header=BB10_70 Depth=1
	movq	16(%rsp), %rax
	movq	(%rax), %rdi
	movl	$.L.str23, %esi
	callq	strcmp
	testl	%eax, %eax
	jne	.LBB10_86
# BB#85:                                # %if.then191
                                        #   in Loop: Header=BB10_70 Depth=1
	movb	$1, smallMode(%rip)
	jmp	.LBB10_108
.LBB10_86:                              # %if.else192
                                        #   in Loop: Header=BB10_70 Depth=1
	movq	16(%rsp), %rax
	movq	(%rax), %rdi
	movl	$.L.str24, %esi
	callq	strcmp
	testl	%eax, %eax
	jne	.LBB10_88
# BB#87:                                # %if.then197
                                        #   in Loop: Header=BB10_70 Depth=1
	movb	$0, noisy(%rip)
	jmp	.LBB10_108
.LBB10_88:                              # %if.else198
                                        #   in Loop: Header=BB10_70 Depth=1
	movq	16(%rsp), %rax
	movq	(%rax), %rdi
	movl	$.L.str25, %esi
	callq	strcmp
	testl	%eax, %eax
	jne	.LBB10_90
# BB#89:                                # %if.then203
                                        #   in Loop: Header=BB10_70 Depth=1
	callq	license
	jmp	.LBB10_108
.LBB10_90:                              # %if.else204
                                        #   in Loop: Header=BB10_70 Depth=1
	movq	16(%rsp), %rax
	movq	(%rax), %rdi
	movl	$.L.str26, %esi
	callq	strcmp
	testl	%eax, %eax
	jne	.LBB10_92
# BB#91:                                # %if.then209
                                        #   in Loop: Header=BB10_70 Depth=1
	callq	license
	jmp	.LBB10_108
.LBB10_92:                              # %if.else210
                                        #   in Loop: Header=BB10_70 Depth=1
	movq	16(%rsp), %rax
	movq	(%rax), %rdi
	movl	$.L.str27, %esi
	callq	strcmp
	testl	%eax, %eax
	jne	.LBB10_94
# BB#93:                                # %if.then215
                                        #   in Loop: Header=BB10_70 Depth=1
	movl	$1, workFactor(%rip)
	jmp	.LBB10_108
.LBB10_94:                              # %if.else216
                                        #   in Loop: Header=BB10_70 Depth=1
	movq	16(%rsp), %rax
	movq	(%rax), %rdi
	movl	$.L.str28, %esi
	callq	strcmp
	testl	%eax, %eax
	je	.LBB10_95
# BB#96:                                # %if.else223
                                        #   in Loop: Header=BB10_70 Depth=1
	movq	16(%rsp), %rax
	movq	(%rax), %rdi
	movl	$.L.str29, %esi
	callq	strcmp
	testl	%eax, %eax
	jne	.LBB10_97
.LBB10_95:                              # %if.then221
                                        #   in Loop: Header=BB10_70 Depth=1
	movq	16(%rsp), %rax
	movq	(%rax), %rdi
	callq	redundant
	jmp	.LBB10_108
.LBB10_97:                              # %if.else230
                                        #   in Loop: Header=BB10_70 Depth=1
	movq	16(%rsp), %rax
	movq	(%rax), %rdi
	movl	$.L.str30, %esi
	callq	strcmp
	testl	%eax, %eax
	jne	.LBB10_99
# BB#98:                                # %if.then235
                                        #   in Loop: Header=BB10_70 Depth=1
	movl	$1, blockSize100k(%rip)
	jmp	.LBB10_108
.LBB10_99:                              # %if.else236
                                        #   in Loop: Header=BB10_70 Depth=1
	movq	16(%rsp), %rax
	movq	(%rax), %rdi
	movl	$.L.str31, %esi
	callq	strcmp
	testl	%eax, %eax
	jne	.LBB10_101
# BB#100:                               # %if.then241
                                        #   in Loop: Header=BB10_70 Depth=1
	movl	$9, blockSize100k(%rip)
	jmp	.LBB10_108
.LBB10_101:                             # %if.else242
                                        #   in Loop: Header=BB10_70 Depth=1
	movq	16(%rsp), %rax
	movq	(%rax), %rdi
	movl	$.L.str32, %esi
	callq	strcmp
	testl	%eax, %eax
	jne	.LBB10_103
# BB#102:                               # %if.then247
                                        #   in Loop: Header=BB10_70 Depth=1
	incl	verbosity(%rip)
	jmp	.LBB10_108
.LBB10_103:                             # %if.else249
                                        #   in Loop: Header=BB10_70 Depth=1
	movq	16(%rsp), %rax
	movq	(%rax), %rdi
	movl	$.L.str33, %esi
	callq	strcmp
	testl	%eax, %eax
	jne	.LBB10_105
# BB#104:                               # %if.then254
                                        #   in Loop: Header=BB10_70 Depth=1
	movq	progName(%rip), %rdi
	callq	usage
	xorl	%edi, %edi
	jmp	.LBB10_107
.LBB10_105:                             # %if.else255
                                        #   in Loop: Header=BB10_70 Depth=1
	movq	16(%rsp), %rax
	movq	(%rax), %rdi
	movl	$.L.str918, %esi
	movl	$2, %edx
	callq	strncmp
	testl	%eax, %eax
	jne	.LBB10_108
# BB#106:                               # %if.then260
                                        #   in Loop: Header=BB10_70 Depth=1
	movq	16(%rsp), %rax
	movq	(%rax), %rcx
	movq	progName(%rip), %rdx
	movq	stderr(%rip), %rdi
	movl	$.L.str16, %esi
	xorb	%al, %al
	callq	fprintf
	movq	progName(%rip), %rdi
	callq	usage
	movl	$1, %edi
.LBB10_107:                             # %if.then260
                                        #   in Loop: Header=BB10_70 Depth=1
	callq	exit
	jmp	.LBB10_108
.LBB10_109:                             # %for.end283
	cmpl	$5, verbosity(%rip)
	jl	.LBB10_111
# BB#110:                               # %if.then286
	movl	$4, verbosity(%rip)
.LBB10_111:                             # %if.end287
	cmpl	$1, opMode(%rip)
	jne	.LBB10_115
# BB#112:                               # %land.lhs.true290
	movzbl	smallMode(%rip), %eax
	testl	%eax, %eax
	je	.LBB10_115
# BB#113:                               # %land.lhs.true293
	cmpl	$3, blockSize100k(%rip)
	jl	.LBB10_115
# BB#114:                               # %if.then296
	movl	$2, blockSize100k(%rip)
.LBB10_115:                             # %if.end297
	cmpl	$3, opMode(%rip)
	jne	.LBB10_118
# BB#116:                               # %land.lhs.true300
	cmpl	$2, srcMode(%rip)
	jne	.LBB10_118
# BB#117:                               # %if.then303
	movq	progName(%rip), %rdx
	movq	stderr(%rip), %rdi
	movl	$.L.str34, %esi
	xorb	%al, %al
	callq	fprintf
	movl	$1, %edi
	callq	exit
.LBB10_118:                             # %if.end305
	cmpl	$2, srcMode(%rip)
	jne	.LBB10_121
# BB#119:                               # %land.lhs.true308
	cmpl	$0, numFileNames(%rip)
	jne	.LBB10_121
# BB#120:                               # %if.then311
	movl	$1, srcMode(%rip)
.LBB10_121:                             # %if.end312
	cmpl	$1, opMode(%rip)
	je	.LBB10_123
# BB#122:                               # %if.then315
	movl	$0, blockSize100k(%rip)
.LBB10_123:                             # %if.end316
	cmpl	$3, srcMode(%rip)
	jne	.LBB10_125
# BB#124:                               # %if.then319
	movl	$2, %edi
	movl	$mySignalCatcher, %esi
	callq	signal
	movl	$15, %edi
	movl	$mySignalCatcher, %esi
	callq	signal
	movl	$1, %edi
	movl	$mySignalCatcher, %esi
	callq	signal
.LBB10_125:                             # %if.end323
	cmpl	$1, opMode(%rip)
	jne	.LBB10_136
# BB#126:                               # %if.then326
	cmpl	$1, srcMode(%rip)
	jne	.LBB10_128
# BB#127:                               # %if.then329
	xorl	%edi, %edi
	callq	compress
	jmp	.LBB10_140
.LBB10_136:                             # %if.else357
	cmpl	$2, opMode(%rip)
	jne	.LBB10_153
# BB#137:                               # %if.then360
	movb	$0, unzFailsExist(%rip)
	cmpl	$1, srcMode(%rip)
	jne	.LBB10_145
# BB#138:                               # %if.then363
	xorl	%edi, %edi
	callq	uncompress
	jmp	.LBB10_139
.LBB10_128:                             # %if.else330
	movb	$1, 15(%rsp)
	movq	24(%rsp), %rax
	jmp	.LBB10_129
	.align	16, 0x90
.LBB10_135:                             # %for.inc353
                                        #   in Loop: Header=BB10_129 Depth=1
	movq	16(%rsp), %rax
	movq	8(%rax), %rax
.LBB10_129:                             # %if.else330
                                        # =>This Inner Loop Header: Depth=1
	movq	%rax, 16(%rsp)
	cmpq	$0, 16(%rsp)
	je	.LBB10_140
# BB#130:                               # %for.body334
                                        #   in Loop: Header=BB10_129 Depth=1
	movq	16(%rsp), %rax
	movq	(%rax), %rdi
	movl	$.L.str918, %esi
	callq	strcmp
	testl	%eax, %eax
	jne	.LBB10_132
# BB#131:                               # %if.then339
                                        #   in Loop: Header=BB10_129 Depth=1
	movb	$0, 15(%rsp)
	jmp	.LBB10_135
	.align	16, 0x90
.LBB10_132:                             # %if.end340
                                        #   in Loop: Header=BB10_129 Depth=1
	movq	16(%rsp), %rax
	movq	(%rax), %rax
	movsbl	(%rax), %eax
	cmpl	$45, %eax
	jne	.LBB10_134
# BB#133:                               # %land.lhs.true346
                                        #   in Loop: Header=BB10_129 Depth=1
	cmpb	$0, 15(%rsp)
	jne	.LBB10_135
.LBB10_134:                             # %if.end350
                                        #   in Loop: Header=BB10_129 Depth=1
	incl	numFilesProcessed(%rip)
	movq	16(%rsp), %rax
	movq	(%rax), %rdi
	callq	compress
	jmp	.LBB10_135
.LBB10_153:                             # %if.else394
	movb	$0, testFailsExist(%rip)
	cmpl	$1, srcMode(%rip)
	jne	.LBB10_159
# BB#154:                               # %if.then397
	xorl	%edi, %edi
	callq	testf
	jmp	.LBB10_155
.LBB10_145:                             # %if.else364
	movb	$1, 15(%rsp)
	movq	24(%rsp), %rax
	jmp	.LBB10_146
	.align	16, 0x90
.LBB10_152:                             # %for.inc387
                                        #   in Loop: Header=BB10_146 Depth=1
	movq	16(%rsp), %rax
	movq	8(%rax), %rax
.LBB10_146:                             # %if.else364
                                        # =>This Inner Loop Header: Depth=1
	movq	%rax, 16(%rsp)
	cmpq	$0, 16(%rsp)
	je	.LBB10_139
# BB#147:                               # %for.body368
                                        #   in Loop: Header=BB10_146 Depth=1
	movq	16(%rsp), %rax
	movq	(%rax), %rdi
	movl	$.L.str918, %esi
	callq	strcmp
	testl	%eax, %eax
	jne	.LBB10_149
# BB#148:                               # %if.then373
                                        #   in Loop: Header=BB10_146 Depth=1
	movb	$0, 15(%rsp)
	jmp	.LBB10_152
	.align	16, 0x90
.LBB10_149:                             # %if.end374
                                        #   in Loop: Header=BB10_146 Depth=1
	movq	16(%rsp), %rax
	movq	(%rax), %rax
	movsbl	(%rax), %eax
	cmpl	$45, %eax
	jne	.LBB10_151
# BB#150:                               # %land.lhs.true380
                                        #   in Loop: Header=BB10_146 Depth=1
	cmpb	$0, 15(%rsp)
	jne	.LBB10_152
.LBB10_151:                             # %if.end384
                                        #   in Loop: Header=BB10_146 Depth=1
	incl	numFilesProcessed(%rip)
	movq	16(%rsp), %rax
	movq	(%rax), %rdi
	callq	uncompress
	jmp	.LBB10_152
.LBB10_139:                             # %if.end390
	cmpb	$0, unzFailsExist(%rip)
	jne	.LBB10_158
	jmp	.LBB10_140
.LBB10_159:                             # %if.else398
	movb	$1, 15(%rsp)
	movq	24(%rsp), %rax
	jmp	.LBB10_160
	.align	16, 0x90
.LBB10_166:                             # %for.inc421
                                        #   in Loop: Header=BB10_160 Depth=1
	movq	16(%rsp), %rax
	movq	8(%rax), %rax
.LBB10_160:                             # %if.else398
                                        # =>This Inner Loop Header: Depth=1
	movq	%rax, 16(%rsp)
	cmpq	$0, 16(%rsp)
	je	.LBB10_155
# BB#161:                               # %for.body402
                                        #   in Loop: Header=BB10_160 Depth=1
	movq	16(%rsp), %rax
	movq	(%rax), %rdi
	movl	$.L.str918, %esi
	callq	strcmp
	testl	%eax, %eax
	jne	.LBB10_163
# BB#162:                               # %if.then407
                                        #   in Loop: Header=BB10_160 Depth=1
	movb	$0, 15(%rsp)
	jmp	.LBB10_166
	.align	16, 0x90
.LBB10_163:                             # %if.end408
                                        #   in Loop: Header=BB10_160 Depth=1
	movq	16(%rsp), %rax
	movq	(%rax), %rax
	movsbl	(%rax), %eax
	cmpl	$45, %eax
	jne	.LBB10_165
# BB#164:                               # %land.lhs.true414
                                        #   in Loop: Header=BB10_160 Depth=1
	cmpb	$0, 15(%rsp)
	jne	.LBB10_166
.LBB10_165:                             # %if.end418
                                        #   in Loop: Header=BB10_160 Depth=1
	incl	numFilesProcessed(%rip)
	movq	16(%rsp), %rax
	movq	(%rax), %rdi
	callq	testf
	jmp	.LBB10_166
.LBB10_155:                             # %if.end424
	movzbl	testFailsExist(%rip), %eax
	testl	%eax, %eax
	je	.LBB10_140
# BB#156:                               # %land.lhs.true427
	movzbl	noisy(%rip), %eax
	testl	%eax, %eax
	je	.LBB10_140
# BB#157:                               # %if.then430
	movq	stderr(%rip), %rdi
	movl	$.L.str35, %esi
	xorb	%al, %al
	callq	fprintf
.LBB10_158:                             # %if.then430
	movl	$2, %edi
	callq	setExit
	movl	exitValue(%rip), %edi
	callq	exit
.LBB10_140:                             # %if.end434
	movq	24(%rsp), %rax
	jmp	.LBB10_141
	.align	16, 0x90
.LBB10_144:                             # %if.end444
                                        #   in Loop: Header=BB10_141 Depth=1
	movq	16(%rsp), %rdi
	callq	free
	movq	(%rsp), %rax
.LBB10_141:                             # %if.end434
                                        # =>This Inner Loop Header: Depth=1
	movq	%rax, 16(%rsp)
	cmpq	$0, 16(%rsp)
	je	.LBB10_167
# BB#142:                               # %while.body
                                        #   in Loop: Header=BB10_141 Depth=1
	movq	16(%rsp), %rax
	movq	8(%rax), %rax
	movq	%rax, (%rsp)
	movq	16(%rsp), %rax
	cmpq	$0, (%rax)
	je	.LBB10_144
# BB#143:                               # %if.then442
                                        #   in Loop: Header=BB10_141 Depth=1
	movq	16(%rsp), %rax
	movq	(%rax), %rdi
	callq	free
	jmp	.LBB10_144
.LBB10_167:                             # %while.end
	movl	exitValue(%rip), %eax
	addq	$64, %rsp
	popq	%rbx
	ret
.Ltmp35:
	.size	main, .Ltmp35-main
	.cfi_endproc
	.section	.rodata,"a",@progbits
	.align	8
.LJTI10_0:
	.quad	.LBB10_48
	.quad	.LBB10_49
	.quad	.LBB10_42
	.quad	.LBB10_51
	.quad	.LBB10_42
	.quad	.LBB10_66
	.quad	.LBB10_42
	.quad	.LBB10_42
	.quad	.LBB10_53
	.quad	.LBB10_42
	.quad	.LBB10_42
	.quad	.LBB10_42
	.quad	.LBB10_42
	.quad	.LBB10_42
	.quad	.LBB10_55
	.quad	.LBB10_42
	.quad	.LBB10_54
	.quad	.LBB10_52
	.quad	.LBB10_42
	.quad	.LBB10_65
	.quad	.LBB10_42
	.quad	.LBB10_42
	.quad	.LBB10_42
	.quad	.LBB10_50
.LJTI10_1:
	.quad	.LBB10_56
	.quad	.LBB10_57
	.quad	.LBB10_58
	.quad	.LBB10_59
	.quad	.LBB10_60
	.quad	.LBB10_61
	.quad	.LBB10_62
	.quad	.LBB10_63
	.quad	.LBB10_64

	.text
	.align	16, 0x90
	.type	mySIGSEGVorSIGBUScatcher,@function
mySIGSEGVorSIGBUScatcher:               # @mySIGSEGVorSIGBUScatcher
	.cfi_startproc
# BB#0:                                 # %entry
	pushq	%rax
.Ltmp37:
	.cfi_def_cfa_offset 16
	movl	%edi, 4(%rsp)
	cmpl	$1, opMode(%rip)
	jne	.LBB11_2
# BB#1:                                 # %if.then
	movq	progName(%rip), %rdx
	movq	stderr(%rip), %rdi
	movl	$.L.str106, %esi
	jmp	.LBB11_3
.LBB11_2:                               # %if.else
	movq	progName(%rip), %rdx
	movq	stderr(%rip), %rdi
	movl	$.L.str107, %esi
.LBB11_3:                               # %if.else
	xorb	%al, %al
	callq	fprintf
	callq	showFileNames
	cmpl	$1, opMode(%rip)
	jne	.LBB11_5
# BB#4:                                 # %if.then3
	movl	$3, %edi
	jmp	.LBB11_6
.LBB11_5:                               # %if.else4
	callq	cadvise
	movl	$2, %edi
.LBB11_6:                               # %if.else4
	callq	cleanUpAndFail
	popq	%rax
	ret
.Ltmp38:
	.size	mySIGSEGVorSIGBUScatcher, .Ltmp38-mySIGSEGVorSIGBUScatcher
	.cfi_endproc

	.align	16, 0x90
	.type	copyFileName,@function
copyFileName:                           # @copyFileName
	.cfi_startproc
# BB#0:                                 # %entry
	subq	$24, %rsp
.Ltmp40:
	.cfi_def_cfa_offset 32
	movq	%rdi, 16(%rsp)
	movq	%rsi, 8(%rsp)
	movq	%rsi, %rdi
	callq	strlen
	cmpq	$1025, %rax             # imm = 0x401
	jb	.LBB12_2
# BB#1:                                 # %if.then
	movq	8(%rsp), %rdx
	movq	stderr(%rip), %rdi
	movl	$.L.str105, %esi
	movl	$1024, %ecx             # imm = 0x400
	xorb	%al, %al
	callq	fprintf
	movl	$1, %edi
	callq	setExit
	movl	exitValue(%rip), %edi
	callq	exit
.LBB12_2:                               # %if.end
	movq	8(%rsp), %rsi
	movq	16(%rsp), %rdi
	movl	$1024, %edx             # imm = 0x400
	callq	strncpy
	movq	16(%rsp), %rax
	movb	$0, 1024(%rax)
	addq	$24, %rsp
	ret
.Ltmp41:
	.size	copyFileName, .Ltmp41-copyFileName
	.cfi_endproc

	.align	16, 0x90
	.type	addFlagsFromEnvVar,@function
addFlagsFromEnvVar:                     # @addFlagsFromEnvVar
	.cfi_startproc
# BB#0:                                 # %entry
	pushq	%rbx
.Ltmp44:
	.cfi_def_cfa_offset 16
	subq	$48, %rsp
.Ltmp45:
	.cfi_def_cfa_offset 64
.Ltmp46:
	.cfi_offset %rbx, -16
	movq	%rdi, 40(%rsp)
	movq	%rsi, 32(%rsp)
	movq	%rsi, %rdi
	callq	getenv
	movq	%rax, 8(%rsp)
	testq	%rax, %rax
	je	.LBB13_17
# BB#1:                                 # %if.then
	movq	8(%rsp), %rax
	movq	%rax, (%rsp)
	movl	$0, 28(%rsp)
	jmp	.LBB13_2
	.align	16, 0x90
.LBB13_16:                              # %for.end
                                        #   in Loop: Header=BB13_2 Depth=1
	movslq	20(%rsp), %rax
	movb	$0, tmpName(%rax)
	movq	40(%rsp), %rax
	movq	(%rax), %rdi
	movl	$tmpName, %esi
	callq	snocString
	movq	40(%rsp), %rcx
	movq	%rax, (%rcx)
.LBB13_2:                               # %while.body
                                        # =>This Loop Header: Depth=1
                                        #     Child Loop BB13_4 Depth 2
                                        #     Child Loop BB13_6 Depth 2
                                        #     Child Loop BB13_14 Depth 2
	movslq	28(%rsp), %rax
	movq	(%rsp), %rcx
	movsbl	(%rcx,%rax), %eax
	testl	%eax, %eax
	je	.LBB13_17
# BB#3:                                 # %if.end
                                        #   in Loop: Header=BB13_2 Depth=1
	movslq	28(%rsp), %rax
	addq	%rax, (%rsp)
	movl	$0, 28(%rsp)
	jmp	.LBB13_4
	.align	16, 0x90
.LBB13_5:                               # %while.body11
                                        #   in Loop: Header=BB13_4 Depth=2
	incq	(%rsp)
.LBB13_4:                               # %while.cond4
                                        #   Parent Loop BB13_2 Depth=1
                                        # =>  This Inner Loop Header: Depth=2
	movq	(%rsp), %rax
	movsbq	(%rax), %rbx
	callq	__ctype_b_loc
	movq	(%rax), %rax
	testb	$32, 1(%rax,%rbx,2)
	je	.LBB13_6
	jmp	.LBB13_5
	.align	16, 0x90
.LBB13_9:                               # %while.body27
                                        #   in Loop: Header=BB13_6 Depth=2
	incl	28(%rsp)
.LBB13_6:                               # %while.cond12
                                        #   Parent Loop BB13_2 Depth=1
                                        # =>  This Inner Loop Header: Depth=2
	movslq	28(%rsp), %rax
	movq	(%rsp), %rcx
	movsbl	(%rcx,%rax), %ecx
	xorb	%al, %al
	testl	%ecx, %ecx
	je	.LBB13_8
# BB#7:                                 # %land.rhs
                                        #   in Loop: Header=BB13_6 Depth=2
	movslq	28(%rsp), %rax
	movq	(%rsp), %rcx
	movsbq	(%rcx,%rax), %rbx
	callq	__ctype_b_loc
	movq	(%rax), %rax
	testb	$32, 1(%rax,%rbx,2)
	sete	%al
.LBB13_8:                               # %land.end
                                        #   in Loop: Header=BB13_6 Depth=2
	cmpb	$1, %al
	je	.LBB13_9
# BB#10:                                # %while.end28
                                        #   in Loop: Header=BB13_2 Depth=1
	cmpl	$0, 28(%rsp)
	jle	.LBB13_2
# BB#11:                                # %if.then31
                                        #   in Loop: Header=BB13_2 Depth=1
	movl	28(%rsp), %eax
	movl	%eax, 20(%rsp)
	cmpl	$1025, %eax             # imm = 0x401
	jl	.LBB13_13
# BB#12:                                # %if.then34
                                        #   in Loop: Header=BB13_2 Depth=1
	movl	$1024, 20(%rsp)         # imm = 0x400
.LBB13_13:                              # %if.end35
                                        #   in Loop: Header=BB13_2 Depth=1
	movl	$0, 24(%rsp)
	jmp	.LBB13_14
	.align	16, 0x90
.LBB13_15:                              # %for.inc
                                        #   in Loop: Header=BB13_14 Depth=2
	movslq	24(%rsp), %rax
	movq	(%rsp), %rcx
	movb	(%rcx,%rax), %cl
	movb	%cl, tmpName(%rax)
	incl	24(%rsp)
.LBB13_14:                              # %for.cond
                                        #   Parent Loop BB13_2 Depth=1
                                        # =>  This Inner Loop Header: Depth=2
	movl	24(%rsp), %eax
	cmpl	20(%rsp), %eax
	jge	.LBB13_16
	jmp	.LBB13_15
.LBB13_17:                              # %if.end48
	addq	$48, %rsp
	popq	%rbx
	ret
.Ltmp47:
	.size	addFlagsFromEnvVar, .Ltmp47-addFlagsFromEnvVar
	.cfi_endproc

	.align	16, 0x90
	.type	snocString,@function
snocString:                             # @snocString
	.cfi_startproc
# BB#0:                                 # %entry
	subq	$40, %rsp
.Ltmp49:
	.cfi_def_cfa_offset 48
	movq	%rdi, 24(%rsp)
	movq	%rsi, 16(%rsp)
	cmpq	$0, 24(%rsp)
	je	.LBB14_1
# BB#2:                                 # %if.else
	movq	24(%rsp), %rax
	jmp	.LBB14_3
	.align	16, 0x90
.LBB14_4:                               # %while.body
                                        #   in Loop: Header=BB14_3 Depth=1
	movq	(%rsp), %rax
	movq	8(%rax), %rax
.LBB14_3:                               # %if.else
                                        # =>This Inner Loop Header: Depth=1
	movq	%rax, (%rsp)
	movq	(%rsp), %rax
	cmpq	$0, 8(%rax)
	jne	.LBB14_4
# BB#5:                                 # %while.end
	movq	(%rsp), %rax
	movq	8(%rax), %rdi
	movq	16(%rsp), %rsi
	callq	snocString
	movq	(%rsp), %rcx
	movq	%rax, 8(%rcx)
	movq	24(%rsp), %rax
	jmp	.LBB14_6
.LBB14_1:                               # %if.then
	callq	mkCell
	movq	%rax, 8(%rsp)
	movq	16(%rsp), %rdi
	callq	strlen
	leal	5(%rax), %edi
	callq	myMalloc
	movq	8(%rsp), %rcx
	movq	%rax, (%rcx)
	movq	8(%rsp), %rax
	movq	(%rax), %rdi
	movq	16(%rsp), %rsi
	callq	strcpy
	movq	8(%rsp), %rax
.LBB14_6:                               # %while.end
	movq	%rax, 32(%rsp)
	movq	32(%rsp), %rax
	addq	$40, %rsp
	ret
.Ltmp50:
	.size	snocString, .Ltmp50-snocString
	.cfi_endproc

	.align	16, 0x90
	.type	license,@function
license:                                # @license
	.cfi_startproc
# BB#0:                                 # %entry
	pushq	%rbx
.Ltmp53:
	.cfi_def_cfa_offset 16
.Ltmp54:
	.cfi_offset %rbx, -16
	movq	stderr(%rip), %rbx
	callq	BZ2_bzlibVersion
	movq	%rbx, %rdi
	movl	$.L.str104, %esi
	movq	%rax, %rdx
	xorb	%al, %al
	callq	fprintf
	popq	%rbx
	ret
.Ltmp55:
	.size	license, .Ltmp55-license
	.cfi_endproc

	.align	16, 0x90
	.type	usage,@function
usage:                                  # @usage
	.cfi_startproc
# BB#0:                                 # %entry
	pushq	%rbx
.Ltmp58:
	.cfi_def_cfa_offset 16
	subq	$16, %rsp
.Ltmp59:
	.cfi_def_cfa_offset 32
.Ltmp60:
	.cfi_offset %rbx, -16
	movq	%rdi, 8(%rsp)
	movq	stderr(%rip), %rbx
	callq	BZ2_bzlibVersion
	movq	8(%rsp), %rcx
	movq	%rbx, %rdi
	movl	$.L.str103, %esi
	movq	%rax, %rdx
	xorb	%al, %al
	callq	fprintf
	addq	$16, %rsp
	popq	%rbx
	ret
.Ltmp61:
	.size	usage, .Ltmp61-usage
	.cfi_endproc

	.align	16, 0x90
	.type	redundant,@function
redundant:                              # @redundant
	.cfi_startproc
# BB#0:                                 # %entry
	pushq	%rax
.Ltmp63:
	.cfi_def_cfa_offset 16
	movq	%rdi, %rax
	movq	%rax, (%rsp)
	movq	progName(%rip), %rdx
	movq	stderr(%rip), %rdi
	movl	$.L.str102, %esi
	movq	%rax, %rcx
	xorb	%al, %al
	callq	fprintf
	popq	%rax
	ret
.Ltmp64:
	.size	redundant, .Ltmp64-redundant
	.cfi_endproc

	.align	16, 0x90
	.type	mySignalCatcher,@function
mySignalCatcher:                        # @mySignalCatcher
	.cfi_startproc
# BB#0:                                 # %entry
	pushq	%rax
.Ltmp66:
	.cfi_def_cfa_offset 16
	movl	%edi, 4(%rsp)
	movq	progName(%rip), %rdx
	movq	stderr(%rip), %rdi
	movl	$.L.str101, %esi
	xorb	%al, %al
	callq	fprintf
	movl	$1, %edi
	callq	cleanUpAndFail
	popq	%rax
	ret
.Ltmp67:
	.size	mySignalCatcher, .Ltmp67-mySignalCatcher
	.cfi_endproc

	.align	16, 0x90
	.type	compress,@function
compress:                               # @compress
	.cfi_startproc
# BB#0:                                 # %entry
	pushq	%r14
.Ltmp71:
	.cfi_def_cfa_offset 16
	pushq	%rbx
.Ltmp72:
	.cfi_def_cfa_offset 24
	subq	$184, %rsp
.Ltmp73:
	.cfi_def_cfa_offset 208
.Ltmp74:
	.cfi_offset %rbx, -24
.Ltmp75:
	.cfi_offset %r14, -16
	movq	%rdi, 176(%rsp)
	movb	$0, deleteOutputOnInterrupt(%rip)
	cmpq	$0, 176(%rsp)
	jne	.LBB19_3
# BB#1:                                 # %land.lhs.true
	cmpl	$1, srcMode(%rip)
	je	.LBB19_3
# BB#2:                                 # %if.then
	movl	$.L.str92, %edi
	callq	panic
.LBB19_3:                               # %if.end
	movl	srcMode(%rip), %eax
	cmpl	$3, %eax
	je	.LBB19_7
# BB#4:                                 # %if.end
	cmpl	$2, %eax
	jne	.LBB19_5
# BB#8:                                 # %sw.bb3
	movq	176(%rsp), %rsi
	movl	$inName, %edi
	jmp	.LBB19_9
.LBB19_7:                               # %sw.bb2
	movq	176(%rsp), %rsi
	movl	$inName, %edi
	callq	copyFileName
	movq	176(%rsp), %rsi
	movl	$outName, %edi
	callq	copyFileName
	movl	$outName, %edi
	movl	$.L.str9, %esi
	callq	strcat
	jmp	.LBB19_10
.LBB19_5:                               # %if.end
	cmpl	$1, %eax
	jne	.LBB19_10
# BB#6:                                 # %sw.bb
	movl	$inName, %edi
	movl	$.L.str37, %esi
.LBB19_9:                               # %sw.bb3
	callq	copyFileName
	movl	$outName, %edi
	movl	$.L.str71, %esi
	callq	copyFileName
.LBB19_10:                              # %sw.epilog
	cmpl	$1, srcMode(%rip)
	je	.LBB19_17
# BB#11:                                # %land.lhs.true5
	movl	$inName, %edi
	callq	containsDubiousChars
	testb	%al, %al
	je	.LBB19_17
# BB#12:                                # %if.then7
	cmpb	$0, noisy(%rip)
	je	.LBB19_16
# BB#13:                                # %if.then9
	movq	progName(%rip), %rdx
	movq	stderr(%rip), %rdi
	movl	$.L.str38, %esi
	jmp	.LBB19_14
.LBB19_17:                              # %if.end12
	cmpl	$1, srcMode(%rip)
	je	.LBB19_20
# BB#18:                                # %land.lhs.true15
	movl	$inName, %edi
	callq	fileExists
	testb	%al, %al
	je	.LBB19_19
.LBB19_20:                              # %if.end22
	movl	$0, 152(%rsp)
	jmp	.LBB19_21
	.align	16, 0x90
.LBB19_26:                              # %for.inc
                                        #   in Loop: Header=BB19_21 Depth=1
	incl	152(%rsp)
.LBB19_21:                              # %for.cond
                                        # =>This Inner Loop Header: Depth=1
	cmpl	$3, 152(%rsp)
	jg	.LBB19_27
# BB#22:                                # %for.body
                                        #   in Loop: Header=BB19_21 Depth=1
	movslq	152(%rsp), %rax
	movq	zSuffix(,%rax,8), %rsi
	movl	$inName, %edi
	callq	hasSuffix
	testb	%al, %al
	je	.LBB19_26
# BB#23:                                # %if.then27
	cmpb	$0, noisy(%rip)
	je	.LBB19_16
# BB#24:                                # %if.then29
	movslq	152(%rsp), %rax
	movq	zSuffix(,%rax,8), %r8
	movq	progName(%rip), %rdx
	movq	stderr(%rip), %rdi
	movl	$.L.str93, %esi
	movl	$inName, %ecx
	jmp	.LBB19_25
.LBB19_27:                              # %for.end
	cmpl	$3, srcMode(%rip)
	je	.LBB19_29
# BB#28:                                # %lor.lhs.false
	cmpl	$2, srcMode(%rip)
	jne	.LBB19_31
.LBB19_29:                              # %if.then39
	leaq	8(%rsp), %rsi
	movl	$inName, %edi
	callq	stat
	movl	$61440, %eax            # imm = 0xF000
	andl	32(%rsp), %eax
	cmpl	$16384, %eax            # imm = 0x4000
	jne	.LBB19_31
# BB#30:                                # %if.then43
	movq	progName(%rip), %rdx
	movq	stderr(%rip), %rdi
	movl	$.L.str40, %esi
.LBB19_14:                              # %if.then9
	movl	$inName, %ecx
.LBB19_15:                              # %if.then9
	xorb	%al, %al
	callq	fprintf
	jmp	.LBB19_16
.LBB19_31:                              # %if.end46
	cmpl	$3, srcMode(%rip)
	jne	.LBB19_36
# BB#32:                                # %land.lhs.true49
	cmpb	$0, forceOverwrite(%rip)
	jne	.LBB19_36
# BB#33:                                # %land.lhs.true51
	movl	$inName, %edi
	callq	notAStandardFile
	testb	%al, %al
	je	.LBB19_36
# BB#34:                                # %if.then55
	cmpb	$0, noisy(%rip)
	je	.LBB19_16
# BB#35:                                # %if.then57
	movq	progName(%rip), %rdx
	movq	stderr(%rip), %rdi
	movl	$.L.str74, %esi
	jmp	.LBB19_14
.LBB19_36:                              # %if.end60
	cmpl	$3, srcMode(%rip)
	jne	.LBB19_40
# BB#37:                                # %land.lhs.true63
	movl	$outName, %edi
	callq	fileExists
	testb	%al, %al
	je	.LBB19_40
# BB#38:                                # %if.then67
	cmpb	$0, forceOverwrite(%rip)
	je	.LBB19_72
# BB#39:                                # %if.then69
	movl	$outName, %edi
	callq	remove
.LBB19_40:                              # %if.end73
	cmpl	$3, srcMode(%rip)
	jne	.LBB19_46
# BB#41:                                # %land.lhs.true76
	cmpb	$0, forceOverwrite(%rip)
	jne	.LBB19_46
# BB#42:                                # %land.lhs.true78
	movl	$inName, %edi
	callq	countHardLinks
	movl	%eax, 156(%rsp)
	testl	%eax, %eax
	jle	.LBB19_46
# BB#43:                                # %if.then82
	movl	$.L.str78, %r9d
	movl	156(%rsp), %r8d
	movq	progName(%rip), %rdx
	movq	stderr(%rip), %rdi
	cmpl	$1, %r8d
	jg	.LBB19_45
# BB#44:                                # %select.mid
	movl	$.L.str413, %r9d
.LBB19_45:                              # %select.end
	movl	$.L.str77, %esi
	movl	$inName, %ecx
	xorb	%al, %al
	callq	fprintf
	jmp	.LBB19_16
.LBB19_46:                              # %if.end86
	cmpl	$3, srcMode(%rip)
	jne	.LBB19_48
# BB#47:                                # %if.then89
	movl	$inName, %edi
	callq	saveInputFileMetaInfo
.LBB19_48:                              # %if.end90
	movl	srcMode(%rip), %eax
	cmpl	$3, %eax
	je	.LBB19_58
# BB#49:                                # %if.end90
	cmpl	$2, %eax
	jne	.LBB19_50
# BB#53:                                # %sw.bb99
	movl	$inName, %edi
	movl	$.L.str43, %esi
	callq	fopen
	movq	%rax, 168(%rsp)
	movq	stdout(%rip), %rax
	movq	%rax, 160(%rsp)
	movq	stdout(%rip), %rdi
	callq	fileno
	movl	%eax, %edi
	callq	isatty
	testl	%eax, %eax
	je	.LBB19_57
# BB#54:                                # %if.then104
	movq	progName(%rip), %rdx
	movq	stderr(%rip), %rdi
	movl	$.L.str94, %esi
	xorb	%al, %al
	callq	fprintf
	movq	progName(%rip), %rdx
	movq	stderr(%rip), %rdi
	movl	$.L.str42, %esi
	movq	%rdx, %rcx
	xorb	%al, %al
	callq	fprintf
	jmp	.LBB19_55
.LBB19_58:                              # %sw.bb120
	movl	$inName, %edi
	movl	$.L.str43, %esi
	callq	fopen
	movq	%rax, 168(%rsp)
	movl	$outName, %edi
	movl	$.L.str79, %esi
	callq	fopen_output_safely
	movq	%rax, 160(%rsp)
	testq	%rax, %rax
	je	.LBB19_59
# BB#60:                                # %if.end134
	cmpq	$0, 168(%rsp)
	jne	.LBB19_64
# BB#61:                                # %if.then137
	movq	progName(%rip), %r14
	movq	stderr(%rip), %rbx
	callq	__errno_location
	movl	(%rax), %edi
	callq	strerror
	movq	%rbx, %rdi
	movl	$.L.str73, %esi
	movq	%r14, %rdx
	movl	$inName, %ecx
	movq	%rax, %r8
	xorb	%al, %al
	callq	fprintf
	cmpq	$0, 160(%rsp)
	je	.LBB19_16
# BB#62:                                # %if.then143
	movq	160(%rsp), %rdi
	callq	fclose
	jmp	.LBB19_16
.LBB19_50:                              # %if.end90
	cmpl	$1, %eax
	jne	.LBB19_63
# BB#51:                                # %sw.bb91
	movq	stdin(%rip), %rax
	movq	%rax, 168(%rsp)
	movq	stdout(%rip), %rax
	movq	%rax, 160(%rsp)
	movq	stdout(%rip), %rdi
	callq	fileno
	movl	%eax, %edi
	callq	isatty
	testl	%eax, %eax
	je	.LBB19_64
# BB#52:                                # %if.then95
	movq	progName(%rip), %rdx
	movq	stderr(%rip), %rdi
	movl	$.L.str94, %esi
	xorb	%al, %al
	callq	fprintf
	movq	progName(%rip), %rdx
	movq	stderr(%rip), %rdi
	movl	$.L.str42, %esi
	movq	%rdx, %rcx
	jmp	.LBB19_15
.LBB19_63:                              # %sw.default
	movl	$.L.str95, %edi
	callq	panic
	jmp	.LBB19_64
.LBB19_72:                              # %if.else
	movq	progName(%rip), %rdx
	movq	stderr(%rip), %rdi
	movl	$.L.str76, %esi
	movl	$outName, %ecx
	jmp	.LBB19_15
.LBB19_57:                              # %if.end112
	cmpq	$0, 168(%rsp)
	je	.LBB19_19
.LBB19_64:                              # %sw.epilog147
	cmpl	$0, verbosity(%rip)
	jle	.LBB19_66
# BB#65:                                # %if.then150
	movq	stderr(%rip), %rdi
	movl	$.L.str46, %esi
	movl	$inName, %edx
	xorb	%al, %al
	callq	fprintf
	movl	$inName, %edi
	callq	pad
	movq	stderr(%rip), %rdi
	callq	fflush
.LBB19_66:                              # %if.end153
	movq	160(%rsp), %rax
	movq	%rax, outputHandleJustInCase(%rip)
	movb	$1, deleteOutputOnInterrupt(%rip)
	movq	160(%rsp), %rsi
	movq	168(%rsp), %rdi
	callq	compressStream
	movq	$0, outputHandleJustInCase(%rip)
	cmpl	$3, srcMode(%rip)
	jne	.LBB19_70
# BB#67:                                # %if.then156
	movl	$outName, %edi
	callq	applySavedMetaInfoToOutputFile
	movb	$0, deleteOutputOnInterrupt(%rip)
	cmpb	$0, keepInputFiles(%rip)
	jne	.LBB19_70
# BB#68:                                # %if.then158
	movl	$inName, %edi
	callq	remove
	movl	%eax, 4(%rsp)
	testl	%eax, %eax
	je	.LBB19_70
# BB#69:                                # %if.then162
	callq	ioError
.LBB19_70:                              # %if.end165
	movb	$0, deleteOutputOnInterrupt(%rip)
	jmp	.LBB19_71
.LBB19_19:                              # %if.then18
	movq	progName(%rip), %r14
	movq	stderr(%rip), %rbx
	callq	__errno_location
	movl	(%rax), %edi
	callq	strerror
	movq	%rbx, %rdi
	movl	$.L.str73, %esi
	movq	%r14, %rdx
	movl	$inName, %ecx
	movq	%rax, %r8
.LBB19_25:                              # %if.then29
	xorb	%al, %al
	callq	fprintf
.LBB19_16:                              # %if.end11
	movl	$1, %edi
	callq	setExit
.LBB19_71:                              # %return
	addq	$184, %rsp
	popq	%rbx
	popq	%r14
	ret
.LBB19_59:                              # %if.then125
	movq	progName(%rip), %r14
	movq	stderr(%rip), %rbx
	callq	__errno_location
	movl	(%rax), %edi
	callq	strerror
	movq	%rbx, %rdi
	movl	$.L.str80, %esi
	movq	%r14, %rdx
	movl	$outName, %ecx
	movq	%rax, %r8
	xorb	%al, %al
	callq	fprintf
.LBB19_55:                              # %if.then104
	cmpq	$0, 168(%rsp)
	je	.LBB19_16
# BB#56:                                # %if.then109
	movq	168(%rsp), %rdi
	callq	fclose
	jmp	.LBB19_16
.Ltmp76:
	.size	compress, .Ltmp76-compress
	.cfi_endproc

	.align	16, 0x90
	.type	uncompress,@function
uncompress:                             # @uncompress
	.cfi_startproc
# BB#0:                                 # %entry
	pushq	%r14
.Ltmp80:
	.cfi_def_cfa_offset 16
	pushq	%rbx
.Ltmp81:
	.cfi_def_cfa_offset 24
	subq	$200, %rsp
.Ltmp82:
	.cfi_def_cfa_offset 224
.Ltmp83:
	.cfi_offset %rbx, -24
.Ltmp84:
	.cfi_offset %r14, -16
	movq	%rdi, 192(%rsp)
	movb	$0, deleteOutputOnInterrupt(%rip)
	cmpq	$0, 192(%rsp)
	jne	.LBB20_3
# BB#1:                                 # %land.lhs.true
	cmpl	$1, srcMode(%rip)
	je	.LBB20_3
# BB#2:                                 # %if.then
	movl	$.L.str70, %edi
	callq	panic
.LBB20_3:                               # %if.end
	movb	$0, 166(%rsp)
	movl	srcMode(%rip), %eax
	cmpl	$3, %eax
	je	.LBB20_7
# BB#4:                                 # %if.end
	cmpl	$2, %eax
	jne	.LBB20_5
# BB#12:                                # %sw.bb9
	movq	192(%rsp), %rsi
	movl	$inName, %edi
	jmp	.LBB20_13
.LBB20_7:                               # %sw.bb2
	movq	192(%rsp), %rsi
	movl	$inName, %edi
	callq	copyFileName
	movq	192(%rsp), %rsi
	movl	$outName, %edi
	callq	copyFileName
	movl	$0, 168(%rsp)
	jmp	.LBB20_8
	.align	16, 0x90
.LBB20_10:                              # %for.inc
                                        #   in Loop: Header=BB20_8 Depth=1
	incl	168(%rsp)
.LBB20_8:                               # %for.cond
                                        # =>This Inner Loop Header: Depth=1
	cmpl	$3, 168(%rsp)
	jg	.LBB20_11
# BB#9:                                 # %for.body
                                        #   in Loop: Header=BB20_8 Depth=1
	movslq	168(%rsp), %rax
	movq	unzSuffix(,%rax,8), %rdx
	movq	zSuffix(,%rax,8), %rsi
	movl	$outName, %edi
	callq	mapSuffix
	testb	%al, %al
	jne	.LBB20_14
	jmp	.LBB20_10
.LBB20_5:                               # %if.end
	cmpl	$1, %eax
	jne	.LBB20_14
# BB#6:                                 # %sw.bb
	movl	$inName, %edi
	movl	$.L.str37, %esi
.LBB20_13:                              # %sw.bb9
	callq	copyFileName
	movl	$outName, %edi
	movl	$.L.str71, %esi
	callq	copyFileName
	jmp	.LBB20_14
.LBB20_11:                              # %for.end
	movb	$1, 166(%rsp)
	movl	$outName, %edi
	movl	$.L.str72, %esi
	callq	strcat
.LBB20_14:                              # %zzz
	cmpl	$1, srcMode(%rip)
	je	.LBB20_21
# BB#15:                                # %land.lhs.true11
	movl	$inName, %edi
	callq	containsDubiousChars
	testb	%al, %al
	je	.LBB20_21
# BB#16:                                # %if.then14
	cmpb	$0, noisy(%rip)
	je	.LBB20_20
# BB#17:                                # %if.then16
	movq	progName(%rip), %rdx
	movq	stderr(%rip), %rdi
	movl	$.L.str38, %esi
	jmp	.LBB20_18
.LBB20_21:                              # %if.end19
	cmpl	$1, srcMode(%rip)
	je	.LBB20_24
# BB#22:                                # %land.lhs.true22
	movl	$inName, %edi
	callq	fileExists
	testb	%al, %al
	je	.LBB20_23
.LBB20_24:                              # %if.end29
	cmpl	$3, srcMode(%rip)
	je	.LBB20_26
# BB#25:                                # %lor.lhs.false
	cmpl	$2, srcMode(%rip)
	jne	.LBB20_28
.LBB20_26:                              # %if.then34
	leaq	16(%rsp), %rsi
	movl	$inName, %edi
	callq	stat
	movl	$61440, %eax            # imm = 0xF000
	andl	40(%rsp), %eax
	cmpl	$16384, %eax            # imm = 0x4000
	jne	.LBB20_28
# BB#27:                                # %if.then38
	movq	progName(%rip), %rdx
	movq	stderr(%rip), %rdi
	movl	$.L.str40, %esi
.LBB20_18:                              # %if.then16
	movl	$inName, %ecx
.LBB20_19:                              # %if.then16
	xorb	%al, %al
	callq	fprintf
	jmp	.LBB20_20
.LBB20_28:                              # %if.end41
	cmpl	$3, srcMode(%rip)
	jne	.LBB20_33
# BB#29:                                # %land.lhs.true44
	cmpb	$0, forceOverwrite(%rip)
	jne	.LBB20_33
# BB#30:                                # %land.lhs.true46
	movl	$inName, %edi
	callq	notAStandardFile
	testb	%al, %al
	je	.LBB20_33
# BB#31:                                # %if.then50
	cmpb	$0, noisy(%rip)
	je	.LBB20_20
# BB#32:                                # %if.then52
	movq	progName(%rip), %rdx
	movq	stderr(%rip), %rdi
	movl	$.L.str74, %esi
	jmp	.LBB20_18
.LBB20_33:                              # %if.end55
	cmpb	$0, 166(%rsp)
	je	.LBB20_36
# BB#34:                                # %if.then57
	cmpb	$0, noisy(%rip)
	je	.LBB20_36
# BB#35:                                # %if.then59
	movq	progName(%rip), %rdx
	movq	stderr(%rip), %rdi
	movl	$.L.str75, %esi
	movl	$inName, %ecx
	movl	$outName, %r8d
	xorb	%al, %al
	callq	fprintf
.LBB20_36:                              # %if.end62
	cmpl	$3, srcMode(%rip)
	jne	.LBB20_40
# BB#37:                                # %land.lhs.true65
	movl	$outName, %edi
	callq	fileExists
	testb	%al, %al
	je	.LBB20_40
# BB#38:                                # %if.then69
	cmpb	$0, forceOverwrite(%rip)
	je	.LBB20_81
# BB#39:                                # %if.then71
	movl	$outName, %edi
	callq	remove
.LBB20_40:                              # %if.end75
	cmpl	$3, srcMode(%rip)
	jne	.LBB20_46
# BB#41:                                # %land.lhs.true78
	cmpb	$0, forceOverwrite(%rip)
	jne	.LBB20_46
# BB#42:                                # %land.lhs.true80
	movl	$inName, %edi
	callq	countHardLinks
	movl	%eax, 172(%rsp)
	testl	%eax, %eax
	jle	.LBB20_46
# BB#43:                                # %if.then84
	movl	$.L.str78, %r9d
	movl	172(%rsp), %r8d
	movq	progName(%rip), %rdx
	movq	stderr(%rip), %rdi
	cmpl	$1, %r8d
	jg	.LBB20_45
# BB#44:                                # %select.mid
	movl	$.L.str413, %r9d
.LBB20_45:                              # %select.end
	movl	$.L.str77, %esi
	movl	$inName, %ecx
	xorb	%al, %al
	callq	fprintf
	jmp	.LBB20_20
.LBB20_46:                              # %if.end88
	cmpl	$3, srcMode(%rip)
	jne	.LBB20_48
# BB#47:                                # %if.then91
	movl	$inName, %edi
	callq	saveInputFileMetaInfo
.LBB20_48:                              # %if.end92
	movl	srcMode(%rip), %eax
	cmpl	$3, %eax
	je	.LBB20_57
# BB#49:                                # %if.end92
	cmpl	$2, %eax
	jne	.LBB20_50
# BB#53:                                # %sw.bb101
	movl	$inName, %edi
	movl	$.L.str43, %esi
	callq	fopen
	movq	%rax, 184(%rsp)
	movq	stdout(%rip), %rax
	movq	%rax, 176(%rsp)
	cmpq	$0, 184(%rsp)
	jne	.LBB20_63
# BB#54:                                # %if.then105
	movq	progName(%rip), %r14
	movq	stderr(%rip), %rbx
	callq	__errno_location
	movl	(%rax), %edi
	callq	strerror
	movq	%rbx, %rdi
	movl	$.L.str44, %esi
	movq	%r14, %rdx
	movl	$inName, %ecx
	jmp	.LBB20_55
.LBB20_23:                              # %if.then25
	movq	progName(%rip), %r14
	movq	stderr(%rip), %rbx
	callq	__errno_location
	movl	(%rax), %edi
	callq	strerror
	movq	%rbx, %rdi
	movl	$.L.str73, %esi
	movq	%r14, %rdx
	movl	$inName, %ecx
	movq	%rax, %r8
	xorb	%al, %al
	callq	fprintf
	jmp	.LBB20_20
.LBB20_57:                              # %sw.bb115
	movl	$inName, %edi
	movl	$.L.str43, %esi
	callq	fopen
	movq	%rax, 184(%rsp)
	movl	$outName, %edi
	movl	$.L.str79, %esi
	callq	fopen_output_safely
	movq	%rax, 176(%rsp)
	testq	%rax, %rax
	je	.LBB20_58
# BB#59:                                # %if.end129
	cmpq	$0, 184(%rsp)
	jne	.LBB20_63
# BB#60:                                # %if.then132
	movq	progName(%rip), %r14
	movq	stderr(%rip), %rbx
	callq	__errno_location
	movl	(%rax), %edi
	callq	strerror
	movq	%rbx, %rdi
	movl	$.L.str73, %esi
	movq	%r14, %rdx
	movl	$inName, %ecx
	movq	%rax, %r8
	xorb	%al, %al
	callq	fprintf
	cmpq	$0, 176(%rsp)
	je	.LBB20_20
# BB#61:                                # %if.then138
	movq	176(%rsp), %rdi
	callq	fclose
	jmp	.LBB20_20
.LBB20_50:                              # %if.end92
	cmpl	$1, %eax
	jne	.LBB20_62
# BB#51:                                # %sw.bb93
	movq	stdin(%rip), %rax
	movq	%rax, 184(%rsp)
	movq	stdout(%rip), %rax
	movq	%rax, 176(%rsp)
	movq	stdin(%rip), %rdi
	callq	fileno
	movl	%eax, %edi
	callq	isatty
	testl	%eax, %eax
	je	.LBB20_63
# BB#52:                                # %if.then97
	movq	progName(%rip), %rdx
	movq	stderr(%rip), %rdi
	movl	$.L.str41, %esi
	xorb	%al, %al
	callq	fprintf
	movq	progName(%rip), %rdx
	movq	stderr(%rip), %rdi
	movl	$.L.str42, %esi
	movq	%rdx, %rcx
	jmp	.LBB20_19
.LBB20_62:                              # %sw.default
	movl	$.L.str81, %edi
	callq	panic
.LBB20_63:                              # %sw.epilog142
	cmpl	$0, verbosity(%rip)
	jle	.LBB20_65
# BB#64:                                # %if.then145
	movq	stderr(%rip), %rdi
	movl	$.L.str46, %esi
	movl	$inName, %edx
	xorb	%al, %al
	callq	fprintf
	movl	$inName, %edi
	callq	pad
	movq	stderr(%rip), %rdi
	callq	fflush
.LBB20_65:                              # %if.end148
	movq	176(%rsp), %rax
	movq	%rax, outputHandleJustInCase(%rip)
	movb	$1, deleteOutputOnInterrupt(%rip)
	movq	176(%rsp), %rsi
	movq	184(%rsp), %rdi
	callq	uncompressStream
	movb	%al, 167(%rsp)
	movq	$0, outputHandleJustInCase(%rip)
	cmpb	$0, 167(%rsp)
	je	.LBB20_69
# BB#66:                                # %if.then151
	cmpl	$3, srcMode(%rip)
	jne	.LBB20_73
# BB#67:                                # %if.then154
	movl	$outName, %edi
	callq	applySavedMetaInfoToOutputFile
	movb	$0, deleteOutputOnInterrupt(%rip)
	cmpb	$0, keepInputFiles(%rip)
	jne	.LBB20_73
# BB#68:                                # %if.then156
	movl	$inName, %edi
	callq	remove
	movl	%eax, 12(%rsp)
	jmp	.LBB20_71
.LBB20_69:                              # %if.else164
	movb	$1, unzFailsExist(%rip)
	movb	$0, deleteOutputOnInterrupt(%rip)
	cmpl	$3, srcMode(%rip)
	jne	.LBB20_73
# BB#70:                                # %if.then167
	movl	$outName, %edi
	callq	remove
	movl	%eax, 8(%rsp)
.LBB20_71:                              # %if.then167
	testl	%eax, %eax
	je	.LBB20_73
# BB#72:                                # %if.then172
	callq	ioError
.LBB20_73:                              # %if.end175
	movb	$0, deleteOutputOnInterrupt(%rip)
	cmpb	$0, 167(%rsp)
	je	.LBB20_77
# BB#74:                                # %if.then177
	cmpl	$0, verbosity(%rip)
	jle	.LBB20_80
# BB#75:                                # %if.then180
	movq	stderr(%rip), %rdi
	movl	$.L.str82, %esi
	jmp	.LBB20_76
.LBB20_77:                              # %if.else183
	movl	$2, %edi
	callq	setExit
	cmpl	$0, verbosity(%rip)
	jle	.LBB20_79
# BB#78:                                # %if.then186
	movq	stderr(%rip), %rdi
	movl	$.L.str83, %esi
.LBB20_76:                              # %if.then180
	xorb	%al, %al
	callq	fprintf
	jmp	.LBB20_80
.LBB20_81:                              # %if.else
	movq	progName(%rip), %rdx
	movq	stderr(%rip), %rdi
	movl	$.L.str76, %esi
	movl	$outName, %ecx
	jmp	.LBB20_19
.LBB20_58:                              # %if.then120
	movq	progName(%rip), %r14
	movq	stderr(%rip), %rbx
	callq	__errno_location
	movl	(%rax), %edi
	callq	strerror
	movq	%rbx, %rdi
	movl	$.L.str80, %esi
	movq	%r14, %rdx
	movl	$outName, %ecx
.LBB20_55:                              # %if.then105
	movq	%rax, %r8
	xorb	%al, %al
	callq	fprintf
	cmpq	$0, 184(%rsp)
	je	.LBB20_20
# BB#56:                                # %if.then111
	movq	184(%rsp), %rdi
	callq	fclose
.LBB20_20:                              # %if.end18
	movl	$1, %edi
	callq	setExit
.LBB20_80:                              # %if.end191
	addq	$200, %rsp
	popq	%rbx
	popq	%r14
	ret
.LBB20_79:                              # %if.else188
	movq	progName(%rip), %rdx
	movq	stderr(%rip), %rdi
	movl	$.L.str84, %esi
	movl	$inName, %ecx
	xorb	%al, %al
	callq	fprintf
	jmp	.LBB20_80
.Ltmp85:
	.size	uncompress, .Ltmp85-uncompress
	.cfi_endproc

	.align	16, 0x90
	.type	setExit,@function
setExit:                                # @setExit
	.cfi_startproc
# BB#0:                                 # %entry
	movl	%edi, -4(%rsp)
	cmpl	exitValue(%rip), %edi
	jle	.LBB21_2
# BB#1:                                 # %if.then
	movl	-4(%rsp), %eax
	movl	%eax, exitValue(%rip)
.LBB21_2:                               # %if.end
	ret
.Ltmp86:
	.size	setExit, .Ltmp86-setExit
	.cfi_endproc

	.align	16, 0x90
	.type	testf,@function
testf:                                  # @testf
	.cfi_startproc
# BB#0:                                 # %entry
	pushq	%r14
.Ltmp90:
	.cfi_def_cfa_offset 16
	pushq	%rbx
.Ltmp91:
	.cfi_def_cfa_offset 24
	subq	$168, %rsp
.Ltmp92:
	.cfi_def_cfa_offset 192
.Ltmp93:
	.cfi_offset %rbx, -24
.Ltmp94:
	.cfi_offset %r14, -16
	movq	%rdi, 160(%rsp)
	movb	$0, deleteOutputOnInterrupt(%rip)
	cmpq	$0, 160(%rsp)
	jne	.LBB22_3
# BB#1:                                 # %land.lhs.true
	cmpl	$1, srcMode(%rip)
	je	.LBB22_3
# BB#2:                                 # %if.then
	movl	$.L.str36, %edi
	callq	panic
.LBB22_3:                               # %if.end
	movl	$outName, %edi
	movl	$.L.str615, %esi
	callq	copyFileName
	movl	srcMode(%rip), %eax
	cmpl	$3, %eax
	je	.LBB22_7
# BB#4:                                 # %if.end
	cmpl	$2, %eax
	jne	.LBB22_5
.LBB22_7:                               # %sw.bb3
	movq	160(%rsp), %rsi
	movl	$inName, %edi
	jmp	.LBB22_8
.LBB22_5:                               # %if.end
	cmpl	$1, %eax
	jne	.LBB22_9
# BB#6:                                 # %sw.bb
	movl	$inName, %edi
	movl	$.L.str37, %esi
.LBB22_8:                               # %sw.bb3
	callq	copyFileName
.LBB22_9:                               # %sw.epilog
	cmpl	$1, srcMode(%rip)
	je	.LBB22_16
# BB#10:                                # %land.lhs.true5
	movl	$inName, %edi
	callq	containsDubiousChars
	testb	%al, %al
	je	.LBB22_16
# BB#11:                                # %if.then6
	cmpb	$0, noisy(%rip)
	je	.LBB22_15
# BB#12:                                # %if.then8
	movq	progName(%rip), %rdx
	movq	stderr(%rip), %rdi
	movl	$.L.str38, %esi
	jmp	.LBB22_13
.LBB22_16:                              # %if.end11
	cmpl	$1, srcMode(%rip)
	je	.LBB22_20
# BB#17:                                # %land.lhs.true14
	movl	$inName, %edi
	callq	fileExists
	testb	%al, %al
	je	.LBB22_18
.LBB22_20:                              # %if.end21
	cmpl	$1, srcMode(%rip)
	je	.LBB22_23
# BB#21:                                # %if.then24
	leaq	(%rsp), %rsi
	movl	$inName, %edi
	callq	stat
	movl	$61440, %eax            # imm = 0xF000
	andl	24(%rsp), %eax
	cmpl	$16384, %eax            # imm = 0x4000
	jne	.LBB22_23
# BB#22:                                # %if.then28
	movq	progName(%rip), %rdx
	movq	stderr(%rip), %rdi
	movl	$.L.str40, %esi
.LBB22_13:                              # %if.then8
	movl	$inName, %ecx
.LBB22_14:                              # %if.then8
	xorb	%al, %al
	callq	fprintf
	jmp	.LBB22_15
.LBB22_23:                              # %if.end31
	movl	srcMode(%rip), %eax
	leal	-2(%rax), %ecx
	cmpl	$2, %ecx
	jae	.LBB22_24
# BB#28:                                # %sw.bb40
	movl	$inName, %edi
	movl	$.L.str43, %esi
	callq	fopen
	movq	%rax, 152(%rsp)
	testq	%rax, %rax
	jne	.LBB22_31
# BB#29:                                # %if.then44
	movq	progName(%rip), %r14
	movq	stderr(%rip), %rbx
	callq	__errno_location
	movl	(%rax), %edi
	callq	strerror
	movq	%rbx, %rdi
	movl	$.L.str44, %esi
	jmp	.LBB22_19
.LBB22_24:                              # %if.end31
	cmpl	$1, %eax
	jne	.LBB22_30
# BB#25:                                # %sw.bb32
	movq	stdin(%rip), %rdi
	callq	fileno
	movl	%eax, %edi
	callq	isatty
	testl	%eax, %eax
	je	.LBB22_27
# BB#26:                                # %if.then36
	movq	progName(%rip), %rdx
	movq	stderr(%rip), %rdi
	movl	$.L.str41, %esi
	xorb	%al, %al
	callq	fprintf
	movq	progName(%rip), %rdx
	movq	stderr(%rip), %rdi
	movl	$.L.str42, %esi
	movq	%rdx, %rcx
	jmp	.LBB22_14
.LBB22_18:                              # %if.then17
	movq	progName(%rip), %r14
	movq	stderr(%rip), %rbx
	callq	__errno_location
	movl	(%rax), %edi
	callq	strerror
	movq	%rbx, %rdi
	movl	$.L.str39, %esi
.LBB22_19:                              # %if.then17
	movq	%r14, %rdx
	movl	$inName, %ecx
	movq	%rax, %r8
	xorb	%al, %al
	callq	fprintf
.LBB22_15:                              # %if.end10
	movl	$1, %edi
	callq	setExit
	jmp	.LBB22_38
.LBB22_30:                              # %sw.default
	movl	$.L.str45, %edi
	callq	panic
	jmp	.LBB22_31
.LBB22_27:                              # %if.end39
	movq	stdin(%rip), %rax
	movq	%rax, 152(%rsp)
.LBB22_31:                              # %sw.epilog49
	cmpl	$0, verbosity(%rip)
	jle	.LBB22_33
# BB#32:                                # %if.then52
	movq	stderr(%rip), %rdi
	movl	$.L.str46, %esi
	movl	$inName, %edx
	xorb	%al, %al
	callq	fprintf
	movl	$inName, %edi
	callq	pad
	movq	stderr(%rip), %rdi
	callq	fflush
.LBB22_33:                              # %if.end55
	movq	$0, outputHandleJustInCase(%rip)
	movq	152(%rsp), %rdi
	callq	testStream
	movb	%al, 151(%rsp)
	movzbl	151(%rsp), %eax
	testl	%eax, %eax
	je	.LBB22_36
# BB#34:                                # %land.lhs.true59
	cmpl	$0, verbosity(%rip)
	jle	.LBB22_36
# BB#35:                                # %if.then62
	movq	stderr(%rip), %rdi
	movl	$.L.str47, %esi
	xorb	%al, %al
	callq	fprintf
.LBB22_36:                              # %if.end64
	cmpb	$0, 151(%rsp)
	jne	.LBB22_38
# BB#37:                                # %if.then66
	movb	$1, testFailsExist(%rip)
.LBB22_38:                              # %if.end67
	addq	$168, %rsp
	popq	%rbx
	popq	%r14
	ret
.Ltmp95:
	.size	testf, .Ltmp95-testf
	.cfi_endproc

	.align	16, 0x90
	.type	panic,@function
panic:                                  # @panic
	.cfi_startproc
# BB#0:                                 # %entry
	pushq	%rax
.Ltmp97:
	.cfi_def_cfa_offset 16
	movq	%rdi, %rax
	movq	%rax, (%rsp)
	movq	progName(%rip), %rdx
	movq	stderr(%rip), %rdi
	movl	$.L.str69, %esi
	movq	%rax, %rcx
	xorb	%al, %al
	callq	fprintf
	callq	showFileNames
	movl	$3, %edi
	callq	cleanUpAndFail
	popq	%rax
	ret
.Ltmp98:
	.size	panic, .Ltmp98-panic
	.cfi_endproc

	.align	16, 0x90
	.type	containsDubiousChars,@function
containsDubiousChars:                   # @containsDubiousChars
	.cfi_startproc
# BB#0:                                 # %entry
	movq	%rdi, -8(%rsp)
	xorl	%eax, %eax
	ret
.Ltmp99:
	.size	containsDubiousChars, .Ltmp99-containsDubiousChars
	.cfi_endproc

	.align	16, 0x90
	.type	fileExists,@function
fileExists:                             # @fileExists
	.cfi_startproc
# BB#0:                                 # %entry
	subq	$24, %rsp
.Ltmp101:
	.cfi_def_cfa_offset 32
	movq	%rdi, 16(%rsp)
	movl	$.L.str43, %esi
	callq	fopen
	movq	%rax, 8(%rsp)
	testq	%rax, %rax
	setne	7(%rsp)
	cmpq	$0, 8(%rsp)
	je	.LBB25_2
# BB#1:                                 # %if.then
	movq	8(%rsp), %rdi
	callq	fclose
.LBB25_2:                               # %if.end
	movzbl	7(%rsp), %eax
	addq	$24, %rsp
	ret
.Ltmp102:
	.size	fileExists, .Ltmp102-fileExists
	.cfi_endproc

	.align	16, 0x90
	.type	pad,@function
pad:                                    # @pad
	.cfi_startproc
# BB#0:                                 # %entry
	pushq	%rbp
.Ltmp106:
	.cfi_def_cfa_offset 16
	pushq	%rbx
.Ltmp107:
	.cfi_def_cfa_offset 24
	subq	$24, %rsp
.Ltmp108:
	.cfi_def_cfa_offset 48
.Ltmp109:
	.cfi_offset %rbx, -24
.Ltmp110:
	.cfi_offset %rbp, -16
	movq	%rdi, 16(%rsp)
	callq	strlen
	cmpl	longestFileName(%rip), %eax
	jge	.LBB26_4
# BB#1:                                 # %if.end
	movl	$1, 12(%rsp)
	jmp	.LBB26_2
	.align	16, 0x90
.LBB26_3:                               # %for.inc
                                        #   in Loop: Header=BB26_2 Depth=1
	movq	stderr(%rip), %rdi
	movl	$.L.str68, %esi
	xorb	%al, %al
	callq	fprintf
	incl	12(%rsp)
.LBB26_2:                               # %for.cond
                                        # =>This Inner Loop Header: Depth=1
	movl	12(%rsp), %ebx
	movl	longestFileName(%rip), %ebp
	movq	16(%rsp), %rdi
	callq	strlen
	subl	%eax, %ebp
	cmpl	%ebp, %ebx
	jle	.LBB26_3
.LBB26_4:                               # %for.end
	addq	$24, %rsp
	popq	%rbx
	popq	%rbp
	ret
.Ltmp111:
	.size	pad, .Ltmp111-pad
	.cfi_endproc

	.align	16, 0x90
	.type	testStream,@function
testStream:                             # @testStream
	.cfi_startproc
# BB#0:                                 # %entry
	pushq	%r15
.Ltmp118:
	.cfi_def_cfa_offset 16
	pushq	%r14
.Ltmp119:
	.cfi_def_cfa_offset 24
	pushq	%r13
.Ltmp120:
	.cfi_def_cfa_offset 32
	pushq	%r12
.Ltmp121:
	.cfi_def_cfa_offset 40
	pushq	%rbx
.Ltmp122:
	.cfi_def_cfa_offset 48
	subq	$10096, %rsp            # imm = 0x2770
.Ltmp123:
	.cfi_def_cfa_offset 10144
.Ltmp124:
	.cfi_offset %rbx, -48
.Ltmp125:
	.cfi_offset %r12, -40
.Ltmp126:
	.cfi_offset %r13, -32
.Ltmp127:
	.cfi_offset %r14, -24
.Ltmp128:
	.cfi_offset %r15, -16
	movq	%rdi, 10080(%rsp)
	movq	$0, 10072(%rsp)
	movl	$0, 28(%rsp)
	movl	$0, 10052(%rsp)
	movq	10080(%rsp), %rdi
	callq	ferror
	testl	%eax, %eax
	jne	.LBB27_27
# BB#1:
	leaq	10068(%rsp), %rbx
	leaq	32(%rsp), %r14
	leaq	5040(%rsp), %r15
	leaq	16(%rsp), %r12
	leaq	28(%rsp), %r13
.LBB27_2:                               # %while.body
                                        # =>This Loop Header: Depth=1
                                        #     Child Loop BB27_5 Depth 2
                                        #     Child Loop BB27_15 Depth 2
	movl	28(%rsp), %r9d
	movzbl	smallMode(%rip), %ecx
	movl	verbosity(%rip), %edx
	movq	10080(%rsp), %rsi
	movq	%rbx, %rdi
	movq	%r14, %r8
	callq	BZ2_bzReadOpen
	movq	%rax, 10072(%rsp)
	testq	%rax, %rax
	je	.LBB27_7
# BB#3:                                 # %lor.lhs.false
                                        #   in Loop: Header=BB27_2 Depth=1
	cmpl	$0, 10068(%rsp)
	jne	.LBB27_7
# BB#4:                                 # %if.end6
                                        #   in Loop: Header=BB27_2 Depth=1
	incl	10052(%rsp)
	.align	16, 0x90
.LBB27_5:                               # %while.cond7
                                        #   Parent Loop BB27_2 Depth=1
                                        # =>  This Inner Loop Header: Depth=2
	cmpl	$0, 10068(%rsp)
	jne	.LBB27_11
# BB#6:                                 # %while.body10
                                        #   in Loop: Header=BB27_5 Depth=2
	movq	10072(%rsp), %rsi
	movq	%rbx, %rdi
	movq	%r15, %rdx
	movl	$5000, %ecx             # imm = 0x1388
	callq	BZ2_bzRead
	movl	%eax, 10056(%rsp)
	cmpl	$-5, 10068(%rsp)
	jne	.LBB27_5
	jmp	.LBB27_7
	.align	16, 0x90
.LBB27_11:                              # %while.end
                                        #   in Loop: Header=BB27_2 Depth=1
	cmpl	$4, 10068(%rsp)
	jne	.LBB27_7
# BB#12:                                # %if.end20
                                        #   in Loop: Header=BB27_2 Depth=1
	movq	10072(%rsp), %rsi
	movq	%rbx, %rdi
	movq	%r12, %rdx
	movq	%r13, %rcx
	callq	BZ2_bzReadGetUnused
	cmpl	$0, 10068(%rsp)
	je	.LBB27_14
# BB#13:                                # %if.then23
                                        #   in Loop: Header=BB27_2 Depth=1
	movl	$.L.str48, %edi
	callq	panic
.LBB27_14:                              # %if.end24
                                        #   in Loop: Header=BB27_2 Depth=1
	movq	16(%rsp), %rax
	movq	%rax, 8(%rsp)
	movl	$0, 10048(%rsp)
	jmp	.LBB27_15
	.align	16, 0x90
.LBB27_16:                              # %for.inc
                                        #   in Loop: Header=BB27_15 Depth=2
	movslq	10048(%rsp), %rax
	movq	8(%rsp), %rcx
	movb	(%rcx,%rax), %cl
	movb	%cl, 32(%rsp,%rax)
	incl	10048(%rsp)
.LBB27_15:                              # %for.cond
                                        #   Parent Loop BB27_2 Depth=1
                                        # =>  This Inner Loop Header: Depth=2
	movl	10048(%rsp), %eax
	cmpl	28(%rsp), %eax
	jl	.LBB27_16
# BB#17:                                # %for.end
                                        #   in Loop: Header=BB27_2 Depth=1
	movq	10072(%rsp), %rsi
	movq	%rbx, %rdi
	callq	BZ2_bzReadClose
	cmpl	$0, 10068(%rsp)
	je	.LBB27_19
# BB#18:                                # %if.then32
                                        #   in Loop: Header=BB27_2 Depth=1
	movl	$.L.str48, %edi
	callq	panic
.LBB27_19:                              # %if.end33
                                        #   in Loop: Header=BB27_2 Depth=1
	cmpl	$0, 28(%rsp)
	jne	.LBB27_2
# BB#20:                                # %land.lhs.true
                                        #   in Loop: Header=BB27_2 Depth=1
	movq	10080(%rsp), %rdi
	callq	myfeof
	testb	%al, %al
	je	.LBB27_2
# BB#21:                                # %while.end41
	movq	10080(%rsp), %rdi
	callq	ferror
	testl	%eax, %eax
	jne	.LBB27_27
# BB#22:                                # %if.end45
	movq	10080(%rsp), %rdi
	callq	fclose
	movl	%eax, 10060(%rsp)
	cmpl	$-1, %eax
	je	.LBB27_27
# BB#23:                                # %if.end50
	cmpl	$2, verbosity(%rip)
	jl	.LBB27_40
# BB#24:                                # %if.then53
	movq	stderr(%rip), %rdi
	movl	$.L.str49, %esi
	jmp	.LBB27_25
.LBB27_7:                               # %errhandler
	movq	10072(%rsp), %rsi
	leaq	10064(%rsp), %rdi
	callq	BZ2_bzReadClose
	cmpl	$0, verbosity(%rip)
	jne	.LBB27_9
# BB#8:                                 # %if.then58
	movq	progName(%rip), %rdx
	movq	stderr(%rip), %rdi
	movl	$.L.str50, %esi
	movl	$inName, %ecx
	xorb	%al, %al
	callq	fprintf
.LBB27_9:                               # %if.end60
	movl	10068(%rsp), %eax
	addl	$9, %eax
	cmpl	$6, %eax
	ja	.LBB27_38
# BB#10:                                # %if.end60
	jmpq	*.LJTI27_0(,%rax,8)
.LBB27_26:                              # %sw.bb
	callq	configError
	jmp	.LBB27_39
.LBB27_27:                              # %errhandler_io
	callq	ioError
	jmp	.LBB27_39
.LBB27_38:                              # %sw.default
	movl	$.L.str55, %edi
	callq	panic
.LBB27_39:                              # %sw.epilog
	movl	$.L.str56, %edi
	callq	panic
.LBB27_40:                              # %sw.epilog
	movb	$1, 10095(%rsp)
.LBB27_41:                              # %return
	movzbl	10095(%rsp), %eax
	addq	$10096, %rsp            # imm = 0x2770
	popq	%rbx
	popq	%r12
	popq	%r13
	popq	%r14
	popq	%r15
	ret
.LBB27_32:                              # %sw.bb67
	movq	10080(%rsp), %rax
	cmpq	stdin(%rip), %rax
	je	.LBB27_34
# BB#33:                                # %if.then70
	movq	10080(%rsp), %rdi
	callq	fclose
.LBB27_34:                              # %if.end72
	cmpl	$1, 10052(%rsp)
	jne	.LBB27_36
# BB#35:                                # %if.then75
	movq	stderr(%rip), %rdi
	movl	$.L.str53, %esi
	jmp	.LBB27_29
.LBB27_28:                              # %sw.bb62
	movq	stderr(%rip), %rdi
	movl	$.L.str51, %esi
	jmp	.LBB27_29
.LBB27_30:                              # %sw.bb64
	callq	outOfMemory
.LBB27_31:                              # %sw.bb65
	movq	stderr(%rip), %rdi
	movl	$.L.str52, %esi
.LBB27_29:                              # %sw.bb62
	xorb	%al, %al
	callq	fprintf
	movb	$0, 10095(%rsp)
	jmp	.LBB27_41
.LBB27_36:                              # %if.else
	cmpb	$0, noisy(%rip)
	je	.LBB27_40
# BB#37:                                # %if.then78
	movq	stderr(%rip), %rdi
	movl	$.L.str54, %esi
.LBB27_25:                              # %if.then53
	xorb	%al, %al
	callq	fprintf
	jmp	.LBB27_40
.Ltmp129:
	.size	testStream, .Ltmp129-testStream
	.cfi_endproc
	.section	.rodata,"a",@progbits
	.align	8
.LJTI27_0:
	.quad	.LBB27_26
	.quad	.LBB27_38
	.quad	.LBB27_31
	.quad	.LBB27_27
	.quad	.LBB27_32
	.quad	.LBB27_28
	.quad	.LBB27_30

	.text
	.align	16, 0x90
	.type	myfeof,@function
myfeof:                                 # @myfeof
	.cfi_startproc
# BB#0:                                 # %entry
	subq	$24, %rsp
.Ltmp131:
	.cfi_def_cfa_offset 32
	movq	%rdi, 8(%rsp)
	callq	fgetc
	movl	%eax, 4(%rsp)
	cmpl	$-1, %eax
	jne	.LBB28_2
# BB#1:                                 # %if.then
	movb	$1, 23(%rsp)
	jmp	.LBB28_3
.LBB28_2:                               # %if.end
	movq	8(%rsp), %rsi
	movl	4(%rsp), %edi
	callq	ungetc
	movb	$0, 23(%rsp)
.LBB28_3:                               # %return
	movzbl	23(%rsp), %eax
	addq	$24, %rsp
	ret
.Ltmp132:
	.size	myfeof, .Ltmp132-myfeof
	.cfi_endproc

	.align	16, 0x90
	.type	configError,@function
configError:                            # @configError
	.cfi_startproc
# BB#0:                                 # %entry
	pushq	%rax
.Ltmp134:
	.cfi_def_cfa_offset 16
	movq	stderr(%rip), %rdi
	movl	$.L.str67, %esi
	xorb	%al, %al
	callq	fprintf
	movl	$3, %edi
	callq	setExit
	movl	exitValue(%rip), %edi
	callq	exit
	popq	%rax
	ret
.Ltmp135:
	.size	configError, .Ltmp135-configError
	.cfi_endproc

	.align	16, 0x90
	.type	ioError,@function
ioError:                                # @ioError
	.cfi_startproc
# BB#0:                                 # %entry
	pushq	%rax
.Ltmp137:
	.cfi_def_cfa_offset 16
	movq	progName(%rip), %rdx
	movq	stderr(%rip), %rdi
	movl	$.L.str66, %esi
	xorb	%al, %al
	callq	fprintf
	movq	progName(%rip), %rdi
	callq	perror
	callq	showFileNames
	movl	$1, %edi
	callq	cleanUpAndFail
	popq	%rax
	ret
.Ltmp138:
	.size	ioError, .Ltmp138-ioError
	.cfi_endproc

	.align	16, 0x90
	.type	outOfMemory,@function
outOfMemory:                            # @outOfMemory
	.cfi_startproc
# BB#0:                                 # %entry
	pushq	%rax
.Ltmp140:
	.cfi_def_cfa_offset 16
	movq	progName(%rip), %rdx
	movq	stderr(%rip), %rdi
	movl	$.L.str57, %esi
	xorb	%al, %al
	callq	fprintf
	callq	showFileNames
	movl	$1, %edi
	callq	cleanUpAndFail
	popq	%rax
	ret
.Ltmp141:
	.size	outOfMemory, .Ltmp141-outOfMemory
	.cfi_endproc

	.align	16, 0x90
	.type	showFileNames,@function
showFileNames:                          # @showFileNames
	.cfi_startproc
# BB#0:                                 # %entry
	pushq	%rax
.Ltmp143:
	.cfi_def_cfa_offset 16
	cmpb	$0, noisy(%rip)
	je	.LBB32_2
# BB#1:                                 # %if.then
	movq	stderr(%rip), %rdi
	movl	$.L.str65, %esi
	movl	$inName, %edx
	movl	$outName, %ecx
	xorb	%al, %al
	callq	fprintf
.LBB32_2:                               # %if.end
	popq	%rax
	ret
.Ltmp144:
	.size	showFileNames, .Ltmp144-showFileNames
	.cfi_endproc

	.align	16, 0x90
	.type	cleanUpAndFail,@function
cleanUpAndFail:                         # @cleanUpAndFail
	.cfi_startproc
# BB#0:                                 # %entry
	subq	$152, %rsp
.Ltmp146:
	.cfi_def_cfa_offset 160
	movl	%edi, 148(%rsp)
	cmpl	$3, srcMode(%rip)
	jne	.LBB33_12
# BB#1:                                 # %land.lhs.true
	cmpl	$3, opMode(%rip)
	je	.LBB33_12
# BB#2:                                 # %land.lhs.true2
	movzbl	deleteOutputOnInterrupt(%rip), %eax
	testl	%eax, %eax
	je	.LBB33_12
# BB#3:                                 # %if.then
	leaq	(%rsp), %rsi
	movl	$inName, %edi
	callq	stat
	movl	%eax, 144(%rsp)
	testl	%eax, %eax
	je	.LBB33_4
# BB#10:                                # %if.else
	movq	progName(%rip), %rdx
	movq	stderr(%rip), %rdi
	movl	$.L.str60, %esi
	xorb	%al, %al
	callq	fprintf
	movq	progName(%rip), %rdx
	movq	stderr(%rip), %rdi
	movl	$.L.str61, %esi
	xorb	%al, %al
	callq	fprintf
	movq	progName(%rip), %rdx
	movq	stderr(%rip), %rdi
	movl	$.L.str62, %esi
	movl	$outName, %ecx
	xorb	%al, %al
	callq	fprintf
	movq	progName(%rip), %rdx
	movq	stderr(%rip), %rdi
	movl	$.L.str63, %esi
	jmp	.LBB33_11
.LBB33_4:                               # %if.then5
	cmpb	$0, noisy(%rip)
	je	.LBB33_6
# BB#5:                                 # %if.then7
	movq	progName(%rip), %rdx
	movq	stderr(%rip), %rdi
	movl	$.L.str58, %esi
	movl	$outName, %ecx
	xorb	%al, %al
	callq	fprintf
.LBB33_6:                               # %if.end
	cmpq	$0, outputHandleJustInCase(%rip)
	je	.LBB33_8
# BB#7:                                 # %if.then11
	movq	outputHandleJustInCase(%rip), %rdi
	callq	fclose
.LBB33_8:                               # %if.end13
	movl	$outName, %edi
	callq	remove
	movl	%eax, 144(%rsp)
	testl	%eax, %eax
	je	.LBB33_12
# BB#9:                                 # %if.then17
	movq	progName(%rip), %rdx
	movq	stderr(%rip), %rdi
	movl	$.L.str59, %esi
.LBB33_11:                              # %if.else
	xorb	%al, %al
	callq	fprintf
.LBB33_12:                              # %if.end25
	movzbl	noisy(%rip), %eax
	testl	%eax, %eax
	je	.LBB33_16
# BB#13:                                # %land.lhs.true28
	cmpl	$0, numFileNames(%rip)
	jle	.LBB33_16
# BB#14:                                # %land.lhs.true31
	movl	numFilesProcessed(%rip), %eax
	cmpl	numFileNames(%rip), %eax
	jge	.LBB33_16
# BB#15:                                # %if.then34
	movl	numFileNames(%rip), %r8d
	movl	%r8d, %r9d
	subl	numFilesProcessed(%rip), %r9d
	movq	progName(%rip), %rdx
	movq	stderr(%rip), %rdi
	movl	$.L.str64, %esi
	movq	%rdx, %rcx
	xorb	%al, %al
	callq	fprintf
.LBB33_16:                              # %if.end36
	movl	148(%rsp), %edi
	callq	setExit
	movl	exitValue(%rip), %edi
	callq	exit
	addq	$152, %rsp
	ret
.Ltmp147:
	.size	cleanUpAndFail, .Ltmp147-cleanUpAndFail
	.cfi_endproc

	.align	16, 0x90
	.type	mapSuffix,@function
mapSuffix:                              # @mapSuffix
	.cfi_startproc
# BB#0:                                 # %entry
	pushq	%rbx
.Ltmp150:
	.cfi_def_cfa_offset 16
	subq	$32, %rsp
.Ltmp151:
	.cfi_def_cfa_offset 48
.Ltmp152:
	.cfi_offset %rbx, -16
	movq	%rdi, 16(%rsp)
	movq	%rsi, 8(%rsp)
	movq	%rdx, (%rsp)
	movq	8(%rsp), %rsi
	movq	16(%rsp), %rdi
	callq	hasSuffix
	testb	%al, %al
	je	.LBB34_1
# BB#2:                                 # %if.end
	movq	16(%rsp), %rdi
	callq	strlen
	movq	%rax, %rbx
	movq	8(%rsp), %rdi
	callq	strlen
	subq	%rax, %rbx
	movq	16(%rsp), %rax
	movb	$0, (%rax,%rbx)
	movq	(%rsp), %rsi
	movq	16(%rsp), %rdi
	callq	strcat
	movb	$1, 31(%rsp)
	jmp	.LBB34_3
.LBB34_1:                               # %if.then
	movb	$0, 31(%rsp)
.LBB34_3:                               # %return
	movzbl	31(%rsp), %eax
	addq	$32, %rsp
	popq	%rbx
	ret
.Ltmp153:
	.size	mapSuffix, .Ltmp153-mapSuffix
	.cfi_endproc

	.align	16, 0x90
	.type	notAStandardFile,@function
notAStandardFile:                       # @notAStandardFile
	.cfi_startproc
# BB#0:                                 # %entry
	subq	$168, %rsp
.Ltmp155:
	.cfi_def_cfa_offset 176
	movq	%rdi, 152(%rsp)
	leaq	(%rsp), %rsi
	callq	lstat
	movl	%eax, 148(%rsp)
	testl	%eax, %eax
	jne	.LBB35_3
# BB#1:                                 # %if.end
	movl	$61440, %eax            # imm = 0xF000
	andl	24(%rsp), %eax
	cmpl	$32768, %eax            # imm = 0x8000
	jne	.LBB35_3
# BB#2:                                 # %if.then2
	movb	$0, 167(%rsp)
	jmp	.LBB35_4
.LBB35_3:                               # %if.end3
	movb	$1, 167(%rsp)
.LBB35_4:                               # %return
	movzbl	167(%rsp), %eax
	addq	$168, %rsp
	ret
.Ltmp156:
	.size	notAStandardFile, .Ltmp156-notAStandardFile
	.cfi_endproc

	.align	16, 0x90
	.type	countHardLinks,@function
countHardLinks:                         # @countHardLinks
	.cfi_startproc
# BB#0:                                 # %entry
	subq	$168, %rsp
.Ltmp158:
	.cfi_def_cfa_offset 176
	movq	%rdi, 152(%rsp)
	leaq	(%rsp), %rsi
	callq	lstat
	movl	%eax, 148(%rsp)
	testl	%eax, %eax
	je	.LBB36_2
# BB#1:                                 # %if.then
	movl	$0, 164(%rsp)
	jmp	.LBB36_3
.LBB36_2:                               # %if.end
	movl	16(%rsp), %eax
	decl	%eax
	movl	%eax, 164(%rsp)
.LBB36_3:                               # %return
	movl	164(%rsp), %eax
	addq	$168, %rsp
	ret
.Ltmp159:
	.size	countHardLinks, .Ltmp159-countHardLinks
	.cfi_endproc

	.align	16, 0x90
	.type	saveInputFileMetaInfo,@function
saveInputFileMetaInfo:                  # @saveInputFileMetaInfo
	.cfi_startproc
# BB#0:                                 # %entry
	subq	$24, %rsp
.Ltmp161:
	.cfi_def_cfa_offset 32
	movq	%rdi, 16(%rsp)
	movl	$fileMetaInfo, %esi
	callq	stat
	movl	%eax, 12(%rsp)
	testl	%eax, %eax
	je	.LBB37_2
# BB#1:                                 # %if.then
	callq	ioError
.LBB37_2:                               # %if.end
	addq	$24, %rsp
	ret
.Ltmp162:
	.size	saveInputFileMetaInfo, .Ltmp162-saveInputFileMetaInfo
	.cfi_endproc

	.align	16, 0x90
	.type	uncompressStream,@function
uncompressStream:                       # @uncompressStream
	.cfi_startproc
# BB#0:                                 # %entry
	pushq	%r15
.Ltmp169:
	.cfi_def_cfa_offset 16
	pushq	%r14
.Ltmp170:
	.cfi_def_cfa_offset 24
	pushq	%r13
.Ltmp171:
	.cfi_def_cfa_offset 32
	pushq	%r12
.Ltmp172:
	.cfi_def_cfa_offset 40
	pushq	%rbx
.Ltmp173:
	.cfi_def_cfa_offset 48
	subq	$10096, %rsp            # imm = 0x2770
.Ltmp174:
	.cfi_def_cfa_offset 10144
.Ltmp175:
	.cfi_offset %rbx, -48
.Ltmp176:
	.cfi_offset %r12, -40
.Ltmp177:
	.cfi_offset %r13, -32
.Ltmp178:
	.cfi_offset %r14, -24
.Ltmp179:
	.cfi_offset %r15, -16
	movq	%rdi, 10080(%rsp)
	movq	%rsi, 10072(%rsp)
	movq	$0, 10064(%rsp)
	movl	$0, 28(%rsp)
	movl	$0, 10044(%rsp)
	movq	10072(%rsp), %rdi
	callq	ferror
	testl	%eax, %eax
	jne	.LBB38_13
# BB#1:                                 # %if.end
	movq	10080(%rsp), %rdi
	callq	ferror
	testl	%eax, %eax
	jne	.LBB38_13
# BB#2:
	leaq	10060(%rsp), %r15
	leaq	32(%rsp), %r14
	leaq	5040(%rsp), %rbx
	leaq	16(%rsp), %r12
	leaq	28(%rsp), %r13
.LBB38_3:                               # %while.body
                                        # =>This Loop Header: Depth=1
                                        #     Child Loop BB38_6 Depth 2
                                        #     Child Loop BB38_18 Depth 2
	movl	28(%rsp), %r9d
	movzbl	smallMode(%rip), %ecx
	movl	verbosity(%rip), %edx
	movq	10080(%rsp), %rsi
	movq	%r15, %rdi
	movq	%r14, %r8
	callq	BZ2_bzReadOpen
	movq	%rax, 10064(%rsp)
	testq	%rax, %rax
	je	.LBB38_39
# BB#4:                                 # %lor.lhs.false
                                        #   in Loop: Header=BB38_3 Depth=1
	cmpl	$0, 10060(%rsp)
	jne	.LBB38_39
# BB#5:                                 # %if.end10
                                        #   in Loop: Header=BB38_3 Depth=1
	incl	10044(%rsp)
	.align	16, 0x90
.LBB38_6:                               # %while.cond11
                                        #   Parent Loop BB38_3 Depth=1
                                        # =>  This Inner Loop Header: Depth=2
	cmpl	$0, 10060(%rsp)
	jne	.LBB38_14
# BB#7:                                 # %while.body14
                                        #   in Loop: Header=BB38_6 Depth=2
	movq	10064(%rsp), %rsi
	movq	%r15, %rdi
	movq	%rbx, %rdx
	movl	$5000, %ecx             # imm = 0x1388
	callq	BZ2_bzRead
	movl	%eax, 10048(%rsp)
	cmpl	$-5, 10060(%rsp)
	je	.LBB38_32
# BB#8:                                 # %if.end20
                                        #   in Loop: Header=BB38_6 Depth=2
	cmpl	$0, 10060(%rsp)
	je	.LBB38_10
# BB#9:                                 # %lor.lhs.false23
                                        #   in Loop: Header=BB38_6 Depth=2
	cmpl	$4, 10060(%rsp)
	jne	.LBB38_12
.LBB38_10:                              # %land.lhs.true
                                        #   in Loop: Header=BB38_6 Depth=2
	cmpl	$0, 10048(%rsp)
	jle	.LBB38_12
# BB#11:                                # %if.then28
                                        #   in Loop: Header=BB38_6 Depth=2
	movq	10072(%rsp), %rcx
	movslq	10048(%rsp), %rdx
	movq	%rbx, %rdi
	movl	$1, %esi
	callq	fwrite
.LBB38_12:                              # %if.end32
                                        #   in Loop: Header=BB38_6 Depth=2
	movq	10072(%rsp), %rdi
	callq	ferror
	testl	%eax, %eax
	je	.LBB38_6
	jmp	.LBB38_13
.LBB38_14:                              # %while.end
                                        #   in Loop: Header=BB38_3 Depth=1
	cmpl	$4, 10060(%rsp)
	jne	.LBB38_39
# BB#15:                                # %if.end40
                                        #   in Loop: Header=BB38_3 Depth=1
	movq	10064(%rsp), %rsi
	movq	%r15, %rdi
	movq	%r12, %rdx
	movq	%r13, %rcx
	callq	BZ2_bzReadGetUnused
	cmpl	$0, 10060(%rsp)
	je	.LBB38_17
# BB#16:                                # %if.then43
                                        #   in Loop: Header=BB38_3 Depth=1
	movl	$.L.str85, %edi
	callq	panic
.LBB38_17:                              # %if.end44
                                        #   in Loop: Header=BB38_3 Depth=1
	movq	16(%rsp), %rax
	movq	%rax, 8(%rsp)
	movl	$0, 10040(%rsp)
	jmp	.LBB38_18
	.align	16, 0x90
.LBB38_19:                              # %for.inc
                                        #   in Loop: Header=BB38_18 Depth=2
	movslq	10040(%rsp), %rax
	movq	8(%rsp), %rcx
	movb	(%rcx,%rax), %cl
	movb	%cl, 32(%rsp,%rax)
	incl	10040(%rsp)
.LBB38_18:                              # %for.cond
                                        #   Parent Loop BB38_3 Depth=1
                                        # =>  This Inner Loop Header: Depth=2
	movl	10040(%rsp), %eax
	cmpl	28(%rsp), %eax
	jl	.LBB38_19
# BB#20:                                # %for.end
                                        #   in Loop: Header=BB38_3 Depth=1
	movq	10064(%rsp), %rsi
	movq	%r15, %rdi
	callq	BZ2_bzReadClose
	cmpl	$0, 10060(%rsp)
	je	.LBB38_22
# BB#21:                                # %if.then52
                                        #   in Loop: Header=BB38_3 Depth=1
	movl	$.L.str85, %edi
	callq	panic
.LBB38_22:                              # %if.end53
                                        #   in Loop: Header=BB38_3 Depth=1
	cmpl	$0, 28(%rsp)
	jne	.LBB38_3
# BB#23:                                # %land.lhs.true56
                                        #   in Loop: Header=BB38_3 Depth=1
	movq	10080(%rsp), %rdi
	callq	myfeof
	testb	%al, %al
	je	.LBB38_3
	jmp	.LBB38_24
.LBB38_32:                              # %trycat
	cmpb	$0, forceOverwrite(%rip)
	je	.LBB38_39
# BB#33:                                # %if.then96
	movq	10080(%rsp), %rdi
	callq	rewind
	leaq	5040(%rsp), %rbx
	.align	16, 0x90
.LBB38_34:                              # %while.body97
                                        # =>This Inner Loop Header: Depth=1
	movq	10080(%rsp), %rdi
	callq	myfeof
	testb	%al, %al
	jne	.LBB38_24
# BB#35:                                # %if.end101
                                        #   in Loop: Header=BB38_34 Depth=1
	movq	10080(%rsp), %rcx
	movq	%rbx, %rdi
	movl	$1, %esi
	movl	$5000, %edx             # imm = 0x1388
	callq	fread
	movl	%eax, 10048(%rsp)
	movq	10080(%rsp), %rdi
	callq	ferror
	testl	%eax, %eax
	jne	.LBB38_13
# BB#36:                                # %if.end108
                                        #   in Loop: Header=BB38_34 Depth=1
	cmpl	$0, 10048(%rsp)
	jle	.LBB38_38
# BB#37:                                # %if.then111
                                        #   in Loop: Header=BB38_34 Depth=1
	movq	10072(%rsp), %rcx
	movslq	10048(%rsp), %rdx
	movq	%rbx, %rdi
	movl	$1, %esi
	callq	fwrite
.LBB38_38:                              # %if.end115
                                        #   in Loop: Header=BB38_34 Depth=1
	movq	10072(%rsp), %rdi
	callq	ferror
	testl	%eax, %eax
	je	.LBB38_34
	jmp	.LBB38_13
.LBB38_39:                              # %errhandler
	movq	10064(%rsp), %rsi
	leaq	10056(%rsp), %rdi
	callq	BZ2_bzReadClose
	movl	10060(%rsp), %eax
	addl	$9, %eax
	cmpl	$6, %eax
	ja	.LBB38_53
# BB#40:                                # %errhandler
	jmpq	*.LJTI38_0(,%rax,8)
.LBB38_41:                              # %sw.bb
	callq	configError
	jmp	.LBB38_54
.LBB38_53:                              # %sw.default
	movl	$.L.str87, %edi
	callq	panic
	jmp	.LBB38_54
.LBB38_24:                              # %closeok
	movq	10080(%rsp), %rdi
	callq	ferror
	testl	%eax, %eax
	jne	.LBB38_13
# BB#25:                                # %if.end66
	movq	10080(%rsp), %rdi
	callq	fclose
	movl	%eax, 10052(%rsp)
	cmpl	$-1, %eax
	je	.LBB38_13
# BB#26:                                # %if.end71
	movq	10072(%rsp), %rdi
	callq	ferror
	testl	%eax, %eax
	jne	.LBB38_13
# BB#27:                                # %if.end75
	movq	10072(%rsp), %rdi
	callq	fflush
	movl	%eax, 10052(%rsp)
	testl	%eax, %eax
	jne	.LBB38_13
# BB#28:                                # %if.end80
	movq	10072(%rsp), %rax
	cmpq	stdout(%rip), %rax
	je	.LBB38_30
# BB#29:                                # %if.then83
	movq	10072(%rsp), %rdi
	callq	fclose
	movl	%eax, 10052(%rsp)
	movq	$0, outputHandleJustInCase(%rip)
	cmpl	$-1, 10052(%rsp)
	jne	.LBB38_30
.LBB38_13:                              # %errhandler_io
	callq	ioError
.LBB38_54:                              # %sw.epilog
	movl	$.L.str88, %edi
	callq	panic
.LBB38_55:                              # %sw.epilog
	movb	$1, 10095(%rsp)
.LBB38_56:                              # %return
	movzbl	10095(%rsp), %eax
	addq	$10096, %rsp            # imm = 0x2770
	popq	%rbx
	popq	%r12
	popq	%r13
	popq	%r14
	popq	%r15
	ret
.LBB38_42:                              # %sw.bb123
	callq	crcError
.LBB38_43:                              # %sw.bb124
	callq	outOfMemory
.LBB38_44:                              # %sw.bb125
	callq	compressedStreamEOF
.LBB38_45:                              # %sw.bb126
	movq	10080(%rsp), %rax
	cmpq	stdin(%rip), %rax
	je	.LBB38_47
# BB#46:                                # %if.then129
	movq	10080(%rsp), %rdi
	callq	fclose
.LBB38_47:                              # %if.end131
	movq	10072(%rsp), %rax
	cmpq	stdout(%rip), %rax
	je	.LBB38_49
# BB#48:                                # %if.then134
	movq	10072(%rsp), %rdi
	callq	fclose
.LBB38_49:                              # %if.end136
	cmpl	$1, 10044(%rsp)
	jne	.LBB38_51
# BB#50:                                # %if.then139
	movb	$0, 10095(%rsp)
	jmp	.LBB38_56
.LBB38_51:                              # %if.else
	cmpb	$0, noisy(%rip)
	je	.LBB38_55
# BB#52:                                # %if.then141
	movq	progName(%rip), %rdx
	movq	stderr(%rip), %rdi
	movl	$.L.str86, %esi
	movl	$inName, %ecx
	xorb	%al, %al
	callq	fprintf
	jmp	.LBB38_55
.LBB38_30:                              # %if.end89
	movq	$0, outputHandleJustInCase(%rip)
	cmpl	$2, verbosity(%rip)
	jl	.LBB38_55
# BB#31:                                # %if.then92
	movq	stderr(%rip), %rdi
	movl	$.L.str49, %esi
	xorb	%al, %al
	callq	fprintf
	jmp	.LBB38_55
.Ltmp180:
	.size	uncompressStream, .Ltmp180-uncompressStream
	.cfi_endproc
	.section	.rodata,"a",@progbits
	.align	8
.LJTI38_0:
	.quad	.LBB38_41
	.quad	.LBB38_53
	.quad	.LBB38_44
	.quad	.LBB38_13
	.quad	.LBB38_45
	.quad	.LBB38_42
	.quad	.LBB38_43

	.text
	.align	16, 0x90
	.type	applySavedMetaInfoToOutputFile,@function
applySavedMetaInfoToOutputFile:         # @applySavedMetaInfoToOutputFile
	.cfi_startproc
# BB#0:                                 # %entry
	subq	$40, %rsp
.Ltmp182:
	.cfi_def_cfa_offset 48
	movq	%rdi, 32(%rsp)
	movq	fileMetaInfo+72(%rip), %rax
	movq	%rax, 8(%rsp)
	movq	fileMetaInfo+88(%rip), %rax
	movq	%rax, 16(%rsp)
	movl	fileMetaInfo+24(%rip), %esi
	movq	32(%rsp), %rdi
	callq	chmod
	movl	%eax, 28(%rsp)
	testl	%eax, %eax
	je	.LBB39_2
# BB#1:                                 # %if.then
	callq	ioError
.LBB39_2:                               # %if.end
	movq	32(%rsp), %rdi
	leaq	8(%rsp), %rsi
	callq	utime
	movl	%eax, 28(%rsp)
	testl	%eax, %eax
	je	.LBB39_4
# BB#3:                                 # %if.then3
	callq	ioError
.LBB39_4:                               # %if.end4
	movl	fileMetaInfo+32(%rip), %edx
	movl	fileMetaInfo+28(%rip), %esi
	movq	32(%rsp), %rdi
	callq	chown
	movl	%eax, 28(%rsp)
	addq	$40, %rsp
	ret
.Ltmp183:
	.size	applySavedMetaInfoToOutputFile, .Ltmp183-applySavedMetaInfoToOutputFile
	.cfi_endproc

	.align	16, 0x90
	.type	crcError,@function
crcError:                               # @crcError
	.cfi_startproc
# BB#0:                                 # %entry
	pushq	%rax
.Ltmp185:
	.cfi_def_cfa_offset 16
	movq	progName(%rip), %rdx
	movq	stderr(%rip), %rdi
	movl	$.L.str91, %esi
	xorb	%al, %al
	callq	fprintf
	callq	showFileNames
	callq	cadvise
	movl	$2, %edi
	callq	cleanUpAndFail
	popq	%rax
	ret
.Ltmp186:
	.size	crcError, .Ltmp186-crcError
	.cfi_endproc

	.align	16, 0x90
	.type	compressedStreamEOF,@function
compressedStreamEOF:                    # @compressedStreamEOF
	.cfi_startproc
# BB#0:                                 # %entry
	pushq	%rax
.Ltmp188:
	.cfi_def_cfa_offset 16
	cmpb	$0, noisy(%rip)
	je	.LBB41_2
# BB#1:                                 # %if.then
	movq	progName(%rip), %rdx
	movq	stderr(%rip), %rdi
	movl	$.L.str89, %esi
	xorb	%al, %al
	callq	fprintf
	movq	progName(%rip), %rdi
	callq	perror
	callq	showFileNames
	callq	cadvise
.LBB41_2:                               # %if.end
	movl	$2, %edi
	callq	cleanUpAndFail
	popq	%rax
	ret
.Ltmp189:
	.size	compressedStreamEOF, .Ltmp189-compressedStreamEOF
	.cfi_endproc

	.align	16, 0x90
	.type	cadvise,@function
cadvise:                                # @cadvise
	.cfi_startproc
# BB#0:                                 # %entry
	pushq	%rax
.Ltmp191:
	.cfi_def_cfa_offset 16
	cmpb	$0, noisy(%rip)
	je	.LBB42_2
# BB#1:                                 # %if.then
	movq	stderr(%rip), %rdi
	movl	$.L.str90, %esi
	xorb	%al, %al
	callq	fprintf
.LBB42_2:                               # %if.end
	popq	%rax
	ret
.Ltmp192:
	.size	cadvise, .Ltmp192-cadvise
	.cfi_endproc

	.align	16, 0x90
	.type	hasSuffix,@function
hasSuffix:                              # @hasSuffix
	.cfi_startproc
# BB#0:                                 # %entry
	subq	$40, %rsp
.Ltmp194:
	.cfi_def_cfa_offset 48
	movq	%rdi, 24(%rsp)
	movq	%rsi, 16(%rsp)
	movq	24(%rsp), %rdi
	callq	strlen
	movl	%eax, 12(%rsp)
	movq	16(%rsp), %rdi
	callq	strlen
	movl	%eax, 8(%rsp)
	cmpl	%eax, 12(%rsp)
	jl	.LBB43_3
# BB#1:                                 # %if.end
	movslq	12(%rsp), %rdi
	addq	24(%rsp), %rdi
	movslq	8(%rsp), %rax
	subq	%rax, %rdi
	movq	16(%rsp), %rsi
	callq	strcmp
	testl	%eax, %eax
	je	.LBB43_2
.LBB43_3:                               # %if.end10
	movb	$0, 39(%rsp)
	jmp	.LBB43_4
.LBB43_2:                               # %if.then9
	movb	$1, 39(%rsp)
.LBB43_4:                               # %return
	movzbl	39(%rsp), %eax
	addq	$40, %rsp
	ret
.Ltmp195:
	.size	hasSuffix, .Ltmp195-hasSuffix
	.cfi_endproc

	.section	.rodata.cst8,"aM",@progbits,8
	.align	8
.LCPI44_0:
	.quad	4607182418800017408     # double 1.000000e+00
                                        #  (0x3ff0000000000000)
.LCPI44_1:
	.quad	4620693217682128896     # double 8.000000e+00
                                        #  (0x4020000000000000)
.LCPI44_2:
	.quad	4636737291354636288     # double 1.000000e+02
                                        #  (0x4059000000000000)
	.text
	.align	16, 0x90
	.type	compressStream,@function
compressStream:                         # @compressStream
	.cfi_startproc
# BB#0:                                 # %entry
	pushq	%r15
.Ltmp200:
	.cfi_def_cfa_offset 16
	pushq	%r14
.Ltmp201:
	.cfi_def_cfa_offset 24
	pushq	%rbx
.Ltmp202:
	.cfi_def_cfa_offset 32
	subq	$5168, %rsp             # imm = 0x1430
.Ltmp203:
	.cfi_def_cfa_offset 5200
.Ltmp204:
	.cfi_offset %rbx, -32
.Ltmp205:
	.cfi_offset %r14, -24
.Ltmp206:
	.cfi_offset %r15, -16
	movq	%rdi, 5160(%rsp)
	movq	%rsi, 5152(%rsp)
	movq	$0, 5144(%rsp)
	movq	5160(%rsp), %rdi
	callq	ferror
	testl	%eax, %eax
	jne	.LBB44_27
# BB#1:                                 # %if.end
	movq	5152(%rsp), %rdi
	callq	ferror
	testl	%eax, %eax
	jne	.LBB44_27
# BB#2:                                 # %if.end4
	movl	workFactor(%rip), %r8d
	movl	verbosity(%rip), %ecx
	movl	blockSize100k(%rip), %edx
	movq	5152(%rsp), %rsi
	leaq	120(%rsp), %rdi
	callq	BZ2_bzWriteOpen
	movq	%rax, 5144(%rsp)
	cmpl	$0, 120(%rsp)
	jne	.LBB44_10
# BB#3:                                 # %if.end7
	cmpl	$2, verbosity(%rip)
	jl	.LBB44_5
# BB#4:                                 # %if.then9
	movq	stderr(%rip), %rdi
	movl	$.L.str96, %esi
	xorb	%al, %al
	callq	fprintf
	.align	16, 0x90
.LBB44_5:                               # %while.body
                                        # =>This Inner Loop Header: Depth=1
	movq	5160(%rsp), %rdi
	callq	myfeof
	testb	%al, %al
	jne	.LBB44_14
# BB#6:                                 # %if.end15
                                        #   in Loop: Header=BB44_5 Depth=1
	movq	5160(%rsp), %rcx
	leaq	144(%rsp), %rdi
	movl	$1, %esi
	movl	$5000, %edx             # imm = 0x1388
	callq	fread
	movl	%eax, 140(%rsp)
	movq	5160(%rsp), %rdi
	callq	ferror
	testl	%eax, %eax
	jne	.LBB44_27
# BB#7:                                 # %if.end20
                                        #   in Loop: Header=BB44_5 Depth=1
	cmpl	$0, 140(%rsp)
	jle	.LBB44_9
# BB#8:                                 # %if.then23
                                        #   in Loop: Header=BB44_5 Depth=1
	movl	140(%rsp), %ecx
	movq	5144(%rsp), %rsi
	leaq	120(%rsp), %rdi
	leaq	144(%rsp), %rdx
	callq	BZ2_bzWrite
.LBB44_9:                               # %if.end25
                                        #   in Loop: Header=BB44_5 Depth=1
	cmpl	$0, 120(%rsp)
	je	.LBB44_5
	jmp	.LBB44_10
.LBB44_14:                              # %while.end
	movq	5144(%rsp), %rsi
	leaq	124(%rsp), %rax
	movq	%rax, (%rsp)
	leaq	120(%rsp), %rdi
	leaq	136(%rsp), %rcx
	leaq	132(%rsp), %r8
	leaq	128(%rsp), %r9
	xorl	%edx, %edx
	callq	BZ2_bzWriteClose64
	cmpl	$0, 120(%rsp)
	je	.LBB44_15
.LBB44_10:                              # %errhandler
	movq	5144(%rsp), %rsi
	leaq	124(%rsp), %rax
	movq	%rax, (%rsp)
	leaq	116(%rsp), %rdi
	leaq	136(%rsp), %rcx
	leaq	132(%rsp), %r8
	leaq	128(%rsp), %r9
	movl	$1, %edx
	callq	BZ2_bzWriteClose64
	movl	120(%rsp), %eax
	cmpl	$-3, %eax
	je	.LBB44_26
# BB#11:                                # %errhandler
	cmpl	$-6, %eax
	je	.LBB44_27
# BB#12:                                # %errhandler
	cmpl	$-9, %eax
	jne	.LBB44_28
# BB#13:                                # %sw.bb
	callq	configError
	jmp	.LBB44_29
.LBB44_26:                              # %sw.bb82
	callq	outOfMemory
	jmp	.LBB44_29
.LBB44_28:                              # %sw.default
	movl	$.L.str99, %edi
	callq	panic
	jmp	.LBB44_29
.LBB44_15:                              # %if.end33
	movq	5152(%rsp), %rdi
	callq	ferror
	testl	%eax, %eax
	jne	.LBB44_27
# BB#16:                                # %if.end37
	movq	5152(%rsp), %rdi
	callq	fflush
	movl	%eax, 112(%rsp)
	cmpl	$-1, %eax
	je	.LBB44_27
# BB#17:                                # %if.end42
	movq	5152(%rsp), %rax
	cmpq	stdout(%rip), %rax
	je	.LBB44_19
# BB#18:                                # %if.then45
	movq	5152(%rsp), %rdi
	callq	fclose
	movl	%eax, 112(%rsp)
	movq	$0, outputHandleJustInCase(%rip)
	cmpl	$-1, 112(%rsp)
	je	.LBB44_27
.LBB44_19:                              # %if.end51
	movq	$0, outputHandleJustInCase(%rip)
	movq	5160(%rsp), %rdi
	callq	ferror
	testl	%eax, %eax
	jne	.LBB44_27
# BB#20:                                # %if.end55
	movq	5160(%rsp), %rdi
	callq	fclose
	movl	%eax, 112(%rsp)
	cmpl	$-1, %eax
	jne	.LBB44_21
.LBB44_27:                              # %errhandler_io
	callq	ioError
.LBB44_29:                              # %sw.epilog
	movl	$.L.str100, %edi
	callq	panic
.LBB44_30:                              # %return
	addq	$5168, %rsp             # imm = 0x1430
	popq	%rbx
	popq	%r14
	popq	%r15
	ret
.LBB44_21:                              # %if.end60
	cmpl	$0, verbosity(%rip)
	jle	.LBB44_30
# BB#22:                                # %if.then63
	cmpl	$0, 136(%rsp)
	jne	.LBB44_25
# BB#23:                                # %land.lhs.true
	cmpl	$0, 132(%rsp)
	je	.LBB44_24
.LBB44_25:                              # %if.else
	movl	132(%rsp), %edx
	movl	136(%rsp), %esi
	leaq	40(%rsp), %r15
	movq	%r15, %rdi
	callq	uInt64_from_UInt32s
	movl	124(%rsp), %edx
	movl	128(%rsp), %esi
	leaq	32(%rsp), %rbx
	movq	%rbx, %rdi
	callq	uInt64_from_UInt32s
	movq	%r15, %rdi
	callq	uInt64_to_double
	movsd	%xmm0, 24(%rsp)
	movq	%rbx, %rdi
	callq	uInt64_to_double
	leaq	80(%rsp), %r14
	movsd	%xmm0, 16(%rsp)
	movq	%r14, %rdi
	movq	%r15, %rsi
	callq	uInt64_toAscii
	leaq	48(%rsp), %r15
	movq	%r15, %rdi
	movq	%rbx, %rsi
	callq	uInt64_toAscii
	movsd	.LCPI44_0(%rip), %xmm2
	movsd	16(%rsp), %xmm3
	movsd	24(%rsp), %xmm4
	movaps	%xmm4, %xmm0
	divsd	%xmm3, %xmm0
	movsd	.LCPI44_1(%rip), %xmm1
	mulsd	%xmm3, %xmm1
	divsd	%xmm4, %xmm1
	divsd	%xmm4, %xmm3
	movq	stderr(%rip), %rdi
	subsd	%xmm3, %xmm2
	mulsd	.LCPI44_2(%rip), %xmm2
	movl	$.L.str98, %esi
	movq	%r14, %rdx
	movq	%r15, %rcx
	movb	$3, %al
	callq	fprintf
	jmp	.LBB44_30
.LBB44_24:                              # %if.then68
	movq	stderr(%rip), %rdi
	movl	$.L.str97, %esi
	xorb	%al, %al
	callq	fprintf
	jmp	.LBB44_30
.Ltmp207:
	.size	compressStream, .Ltmp207-compressStream
	.cfi_endproc

	.align	16, 0x90
	.type	uInt64_from_UInt32s,@function
uInt64_from_UInt32s:                    # @uInt64_from_UInt32s
	.cfi_startproc
# BB#0:                                 # %entry
	movq	%rdi, -8(%rsp)
	movl	%esi, -12(%rsp)
	movl	%edx, -16(%rsp)
	movq	-8(%rsp), %rax
	movb	-13(%rsp), %cl
	movb	%cl, 7(%rax)
	movq	-8(%rsp), %rax
	movb	-14(%rsp), %cl
	movb	%cl, 6(%rax)
	movq	-8(%rsp), %rax
	movb	-15(%rsp), %cl
	movb	%cl, 5(%rax)
	movq	-8(%rsp), %rax
	movb	-16(%rsp), %cl
	movb	%cl, 4(%rax)
	movq	-8(%rsp), %rax
	movb	-9(%rsp), %cl
	movb	%cl, 3(%rax)
	movq	-8(%rsp), %rax
	movb	-10(%rsp), %cl
	movb	%cl, 2(%rax)
	movq	-8(%rsp), %rax
	movb	-11(%rsp), %cl
	movb	%cl, 1(%rax)
	movq	-8(%rsp), %rax
	movb	-12(%rsp), %cl
	movb	%cl, (%rax)
	ret
.Ltmp208:
	.size	uInt64_from_UInt32s, .Ltmp208-uInt64_from_UInt32s
	.cfi_endproc

	.section	.rodata.cst8,"aM",@progbits,8
	.align	8
.LCPI46_0:
	.quad	4643211215818981376     # double 2.560000e+02
                                        #  (0x4070000000000000)
	.text
	.align	16, 0x90
	.type	uInt64_to_double,@function
uInt64_to_double:                       # @uInt64_to_double
	.cfi_startproc
# BB#0:                                 # %entry
	movq	%rdi, -8(%rsp)
	movabsq	$4607182418800017408, %rax # imm = 0x3FF0000000000000
	movq	%rax, -24(%rsp)
	movq	$0, -32(%rsp)
	movl	$0, -12(%rsp)
	movsd	.LCPI46_0(%rip), %xmm0
	jmp	.LBB46_1
	.align	16, 0x90
.LBB46_2:                               # %for.inc
                                        #   in Loop: Header=BB46_1 Depth=1
	movslq	-12(%rsp), %rax
	movq	-8(%rsp), %rcx
	movzbl	(%rcx,%rax), %eax
	cvtsi2sd	%eax, %xmm1
	mulsd	-24(%rsp), %xmm1
	addsd	-32(%rsp), %xmm1
	movsd	%xmm1, -32(%rsp)
	movsd	-24(%rsp), %xmm1
	mulsd	%xmm0, %xmm1
	movsd	%xmm1, -24(%rsp)
	incl	-12(%rsp)
.LBB46_1:                               # %for.cond
                                        # =>This Inner Loop Header: Depth=1
	cmpl	$7, -12(%rsp)
	jle	.LBB46_2
# BB#3:                                 # %for.end
	movsd	-32(%rsp), %xmm0
	ret
.Ltmp209:
	.size	uInt64_to_double, .Ltmp209-uInt64_to_double
	.cfi_endproc

	.align	16, 0x90
	.type	uInt64_toAscii,@function
uInt64_toAscii:                         # @uInt64_toAscii
	.cfi_startproc
# BB#0:                                 # %entry
	pushq	%rbx
.Ltmp212:
	.cfi_def_cfa_offset 16
	subq	$80, %rsp
.Ltmp213:
	.cfi_def_cfa_offset 96
.Ltmp214:
	.cfi_offset %rbx, -16
	movq	%rdi, 72(%rsp)
	movq	%rsi, 64(%rsp)
	movl	$0, 12(%rsp)
	movq	64(%rsp), %rax
	movq	(%rax), %rax
	movq	%rax, (%rsp)
	leaq	(%rsp), %rbx
	.align	16, 0x90
.LBB47_1:                               # %do.body
                                        # =>This Inner Loop Header: Depth=1
	movq	%rbx, %rdi
	callq	uInt64_qrm10
	movl	%eax, 56(%rsp)
	addl	$48, %eax
	movslq	12(%rsp), %rcx
	movb	%al, 16(%rsp,%rcx)
	incl	12(%rsp)
	movq	%rbx, %rdi
	callq	uInt64_isZero
	testb	%al, %al
	je	.LBB47_1
# BB#2:                                 # %do.end
	movq	72(%rsp), %rax
	movslq	12(%rsp), %rcx
	movb	$0, (%rax,%rcx)
	movl	$0, 60(%rsp)
	jmp	.LBB47_3
	.align	16, 0x90
.LBB47_4:                               # %for.body
                                        #   in Loop: Header=BB47_3 Depth=1
	movslq	60(%rsp), %rax
	movl	12(%rsp), %ecx
	subl	%eax, %ecx
	decl	%ecx
	movslq	%ecx, %rcx
	movb	16(%rsp,%rcx), %cl
	movq	72(%rsp), %rdx
	movb	%cl, (%rdx,%rax)
	incl	60(%rsp)
.LBB47_3:                               # %for.cond
                                        # =>This Inner Loop Header: Depth=1
	movl	60(%rsp), %eax
	cmpl	12(%rsp), %eax
	jl	.LBB47_4
# BB#5:                                 # %for.end
	addq	$80, %rsp
	popq	%rbx
	ret
.Ltmp215:
	.size	uInt64_toAscii, .Ltmp215-uInt64_toAscii
	.cfi_endproc

	.align	16, 0x90
	.type	uInt64_qrm10,@function
uInt64_qrm10:                           # @uInt64_qrm10
	.cfi_startproc
# BB#0:                                 # %entry
	movq	%rdi, -8(%rsp)
	movl	$0, -12(%rsp)
	movl	$7, -20(%rsp)
	movl	$3435973837, %eax       # imm = 0xCCCCCCCD
	jmp	.LBB48_1
	.align	16, 0x90
.LBB48_2:                               # %for.inc
                                        #   in Loop: Header=BB48_1 Depth=1
	movslq	-20(%rsp), %rcx
	movq	-8(%rsp), %rdx
	movzbl	(%rdx,%rcx), %edx
	movl	-12(%rsp), %ecx
	shll	$8, %ecx
	orl	%edx, %ecx
	movl	%ecx, -16(%rsp)
	imulq	%rax, %rcx
	shrq	$35, %rcx
	movq	-8(%rsp), %rdx
	movslq	-20(%rsp), %rsi
	movb	%cl, (%rdx,%rsi)
	movl	-16(%rsp), %ecx
	movq	%rcx, %rdx
	imulq	%rax, %rdx
	shrq	$35, %rdx
	imull	$10, %edx, %edx
	subl	%edx, %ecx
	movl	%ecx, -12(%rsp)
	decl	-20(%rsp)
.LBB48_1:                               # %for.cond
                                        # =>This Inner Loop Header: Depth=1
	cmpl	$0, -20(%rsp)
	jns	.LBB48_2
# BB#3:                                 # %for.end
	movl	-12(%rsp), %eax
	ret
.Ltmp216:
	.size	uInt64_qrm10, .Ltmp216-uInt64_qrm10
	.cfi_endproc

	.align	16, 0x90
	.type	uInt64_isZero,@function
uInt64_isZero:                          # @uInt64_isZero
	.cfi_startproc
# BB#0:                                 # %entry
	movq	%rdi, -16(%rsp)
	movl	$0, -20(%rsp)
	jmp	.LBB49_1
	.align	16, 0x90
.LBB49_4:                               # %for.inc
                                        #   in Loop: Header=BB49_1 Depth=1
	incl	-20(%rsp)
.LBB49_1:                               # %for.cond
                                        # =>This Inner Loop Header: Depth=1
	cmpl	$7, -20(%rsp)
	jg	.LBB49_5
# BB#2:                                 # %for.body
                                        #   in Loop: Header=BB49_1 Depth=1
	movslq	-20(%rsp), %rax
	movq	-16(%rsp), %rcx
	movzbl	(%rcx,%rax), %eax
	testl	%eax, %eax
	je	.LBB49_4
# BB#3:                                 # %if.then
	movb	$0, -1(%rsp)
	movzbl	-1(%rsp), %eax
	ret
.LBB49_5:                               # %for.end
	movb	$1, -1(%rsp)
	movzbl	-1(%rsp), %eax
	ret
.Ltmp217:
	.size	uInt64_isZero, .Ltmp217-uInt64_isZero
	.cfi_endproc

	.align	16, 0x90
	.type	mkCell,@function
mkCell:                                 # @mkCell
	.cfi_startproc
# BB#0:                                 # %entry
	pushq	%rax
.Ltmp219:
	.cfi_def_cfa_offset 16
	movl	$16, %edi
	callq	myMalloc
	movq	%rax, (%rsp)
	movq	$0, (%rax)
	movq	(%rsp), %rax
	movq	$0, 8(%rax)
	movq	(%rsp), %rax
	popq	%rdx
	ret
.Ltmp220:
	.size	mkCell, .Ltmp220-mkCell
	.cfi_endproc

	.align	16, 0x90
	.type	myMalloc,@function
myMalloc:                               # @myMalloc
	.cfi_startproc
# BB#0:                                 # %entry
	subq	$24, %rsp
.Ltmp222:
	.cfi_def_cfa_offset 32
	movl	%edi, 20(%rsp)
	movslq	20(%rsp), %rdi
	callq	malloc
	movq	%rax, 8(%rsp)
	testq	%rax, %rax
	jne	.LBB51_2
# BB#1:                                 # %if.then
	callq	outOfMemory
.LBB51_2:                               # %if.end
	movq	8(%rsp), %rax
	addq	$24, %rsp
	ret
.Ltmp223:
	.size	myMalloc, .Ltmp223-myMalloc
	.cfi_endproc

	.globl	BZ2_bz__AssertH__fail
	.align	16, 0x90
	.type	BZ2_bz__AssertH__fail,@function
BZ2_bz__AssertH__fail:                  # @BZ2_bz__AssertH__fail
	.cfi_startproc
# BB#0:                                 # %entry
	pushq	%r14
.Ltmp227:
	.cfi_def_cfa_offset 16
	pushq	%rbx
.Ltmp228:
	.cfi_def_cfa_offset 24
	pushq	%rax
.Ltmp229:
	.cfi_def_cfa_offset 32
.Ltmp230:
	.cfi_offset %rbx, -24
.Ltmp231:
	.cfi_offset %r14, -16
	movl	%edi, %ebx
	movl	%ebx, 4(%rsp)
	movq	stderr(%rip), %r14
	callq	BZ2_bzlibVersion
	movq	%r14, %rdi
	movl	$.L.str108, %esi
	movl	%ebx, %edx
	movq	%rax, %rcx
	xorb	%al, %al
	callq	fprintf
	cmpl	$1007, 4(%rsp)          # imm = 0x3EF
	jne	.LBB52_2
# BB#1:                                 # %if.then
	movq	stderr(%rip), %rdi
	movl	$.L.str1109, %esi
	xorb	%al, %al
	callq	fprintf
.LBB52_2:                               # %if.end
	movl	$3, %edi
	callq	exit
	addq	$8, %rsp
	popq	%rbx
	popq	%r14
	ret
.Ltmp232:
	.size	BZ2_bz__AssertH__fail, .Ltmp232-BZ2_bz__AssertH__fail
	.cfi_endproc

	.globl	BZ2_bzlibVersion
	.align	16, 0x90
	.type	BZ2_bzlibVersion,@function
BZ2_bzlibVersion:                       # @BZ2_bzlibVersion
	.cfi_startproc
# BB#0:                                 # %entry
	movl	$.L.str5113, %eax
	ret
.Ltmp233:
	.size	BZ2_bzlibVersion, .Ltmp233-BZ2_bzlibVersion
	.cfi_endproc

	.globl	BZ2_bzCompressInit
	.align	16, 0x90
	.type	BZ2_bzCompressInit,@function
BZ2_bzCompressInit:                     # @BZ2_bzCompressInit
	.cfi_startproc
# BB#0:                                 # %entry
	subq	$40, %rsp
.Ltmp235:
	.cfi_def_cfa_offset 48
	movq	%rdi, 24(%rsp)
	movl	%esi, 20(%rsp)
	movl	%edx, 16(%rsp)
	movl	%ecx, 12(%rsp)
	callq	bz_config_ok
	testl	%eax, %eax
	je	.LBB54_1
# BB#2:                                 # %if.end
	cmpq	$0, 24(%rsp)
	je	.LBB54_7
# BB#3:                                 # %lor.lhs.false
	cmpl	$0, 20(%rsp)
	jle	.LBB54_7
# BB#4:                                 # %lor.lhs.false2
	cmpl	$9, 20(%rsp)
	jg	.LBB54_7
# BB#5:                                 # %lor.lhs.false4
	cmpl	$0, 12(%rsp)
	js	.LBB54_7
# BB#6:                                 # %lor.lhs.false6
	cmpl	$251, 12(%rsp)
	jl	.LBB54_8
.LBB54_7:                               # %if.then8
	movl	$-2, 36(%rsp)
	jmp	.LBB54_29
.LBB54_1:                               # %if.then
	movl	$-9, 36(%rsp)
.LBB54_29:                              # %return
	movl	36(%rsp), %eax
	addq	$40, %rsp
	ret
.LBB54_8:                               # %if.end9
	cmpl	$0, 12(%rsp)
	jne	.LBB54_10
# BB#9:                                 # %if.then11
	movl	$30, 12(%rsp)
.LBB54_10:                              # %if.end12
	movq	24(%rsp), %rax
	cmpq	$0, 56(%rax)
	jne	.LBB54_12
# BB#11:                                # %if.then14
	movq	24(%rsp), %rax
	movq	$default_bzalloc, 56(%rax)
.LBB54_12:                              # %if.end16
	movq	24(%rsp), %rax
	cmpq	$0, 64(%rax)
	jne	.LBB54_14
# BB#13:                                # %if.then18
	movq	24(%rsp), %rax
	movq	$default_bzfree, 64(%rax)
.LBB54_14:                              # %if.end20
	movq	24(%rsp), %rax
	movq	72(%rax), %rdi
	movl	$55768, %esi            # imm = 0xD9D8
	movl	$1, %edx
	callq	*56(%rax)
	movq	%rax, (%rsp)
	testq	%rax, %rax
	je	.LBB54_15
# BB#16:                                # %if.end25
	movq	(%rsp), %rax
	movq	24(%rsp), %rcx
	movq	%rcx, (%rax)
	movq	(%rsp), %rax
	movq	$0, 24(%rax)
	movq	(%rsp), %rax
	movq	$0, 32(%rax)
	movq	(%rsp), %rax
	movq	$0, 40(%rax)
	imull	$100000, 20(%rsp), %esi # imm = 0x186A0
	movl	%esi, 8(%rsp)
	movq	24(%rsp), %rax
	movq	72(%rax), %rdi
	shll	$2, %esi
	movl	$1, %edx
	callq	*56(%rax)
	movq	(%rsp), %rcx
	movq	%rax, 24(%rcx)
	movq	24(%rsp), %rax
	movq	72(%rax), %rdi
	movl	8(%rsp), %ecx
	leal	136(,%rcx,4), %esi
	movl	$1, %edx
	callq	*56(%rax)
	movq	(%rsp), %rcx
	movq	%rax, 32(%rcx)
	movq	24(%rsp), %rax
	movq	72(%rax), %rdi
	movl	$262148, %esi           # imm = 0x40004
	movl	$1, %edx
	callq	*56(%rax)
	movq	(%rsp), %rcx
	movq	%rax, 40(%rcx)
	movq	(%rsp), %rax
	cmpq	$0, 24(%rax)
	je	.LBB54_19
# BB#17:                                # %lor.lhs.false47
	movq	(%rsp), %rax
	cmpq	$0, 32(%rax)
	je	.LBB54_19
# BB#18:                                # %lor.lhs.false51
	movq	(%rsp), %rax
	cmpq	$0, 40(%rax)
	je	.LBB54_19
# BB#28:                                # %if.end86
	movq	(%rsp), %rax
	movl	$0, 660(%rax)
	movq	(%rsp), %rax
	movl	$2, 12(%rax)
	movq	(%rsp), %rax
	movl	$2, 8(%rax)
	movq	(%rsp), %rax
	movl	$0, 652(%rax)
	movq	(%rsp), %rax
	movl	20(%rsp), %ecx
	movl	%ecx, 664(%rax)
	imull	$100000, 20(%rsp), %eax # imm = 0x186A0
	addl	$-19, %eax
	movq	(%rsp), %rcx
	movl	%eax, 112(%rcx)
	movq	(%rsp), %rax
	movl	16(%rsp), %ecx
	movl	%ecx, 656(%rax)
	movq	(%rsp), %rax
	movl	12(%rsp), %ecx
	movl	%ecx, 88(%rax)
	movq	(%rsp), %rax
	movq	32(%rax), %rcx
	movq	%rcx, 64(%rax)
	movq	(%rsp), %rax
	movq	24(%rax), %rcx
	movq	%rcx, 72(%rax)
	movq	(%rsp), %rax
	movq	$0, 80(%rax)
	movq	(%rsp), %rax
	movq	24(%rax), %rcx
	movq	%rcx, 56(%rax)
	movq	24(%rsp), %rax
	movq	(%rsp), %rcx
	movq	%rcx, 48(%rax)
	movq	24(%rsp), %rax
	movl	$0, 12(%rax)
	movq	24(%rsp), %rax
	movl	$0, 16(%rax)
	movq	24(%rsp), %rax
	movl	$0, 36(%rax)
	movq	24(%rsp), %rax
	movl	$0, 40(%rax)
	movq	(%rsp), %rdi
	callq	init_RL
	movq	(%rsp), %rdi
	callq	prepare_new_block
	movl	$0, 36(%rsp)
	jmp	.LBB54_29
.LBB54_19:                              # %if.then55
	movq	(%rsp), %rax
	cmpq	$0, 24(%rax)
	je	.LBB54_21
# BB#20:                                # %if.then59
	movq	(%rsp), %rax
	movq	24(%rax), %rsi
	movq	24(%rsp), %rax
	movq	72(%rax), %rdi
	callq	*64(%rax)
.LBB54_21:                              # %if.end63
	movq	(%rsp), %rax
	cmpq	$0, 32(%rax)
	je	.LBB54_23
# BB#22:                                # %if.then67
	movq	(%rsp), %rax
	movq	32(%rax), %rsi
	movq	24(%rsp), %rax
	movq	72(%rax), %rdi
	callq	*64(%rax)
.LBB54_23:                              # %if.end71
	movq	(%rsp), %rax
	cmpq	$0, 40(%rax)
	je	.LBB54_25
# BB#24:                                # %if.then75
	movq	(%rsp), %rax
	movq	40(%rax), %rsi
	movq	24(%rsp), %rax
	movq	72(%rax), %rdi
	callq	*64(%rax)
.LBB54_25:                              # %if.end79
	cmpq	$0, (%rsp)
	je	.LBB54_27
# BB#26:                                # %if.then82
	movq	24(%rsp), %rax
	movq	72(%rax), %rdi
	movq	(%rsp), %rsi
	callq	*64(%rax)
.LBB54_27:                              # %if.end85
	movl	$-3, 36(%rsp)
	jmp	.LBB54_29
.LBB54_15:                              # %if.then24
	movl	$-3, 36(%rsp)
	jmp	.LBB54_29
.Ltmp236:
	.size	BZ2_bzCompressInit, .Ltmp236-BZ2_bzCompressInit
	.cfi_endproc

	.align	16, 0x90
	.type	bz_config_ok,@function
bz_config_ok:                           # @bz_config_ok
	.cfi_startproc
# BB#0:                                 # %entry
	movl	$1, %eax
	ret
.Ltmp237:
	.size	bz_config_ok, .Ltmp237-bz_config_ok
	.cfi_endproc

	.align	16, 0x90
	.type	default_bzalloc,@function
default_bzalloc:                        # @default_bzalloc
	.cfi_startproc
# BB#0:                                 # %entry
	subq	$24, %rsp
.Ltmp239:
	.cfi_def_cfa_offset 32
	movq	%rdi, 16(%rsp)
	movl	%esi, 12(%rsp)
	movl	%edx, 8(%rsp)
	imull	12(%rsp), %edx
	movslq	%edx, %rdi
	callq	malloc
	movq	%rax, (%rsp)
	addq	$24, %rsp
	ret
.Ltmp240:
	.size	default_bzalloc, .Ltmp240-default_bzalloc
	.cfi_endproc

	.align	16, 0x90
	.type	default_bzfree,@function
default_bzfree:                         # @default_bzfree
	.cfi_startproc
# BB#0:                                 # %entry
	subq	$24, %rsp
.Ltmp242:
	.cfi_def_cfa_offset 32
	movq	%rdi, 16(%rsp)
	movq	%rsi, 8(%rsp)
	testq	%rsi, %rsi
	je	.LBB57_2
# BB#1:                                 # %if.then
	movq	8(%rsp), %rdi
	callq	free
.LBB57_2:                               # %if.end
	addq	$24, %rsp
	ret
.Ltmp243:
	.size	default_bzfree, .Ltmp243-default_bzfree
	.cfi_endproc

	.align	16, 0x90
	.type	init_RL,@function
init_RL:                                # @init_RL
	.cfi_startproc
# BB#0:                                 # %entry
	movq	%rdi, -8(%rsp)
	movl	$256, 92(%rdi)          # imm = 0x100
	movq	-8(%rsp), %rax
	movl	$0, 96(%rax)
	ret
.Ltmp244:
	.size	init_RL, .Ltmp244-init_RL
	.cfi_endproc

	.align	16, 0x90
	.type	prepare_new_block,@function
prepare_new_block:                      # @prepare_new_block
	.cfi_startproc
# BB#0:                                 # %entry
	movq	%rdi, -8(%rsp)
	movl	$0, 108(%rdi)
	movq	-8(%rsp), %rax
	movl	$0, 116(%rax)
	movq	-8(%rsp), %rax
	movl	$0, 120(%rax)
	movq	-8(%rsp), %rax
	movl	$-1, 648(%rax)
	movl	$0, -12(%rsp)
	jmp	.LBB59_1
	.align	16, 0x90
.LBB59_2:                               # %for.body
                                        #   in Loop: Header=BB59_1 Depth=1
	movq	-8(%rsp), %rax
	movslq	-12(%rsp), %rcx
	movb	$0, 128(%rax,%rcx)
	incl	-12(%rsp)
.LBB59_1:                               # %for.cond
                                        # =>This Inner Loop Header: Depth=1
	cmpl	$255, -12(%rsp)
	jle	.LBB59_2
# BB#3:                                 # %for.end
	movq	-8(%rsp), %rax
	incl	660(%rax)
	ret
.Ltmp245:
	.size	prepare_new_block, .Ltmp245-prepare_new_block
	.cfi_endproc

	.globl	BZ2_bzCompress
	.align	16, 0x90
	.type	BZ2_bzCompress,@function
BZ2_bzCompress:                         # @BZ2_bzCompress
	.cfi_startproc
# BB#0:                                 # %entry
	subq	$40, %rsp
.Ltmp247:
	.cfi_def_cfa_offset 48
	movq	%rdi, 24(%rsp)
	movl	%esi, 20(%rsp)
	cmpq	$0, 24(%rsp)
	je	.LBB60_1
# BB#2:                                 # %if.end
	movq	24(%rsp), %rax
	movq	48(%rax), %rax
	movq	%rax, 8(%rsp)
	testq	%rax, %rax
	je	.LBB60_3
# BB#4:                                 # %if.end3
	movq	8(%rsp), %rax
	movq	(%rax), %rax
	cmpq	24(%rsp), %rax
	je	.LBB60_6
# BB#5:                                 # %if.then6
	movl	$-2, 36(%rsp)
	jmp	.LBB60_37
	.align	16, 0x90
.LBB60_12:                              # %if.then13
                                        #   in Loop: Header=BB60_6 Depth=1
	movq	24(%rsp), %rax
	movl	8(%rax), %eax
	movq	8(%rsp), %rcx
	movl	%eax, 16(%rcx)
	movq	8(%rsp), %rax
	movl	$3, 8(%rax)
.LBB60_6:                               # %preswitch
                                        # =>This Inner Loop Header: Depth=1
	movq	8(%rsp), %rax
	movl	8(%rax), %eax
	decl	%eax
	cmpl	$3, %eax
	ja	.LBB60_36
# BB#7:                                 # %preswitch
                                        #   in Loop: Header=BB60_6 Depth=1
	jmpq	*.LJTI60_0(,%rax,8)
.LBB60_9:                               # %sw.bb8
                                        #   in Loop: Header=BB60_6 Depth=1
	cmpl	$0, 20(%rsp)
	je	.LBB60_10
# BB#11:                                # %if.else
                                        #   in Loop: Header=BB60_6 Depth=1
	cmpl	$1, 20(%rsp)
	je	.LBB60_12
# BB#13:                                # %if.else15
                                        #   in Loop: Header=BB60_6 Depth=1
	cmpl	$2, 20(%rsp)
	jne	.LBB60_15
# BB#14:                                # %if.then18
                                        #   in Loop: Header=BB60_6 Depth=1
	movq	24(%rsp), %rax
	movl	8(%rax), %eax
	movq	8(%rsp), %rcx
	movl	%eax, 16(%rcx)
	movq	8(%rsp), %rax
	movl	$4, 8(%rax)
	jmp	.LBB60_6
.LBB60_1:                               # %if.then
	movl	$-2, 36(%rsp)
	jmp	.LBB60_37
.LBB60_3:                               # %if.then2
	movl	$-2, 36(%rsp)
	jmp	.LBB60_37
.LBB60_36:                              # %sw.epilog
	movl	$0, 36(%rsp)
	jmp	.LBB60_37
.LBB60_10:                              # %if.then10
	movq	24(%rsp), %rdi
	callq	handle_compress
	movb	%al, 19(%rsp)
	movl	$1, %ecx
	movl	$-2, %edx
	testb	%al, %al
	cmovnel	%ecx, %edx
	movl	%edx, 36(%rsp)
	jmp	.LBB60_37
.LBB60_15:                              # %if.else22
	movl	$-2, 36(%rsp)
	jmp	.LBB60_37
.LBB60_8:                               # %sw.bb
	movl	$-1, 36(%rsp)
	jmp	.LBB60_37
.LBB60_16:                              # %sw.bb23
	cmpl	$1, 20(%rsp)
	je	.LBB60_18
# BB#17:                                # %if.then26
	movl	$-1, 36(%rsp)
	jmp	.LBB60_37
.LBB60_25:                              # %sw.bb47
	cmpl	$2, 20(%rsp)
	je	.LBB60_27
# BB#26:                                # %if.then50
	movl	$-1, 36(%rsp)
	jmp	.LBB60_37
.LBB60_18:                              # %if.end27
	movq	8(%rsp), %rax
	movq	(%rax), %rcx
	movl	16(%rax), %eax
	cmpl	8(%rcx), %eax
	je	.LBB60_20
# BB#19:                                # %if.then33
	movl	$-1, 36(%rsp)
	jmp	.LBB60_37
.LBB60_27:                              # %if.end51
	movq	8(%rsp), %rax
	movq	(%rax), %rcx
	movl	16(%rax), %eax
	cmpl	8(%rcx), %eax
	je	.LBB60_29
# BB#28:                                # %if.then57
	movl	$-1, 36(%rsp)
	jmp	.LBB60_37
.LBB60_20:                              # %if.end34
	movq	24(%rsp), %rdi
	callq	handle_compress
	movb	%al, 19(%rsp)
	movq	8(%rsp), %rax
	cmpl	$0, 16(%rax)
	jne	.LBB60_23
# BB#21:                                # %lor.lhs.false
	movq	8(%rsp), %rdi
	callq	isempty_RL
	testb	%al, %al
	je	.LBB60_23
# BB#22:                                # %lor.lhs.false41
	movq	8(%rsp), %rax
	movl	120(%rax), %ecx
	cmpl	116(%rax), %ecx
	jge	.LBB60_24
.LBB60_23:                              # %if.then44
	movl	$2, 36(%rsp)
	jmp	.LBB60_37
.LBB60_29:                              # %if.end58
	movq	24(%rsp), %rdi
	callq	handle_compress
	movb	%al, 19(%rsp)
	testb	%al, %al
	je	.LBB60_30
# BB#31:                                # %if.end62
	movq	8(%rsp), %rax
	cmpl	$0, 16(%rax)
	jne	.LBB60_34
# BB#32:                                # %lor.lhs.false66
	movq	8(%rsp), %rdi
	callq	isempty_RL
	testb	%al, %al
	je	.LBB60_34
# BB#33:                                # %lor.lhs.false69
	movq	8(%rsp), %rax
	movl	120(%rax), %ecx
	cmpl	116(%rax), %ecx
	jge	.LBB60_35
.LBB60_34:                              # %if.then74
	movl	$3, 36(%rsp)
	jmp	.LBB60_37
.LBB60_24:                              # %if.end45
	movq	8(%rsp), %rax
	movl	$2, 8(%rax)
	movl	$1, 36(%rsp)
	jmp	.LBB60_37
.LBB60_30:                              # %if.then61
	movl	$-1, 36(%rsp)
	jmp	.LBB60_37
.LBB60_35:                              # %if.end75
	movq	8(%rsp), %rax
	movl	$1, 8(%rax)
	movl	$4, 36(%rsp)
.LBB60_37:                              # %return
	movl	36(%rsp), %eax
	addq	$40, %rsp
	ret
.Ltmp248:
	.size	BZ2_bzCompress, .Ltmp248-BZ2_bzCompress
	.cfi_endproc
	.section	.rodata,"a",@progbits
	.align	8
.LJTI60_0:
	.quad	.LBB60_8
	.quad	.LBB60_9
	.quad	.LBB60_16
	.quad	.LBB60_25

	.text
	.align	16, 0x90
	.type	handle_compress,@function
handle_compress:                        # @handle_compress
	.cfi_startproc
# BB#0:                                 # %entry
	subq	$24, %rsp
.Ltmp250:
	.cfi_def_cfa_offset 32
	movq	%rdi, 16(%rsp)
	movb	$0, 15(%rsp)
	movb	$0, 14(%rsp)
	movq	16(%rsp), %rax
	movq	48(%rax), %rax
	movq	%rax, (%rsp)
	jmp	.LBB61_1
	.align	16, 0x90
.LBB61_15:                              # %if.then55
                                        #   in Loop: Header=BB61_1 Depth=1
	callq	BZ2_compressBlock
	movq	(%rsp), %rax
	movl	$1, 12(%rax)
.LBB61_1:                               # %while.body
                                        # =>This Inner Loop Header: Depth=1
	movq	(%rsp), %rax
	cmpl	$1, 12(%rax)
	jne	.LBB61_9
# BB#2:                                 # %if.then
                                        #   in Loop: Header=BB61_1 Depth=1
	movq	(%rsp), %rdi
	callq	copy_output_until_stop
	orb	%al, 14(%rsp)
	movq	(%rsp), %rax
	movl	120(%rax), %ecx
	cmpl	116(%rax), %ecx
	jl	.LBB61_17
# BB#3:                                 # %if.end
                                        #   in Loop: Header=BB61_1 Depth=1
	movq	(%rsp), %rax
	cmpl	$4, 8(%rax)
	jne	.LBB61_6
# BB#4:                                 # %land.lhs.true
                                        #   in Loop: Header=BB61_1 Depth=1
	movq	(%rsp), %rax
	cmpl	$0, 16(%rax)
	jne	.LBB61_6
# BB#5:                                 # %land.lhs.true11
                                        #   in Loop: Header=BB61_1 Depth=1
	movq	(%rsp), %rdi
	callq	isempty_RL
	testb	%al, %al
	jne	.LBB61_17
.LBB61_6:                               # %if.end15
                                        #   in Loop: Header=BB61_1 Depth=1
	movq	(%rsp), %rdi
	callq	prepare_new_block
	movq	(%rsp), %rax
	movl	$2, 12(%rax)
	movq	(%rsp), %rax
	cmpl	$3, 8(%rax)
	jne	.LBB61_9
# BB#7:                                 # %land.lhs.true20
                                        #   in Loop: Header=BB61_1 Depth=1
	movq	(%rsp), %rax
	cmpl	$0, 16(%rax)
	jne	.LBB61_9
# BB#8:                                 # %land.lhs.true24
                                        #   in Loop: Header=BB61_1 Depth=1
	movq	(%rsp), %rdi
	callq	isempty_RL
	testb	%al, %al
	jne	.LBB61_17
	.align	16, 0x90
.LBB61_9:                               # %if.end30
                                        #   in Loop: Header=BB61_1 Depth=1
	movq	(%rsp), %rax
	cmpl	$2, 12(%rax)
	jne	.LBB61_1
# BB#10:                                # %if.then34
                                        #   in Loop: Header=BB61_1 Depth=1
	movq	(%rsp), %rdi
	callq	copy_input_until_stop
	orb	%al, 15(%rsp)
	movq	(%rsp), %rax
	cmpl	$2, 8(%rax)
	je	.LBB61_13
# BB#11:                                # %land.lhs.true43
                                        #   in Loop: Header=BB61_1 Depth=1
	movq	(%rsp), %rax
	cmpl	$0, 16(%rax)
	jne	.LBB61_13
# BB#12:                                # %if.then47
                                        #   in Loop: Header=BB61_1 Depth=1
	movq	(%rsp), %rdi
	callq	flush_RL
	movq	(%rsp), %rdi
	cmpl	$4, 8(%rdi)
	sete	%al
	movzbl	%al, %esi
	jmp	.LBB61_15
	.align	16, 0x90
.LBB61_13:                              # %if.else
                                        #   in Loop: Header=BB61_1 Depth=1
	movq	(%rsp), %rax
	movl	108(%rax), %ecx
	cmpl	112(%rax), %ecx
	jl	.LBB61_16
# BB#14:                                # %if.then55
                                        #   in Loop: Header=BB61_1 Depth=1
	movq	(%rsp), %rdi
	xorl	%esi, %esi
	jmp	.LBB61_15
.LBB61_16:                              # %if.else57
                                        #   in Loop: Header=BB61_1 Depth=1
	movq	(%rsp), %rax
	movq	(%rax), %rax
	cmpl	$0, 8(%rax)
	jne	.LBB61_1
.LBB61_17:                              # %while.end
	movb	$1, %al
	cmpb	$0, 15(%rsp)
	jne	.LBB61_19
# BB#18:                                # %lor.rhs
	cmpb	$0, 14(%rsp)
	setne	%al
.LBB61_19:                              # %lor.end
	movzbl	%al, %eax
	addq	$24, %rsp
	ret
.Ltmp251:
	.size	handle_compress, .Ltmp251-handle_compress
	.cfi_endproc

	.align	16, 0x90
	.type	isempty_RL,@function
isempty_RL:                             # @isempty_RL
	.cfi_startproc
# BB#0:                                 # %entry
	movq	%rdi, -16(%rsp)
	cmpl	$255, 92(%rdi)
	ja	.LBB62_3
# BB#1:                                 # %land.lhs.true
	movq	-16(%rsp), %rax
	cmpl	$0, 96(%rax)
	jle	.LBB62_3
# BB#2:                                 # %if.then
	movb	$0, -1(%rsp)
	movzbl	-1(%rsp), %eax
	ret
.LBB62_3:                               # %if.else
	movb	$1, -1(%rsp)
	movzbl	-1(%rsp), %eax
	ret
.Ltmp252:
	.size	isempty_RL, .Ltmp252-isempty_RL
	.cfi_endproc

	.globl	BZ2_bzCompressEnd
	.align	16, 0x90
	.type	BZ2_bzCompressEnd,@function
BZ2_bzCompressEnd:                      # @BZ2_bzCompressEnd
	.cfi_startproc
# BB#0:                                 # %entry
	subq	$24, %rsp
.Ltmp254:
	.cfi_def_cfa_offset 32
	movq	%rdi, 8(%rsp)
	testq	%rdi, %rdi
	je	.LBB63_1
# BB#2:                                 # %if.end
	movq	8(%rsp), %rax
	movq	48(%rax), %rax
	movq	%rax, (%rsp)
	testq	%rax, %rax
	je	.LBB63_3
# BB#4:                                 # %if.end3
	movq	(%rsp), %rax
	movq	(%rax), %rax
	cmpq	8(%rsp), %rax
	je	.LBB63_6
# BB#5:                                 # %if.then6
	movl	$-2, 20(%rsp)
	jmp	.LBB63_13
.LBB63_1:                               # %if.then
	movl	$-2, 20(%rsp)
	jmp	.LBB63_13
.LBB63_3:                               # %if.then2
	movl	$-2, 20(%rsp)
	jmp	.LBB63_13
.LBB63_6:                               # %if.end7
	movq	(%rsp), %rax
	cmpq	$0, 24(%rax)
	je	.LBB63_8
# BB#7:                                 # %if.then9
	movq	(%rsp), %rax
	movq	24(%rax), %rsi
	movq	8(%rsp), %rax
	movq	72(%rax), %rdi
	callq	*64(%rax)
.LBB63_8:                               # %if.end11
	movq	(%rsp), %rax
	cmpq	$0, 32(%rax)
	je	.LBB63_10
# BB#9:                                 # %if.then13
	movq	(%rsp), %rax
	movq	32(%rax), %rsi
	movq	8(%rsp), %rax
	movq	72(%rax), %rdi
	callq	*64(%rax)
.LBB63_10:                              # %if.end17
	movq	(%rsp), %rax
	cmpq	$0, 40(%rax)
	je	.LBB63_12
# BB#11:                                # %if.then19
	movq	(%rsp), %rax
	movq	40(%rax), %rsi
	movq	8(%rsp), %rax
	movq	72(%rax), %rdi
	callq	*64(%rax)
.LBB63_12:                              # %if.end23
	movq	8(%rsp), %rax
	movq	48(%rax), %rsi
	movq	72(%rax), %rdi
	callq	*64(%rax)
	movq	8(%rsp), %rax
	movq	$0, 48(%rax)
	movl	$0, 20(%rsp)
.LBB63_13:                              # %return
	movl	20(%rsp), %eax
	addq	$24, %rsp
	ret
.Ltmp255:
	.size	BZ2_bzCompressEnd, .Ltmp255-BZ2_bzCompressEnd
	.cfi_endproc

	.globl	BZ2_bzDecompressInit
	.align	16, 0x90
	.type	BZ2_bzDecompressInit,@function
BZ2_bzDecompressInit:                   # @BZ2_bzDecompressInit
	.cfi_startproc
# BB#0:                                 # %entry
	subq	$40, %rsp
.Ltmp257:
	.cfi_def_cfa_offset 48
	movq	%rdi, 24(%rsp)
	movl	%esi, 20(%rsp)
	movl	%edx, 16(%rsp)
	callq	bz_config_ok
	testl	%eax, %eax
	je	.LBB64_1
# BB#2:                                 # %if.end
	cmpq	$0, 24(%rsp)
	je	.LBB64_3
# BB#4:                                 # %if.end2
	cmpl	$0, 16(%rsp)
	je	.LBB64_7
# BB#5:                                 # %land.lhs.true
	cmpl	$1, 16(%rsp)
	je	.LBB64_7
# BB#6:                                 # %if.then5
	movl	$-2, 36(%rsp)
	jmp	.LBB64_17
.LBB64_1:                               # %if.then
	movl	$-9, 36(%rsp)
	jmp	.LBB64_17
.LBB64_7:                               # %if.end6
	cmpl	$0, 20(%rsp)
	js	.LBB64_9
# BB#8:                                 # %lor.lhs.false
	cmpl	$5, 20(%rsp)
	jl	.LBB64_10
.LBB64_9:                               # %if.then9
	movl	$-2, 36(%rsp)
	jmp	.LBB64_17
.LBB64_3:                               # %if.then1
	movl	$-2, 36(%rsp)
	jmp	.LBB64_17
.LBB64_10:                              # %if.end10
	movq	24(%rsp), %rax
	cmpq	$0, 56(%rax)
	jne	.LBB64_12
# BB#11:                                # %if.then12
	movq	24(%rsp), %rax
	movq	$default_bzalloc, 56(%rax)
.LBB64_12:                              # %if.end14
	movq	24(%rsp), %rax
	cmpq	$0, 64(%rax)
	jne	.LBB64_14
# BB#13:                                # %if.then16
	movq	24(%rsp), %rax
	movq	$default_bzfree, 64(%rax)
.LBB64_14:                              # %if.end18
	movq	24(%rsp), %rax
	movq	72(%rax), %rdi
	movl	$64144, %esi            # imm = 0xFA90
	movl	$1, %edx
	callq	*56(%rax)
	movq	%rax, 8(%rsp)
	testq	%rax, %rax
	je	.LBB64_15
# BB#16:                                # %if.end23
	movq	8(%rsp), %rax
	movq	24(%rsp), %rcx
	movq	%rcx, (%rax)
	movq	24(%rsp), %rax
	movq	8(%rsp), %rcx
	movq	%rcx, 48(%rax)
	movq	8(%rsp), %rax
	movl	$10, 8(%rax)
	movq	8(%rsp), %rax
	movl	$0, 36(%rax)
	movq	8(%rsp), %rax
	movl	$0, 32(%rax)
	movq	8(%rsp), %rax
	movl	$0, 3188(%rax)
	movq	24(%rsp), %rax
	movl	$0, 12(%rax)
	movq	24(%rsp), %rax
	movl	$0, 16(%rax)
	movq	24(%rsp), %rax
	movl	$0, 36(%rax)
	movq	24(%rsp), %rax
	movl	$0, 40(%rax)
	movq	8(%rsp), %rax
	movb	16(%rsp), %cl
	movb	%cl, 44(%rax)
	movq	8(%rsp), %rax
	movq	$0, 3168(%rax)
	movq	8(%rsp), %rax
	movq	$0, 3160(%rax)
	movq	8(%rsp), %rax
	movq	$0, 3152(%rax)
	movq	8(%rsp), %rax
	movl	$0, 48(%rax)
	movq	8(%rsp), %rax
	movl	20(%rsp), %ecx
	movl	%ecx, 52(%rax)
	movl	$0, 36(%rsp)
	jmp	.LBB64_17
.LBB64_15:                              # %if.then22
	movl	$-3, 36(%rsp)
.LBB64_17:                              # %return
	movl	36(%rsp), %eax
	addq	$40, %rsp
	ret
.Ltmp258:
	.size	BZ2_bzDecompressInit, .Ltmp258-BZ2_bzDecompressInit
	.cfi_endproc

	.globl	BZ2_indexIntoF
	.align	16, 0x90
	.type	BZ2_indexIntoF,@function
BZ2_indexIntoF:                         # @BZ2_indexIntoF
	.cfi_startproc
# BB#0:                                 # %entry
	movl	%edi, -4(%rsp)
	movq	%rsi, -16(%rsp)
	movl	$0, -20(%rsp)
	movl	$256, -24(%rsp)         # imm = 0x100
	.align	16, 0x90
.LBB65_1:                               # %do.body
                                        # =>This Inner Loop Header: Depth=1
	movl	-20(%rsp), %eax
	addl	-24(%rsp), %eax
	sarl	%eax
	movl	%eax, -28(%rsp)
	movslq	-28(%rsp), %rax
	movq	-16(%rsp), %rcx
	movl	-4(%rsp), %edx
	cmpl	(%rcx,%rax,4), %edx
	jl	.LBB65_3
# BB#2:                                 # %if.then
                                        #   in Loop: Header=BB65_1 Depth=1
	movl	-28(%rsp), %eax
	movl	%eax, -20(%rsp)
	jmp	.LBB65_4
	.align	16, 0x90
.LBB65_3:                               # %if.else
                                        #   in Loop: Header=BB65_1 Depth=1
	movl	-28(%rsp), %eax
	movl	%eax, -24(%rsp)
.LBB65_4:                               # %do.cond
                                        #   in Loop: Header=BB65_1 Depth=1
	movl	-24(%rsp), %eax
	subl	-20(%rsp), %eax
	cmpl	$1, %eax
	jne	.LBB65_1
# BB#5:                                 # %do.end
	movl	-20(%rsp), %eax
	ret
.Ltmp259:
	.size	BZ2_indexIntoF, .Ltmp259-BZ2_indexIntoF
	.cfi_endproc

	.globl	BZ2_bzDecompress
	.align	16, 0x90
	.type	BZ2_bzDecompress,@function
BZ2_bzDecompress:                       # @BZ2_bzDecompress
	.cfi_startproc
# BB#0:                                 # %entry
	subq	$40, %rsp
.Ltmp261:
	.cfi_def_cfa_offset 48
	movq	%rdi, 24(%rsp)
	testq	%rdi, %rdi
	je	.LBB66_1
# BB#2:                                 # %if.end
	movq	24(%rsp), %rax
	movq	48(%rax), %rax
	movq	%rax, 8(%rsp)
	testq	%rax, %rax
	je	.LBB66_3
# BB#4:                                 # %if.end3
	movq	8(%rsp), %rax
	movq	(%rax), %rax
	cmpq	24(%rsp), %rax
	je	.LBB66_6
# BB#5:                                 # %if.then6
	movl	$-2, 36(%rsp)
	jmp	.LBB66_32
	.align	16, 0x90
.LBB66_6:                               # %while.body
                                        # =>This Inner Loop Header: Depth=1
	movq	8(%rsp), %rax
	cmpl	$1, 8(%rax)
	je	.LBB66_7
# BB#8:                                 # %if.end11
                                        #   in Loop: Header=BB66_6 Depth=1
	movq	8(%rsp), %rax
	cmpl	$2, 8(%rax)
	jne	.LBB66_24
# BB#9:                                 # %if.then14
                                        #   in Loop: Header=BB66_6 Depth=1
	movq	8(%rsp), %rax
	cmpb	$0, 44(%rax)
	je	.LBB66_11
# BB#10:                                # %if.then15
                                        #   in Loop: Header=BB66_6 Depth=1
	movq	8(%rsp), %rdi
	callq	unRLE_obuf_to_output_SMALL
	jmp	.LBB66_12
	.align	16, 0x90
.LBB66_11:                              # %if.else
                                        #   in Loop: Header=BB66_6 Depth=1
	movq	8(%rsp), %rdi
	callq	unRLE_obuf_to_output_FAST
.LBB66_12:                              # %if.else
                                        #   in Loop: Header=BB66_6 Depth=1
	movb	%al, 23(%rsp)
	cmpb	$0, 23(%rsp)
	jne	.LBB66_13
# BB#14:                                # %if.end20
                                        #   in Loop: Header=BB66_6 Depth=1
	movq	8(%rsp), %rcx
	movl	1092(%rcx), %eax
	movl	64080(%rcx), %ecx
	incl	%ecx
	cmpl	%ecx, %eax
	jne	.LBB66_22
# BB#15:                                # %land.lhs.true
                                        #   in Loop: Header=BB66_6 Depth=1
	movq	8(%rsp), %rax
	cmpl	$0, 16(%rax)
	jne	.LBB66_22
# BB#16:                                # %if.then23
                                        #   in Loop: Header=BB66_6 Depth=1
	movq	8(%rsp), %rax
	notl	3184(%rax)
	movq	8(%rsp), %rax
	cmpl	$3, 52(%rax)
	jl	.LBB66_18
# BB#17:                                # %if.then26
                                        #   in Loop: Header=BB66_6 Depth=1
	movq	8(%rsp), %rax
	movl	3176(%rax), %edx
	movl	3184(%rax), %ecx
	movq	stderr(%rip), %rdi
	movl	$.L.str2110, %esi
	xorb	%al, %al
	callq	fprintf
.LBB66_18:                              # %if.end29
                                        #   in Loop: Header=BB66_6 Depth=1
	movq	8(%rsp), %rax
	cmpl	$2, 52(%rax)
	jl	.LBB66_20
# BB#19:                                # %if.then32
                                        #   in Loop: Header=BB66_6 Depth=1
	movq	stderr(%rip), %rdi
	movl	$.L.str3111, %esi
	xorb	%al, %al
	callq	fprintf
.LBB66_20:                              # %if.end34
                                        #   in Loop: Header=BB66_6 Depth=1
	movq	8(%rsp), %rax
	movl	3184(%rax), %ecx
	cmpl	3176(%rax), %ecx
	jne	.LBB66_21
# BB#23:                                # %if.end39
                                        #   in Loop: Header=BB66_6 Depth=1
	movq	8(%rsp), %rax
	roll	3188(%rax)
	movq	8(%rsp), %rax
	movl	3184(%rax), %ecx
	xorl	%ecx, 3188(%rax)
	movq	8(%rsp), %rax
	movl	$14, 8(%rax)
.LBB66_24:                              # %if.end47
                                        #   in Loop: Header=BB66_6 Depth=1
	movq	8(%rsp), %rax
	cmpl	$10, 8(%rax)
	jl	.LBB66_6
# BB#25:                                # %if.then50
                                        #   in Loop: Header=BB66_6 Depth=1
	movq	8(%rsp), %rdi
	callq	BZ2_decompress
	movl	%eax, 4(%rsp)
	cmpl	$4, %eax
	je	.LBB66_26
# BB#30:                                # %if.end65
                                        #   in Loop: Header=BB66_6 Depth=1
	movq	8(%rsp), %rax
	cmpl	$2, 8(%rax)
	je	.LBB66_6
	jmp	.LBB66_31
.LBB66_1:                               # %if.then
	movl	$-2, 36(%rsp)
	jmp	.LBB66_32
.LBB66_3:                               # %if.then2
	movl	$-2, 36(%rsp)
.LBB66_32:                              # %return
	movl	36(%rsp), %eax
	addq	$40, %rsp
	ret
.LBB66_7:                               # %if.then10
	movl	$-1, 36(%rsp)
	jmp	.LBB66_32
.LBB66_22:                              # %if.else45
	movl	$0, 36(%rsp)
	jmp	.LBB66_32
.LBB66_13:                              # %if.then19
	movl	$-4, 36(%rsp)
	jmp	.LBB66_32
.LBB66_26:                              # %if.then53
	movq	8(%rsp), %rax
	cmpl	$3, 52(%rax)
	jl	.LBB66_28
# BB#27:                                # %if.then56
	movq	8(%rsp), %rax
	movl	3180(%rax), %edx
	movl	3188(%rax), %ecx
	movq	stderr(%rip), %rdi
	movl	$.L.str4112, %esi
	xorb	%al, %al
	callq	fprintf
.LBB66_28:                              # %if.end59
	movq	8(%rsp), %rax
	movl	3188(%rax), %ecx
	cmpl	3180(%rax), %ecx
	je	.LBB66_31
# BB#29:                                # %if.then63
	movl	$-4, 36(%rsp)
	jmp	.LBB66_32
.LBB66_31:                              # %if.then68
	movl	4(%rsp), %eax
	movl	%eax, 36(%rsp)
	jmp	.LBB66_32
.LBB66_21:                              # %if.then38
	movl	$-4, 36(%rsp)
	jmp	.LBB66_32
.Ltmp262:
	.size	BZ2_bzDecompress, .Ltmp262-BZ2_bzDecompress
	.cfi_endproc

	.align	16, 0x90
	.type	unRLE_obuf_to_output_SMALL,@function
unRLE_obuf_to_output_SMALL:             # @unRLE_obuf_to_output_SMALL
	.cfi_startproc
# BB#0:                                 # %entry
	subq	$24, %rsp
.Ltmp264:
	.cfi_def_cfa_offset 32
	movq	%rdi, 8(%rsp)
	cmpb	$0, 20(%rdi)
	je	.LBB67_42
	jmp	.LBB67_1
	.align	16, 0x90
.LBB67_5:                               # %if.then23
                                        #   in Loop: Header=BB67_1 Depth=1
	movq	8(%rsp), %rax
	movq	(%rax), %rax
	incl	40(%rax)
.LBB67_1:                               # %while.body2
                                        # =>This Inner Loop Header: Depth=1
	movq	8(%rsp), %rax
	movq	(%rax), %rax
	cmpl	$0, 32(%rax)
	je	.LBB67_2
# BB#3:                                 # %if.end
                                        #   in Loop: Header=BB67_1 Depth=1
	movq	8(%rsp), %rax
	cmpl	$0, 16(%rax)
	jne	.LBB67_4
# BB#6:                                 # %while.end
                                        #   in Loop: Header=BB67_1 Depth=1
	movq	8(%rsp), %rcx
	movl	1092(%rcx), %eax
	movl	64080(%rcx), %ecx
	incl	%ecx
	cmpl	%ecx, %eax
	je	.LBB67_7
# BB#8:                                 # %if.end30
                                        #   in Loop: Header=BB67_1 Depth=1
	movq	8(%rsp), %rcx
	movl	1092(%rcx), %eax
	movl	64080(%rcx), %ecx
	incl	%ecx
	cmpl	%ecx, %eax
	jg	.LBB67_50
# BB#9:                                 # %if.end37
                                        #   in Loop: Header=BB67_1 Depth=1
	movq	8(%rsp), %rax
	movl	$1, 16(%rax)
	movq	8(%rsp), %rax
	movb	64(%rax), %cl
	movb	%cl, 12(%rax)
	movq	8(%rsp), %rsi
	movl	60(%rsi), %edi
	addq	$1096, %rsi             # imm = 0x448
	callq	BZ2_indexIntoF
	movb	%al, 7(%rsp)
	movq	8(%rsp), %rax
	movl	60(%rax), %ecx
	movl	%ecx, %esi
	shrl	%esi
	movq	3160(%rax), %rdx
	movq	3168(%rax), %rdi
	movzwl	(%rdx,%rcx,2), %edx
	movzbl	(%rdi,%rsi), %esi
	leal	(,%rcx,4), %ecx
	andb	$4, %cl
                                        # kill: CL<def> CL<kill> ECX<kill>
	shrl	%cl, %esi
	andl	$15, %esi
	shll	$16, %esi
	orl	%edx, %esi
	movl	%esi, 60(%rax)
	movq	8(%rsp), %rax
	cmpl	$0, 24(%rax)
	jne	.LBB67_12
# BB#10:                                # %if.then59
                                        #   in Loop: Header=BB67_1 Depth=1
	movq	8(%rsp), %rax
	movslq	28(%rax), %rcx
	movl	BZ2_rNums(,%rcx,4), %ecx
	movl	%ecx, 24(%rax)
	movq	8(%rsp), %rax
	incl	28(%rax)
	movq	8(%rsp), %rax
	cmpl	$512, 28(%rax)          # imm = 0x200
	jne	.LBB67_12
# BB#11:                                # %if.then68
                                        #   in Loop: Header=BB67_1 Depth=1
	movq	8(%rsp), %rax
	movl	$0, 28(%rax)
.LBB67_12:                              # %if.end71
                                        #   in Loop: Header=BB67_1 Depth=1
	movq	8(%rsp), %rax
	decl	24(%rax)
	movq	8(%rsp), %rcx
	movl	$1, %eax
	cmpl	$1, 24(%rcx)
	je	.LBB67_14
# BB#13:                                # %select.mid
